
grbl.elf:     file format elf32-avr

Sections:
Idx Name          Size      VMA       LMA       File off  Algn
  0 .text         0000453e  00000000  00000000  00000074  2**1
                  CONTENTS, ALLOC, LOAD, READONLY, CODE
  1 .bss          0000049d  00800200  00800200  000045b2  2**0
                  ALLOC
  2 .debug_aranges 00000480  00000000  00000000  000045b2  2**0
                  CONTENTS, READONLY, DEBUGGING
  3 .debug_pubnames 00000850  00000000  00000000  00004a32  2**0
                  CONTENTS, READONLY, DEBUGGING
  4 .debug_info   0000350d  00000000  00000000  00005282  2**0
                  CONTENTS, READONLY, DEBUGGING
  5 .debug_abbrev 0000134b  00000000  00000000  0000878f  2**0
                  CONTENTS, READONLY, DEBUGGING
  6 .debug_line   00002f6a  00000000  00000000  00009ada  2**0
                  CONTENTS, READONLY, DEBUGGING
  7 .debug_frame  00000700  00000000  00000000  0000ca44  2**2
                  CONTENTS, READONLY, DEBUGGING
  8 .debug_str    00000db9  00000000  00000000  0000d144  2**0
                  CONTENTS, READONLY, DEBUGGING
  9 .debug_loc    00001922  00000000  00000000  0000defd  2**0
                  CONTENTS, READONLY, DEBUGGING
 10 .debug_ranges 00000748  00000000  00000000  0000f81f  2**0
                  CONTENTS, READONLY, DEBUGGING

Disassembly of section .text:

00000000 <__vectors>:
       0:	0c 94 93 02 	jmp	0x526	; 0x526 <__ctors_end>
       4:	0c 94 b4 02 	jmp	0x568	; 0x568 <__bad_interrupt>
       8:	0c 94 b4 02 	jmp	0x568	; 0x568 <__bad_interrupt>
       c:	0c 94 b4 02 	jmp	0x568	; 0x568 <__bad_interrupt>
      10:	0c 94 b4 02 	jmp	0x568	; 0x568 <__bad_interrupt>
      14:	0c 94 b4 02 	jmp	0x568	; 0x568 <__bad_interrupt>
      18:	0c 94 b4 02 	jmp	0x568	; 0x568 <__bad_interrupt>
      1c:	0c 94 b4 02 	jmp	0x568	; 0x568 <__bad_interrupt>
      20:	0c 94 b4 02 	jmp	0x568	; 0x568 <__bad_interrupt>
      24:	0c 94 b4 02 	jmp	0x568	; 0x568 <__bad_interrupt>
      28:	0c 94 b4 02 	jmp	0x568	; 0x568 <__bad_interrupt>
      2c:	0c 94 b4 02 	jmp	0x568	; 0x568 <__bad_interrupt>
      30:	0c 94 b4 02 	jmp	0x568	; 0x568 <__bad_interrupt>
      34:	0c 94 b4 02 	jmp	0x568	; 0x568 <__bad_interrupt>
      38:	0c 94 b4 02 	jmp	0x568	; 0x568 <__bad_interrupt>
      3c:	0c 94 4d 14 	jmp	0x289a	; 0x289a <__vector_15>
      40:	0c 94 b4 02 	jmp	0x568	; 0x568 <__bad_interrupt>
      44:	0c 94 86 16 	jmp	0x2d0c	; 0x2d0c <__vector_17>
      48:	0c 94 b4 02 	jmp	0x568	; 0x568 <__bad_interrupt>
      4c:	0c 94 b4 02 	jmp	0x568	; 0x568 <__bad_interrupt>
      50:	0c 94 b4 02 	jmp	0x568	; 0x568 <__bad_interrupt>
      54:	0c 94 b4 02 	jmp	0x568	; 0x568 <__bad_interrupt>
      58:	0c 94 b4 02 	jmp	0x568	; 0x568 <__bad_interrupt>
      5c:	0c 94 b4 02 	jmp	0x568	; 0x568 <__bad_interrupt>
      60:	0c 94 b4 02 	jmp	0x568	; 0x568 <__bad_interrupt>
      64:	0c 94 ab 19 	jmp	0x3356	; 0x3356 <__vector_25>
      68:	0c 94 b4 02 	jmp	0x568	; 0x568 <__bad_interrupt>
      6c:	0c 94 b4 02 	jmp	0x568	; 0x568 <__bad_interrupt>
      70:	0c 94 b4 02 	jmp	0x568	; 0x568 <__bad_interrupt>
      74:	0c 94 b4 02 	jmp	0x568	; 0x568 <__bad_interrupt>
      78:	0c 94 b4 02 	jmp	0x568	; 0x568 <__bad_interrupt>
      7c:	0c 94 b4 02 	jmp	0x568	; 0x568 <__bad_interrupt>
      80:	0c 94 b4 02 	jmp	0x568	; 0x568 <__bad_interrupt>
      84:	0c 94 b4 02 	jmp	0x568	; 0x568 <__bad_interrupt>
      88:	0c 94 b4 02 	jmp	0x568	; 0x568 <__bad_interrupt>
      8c:	0c 94 b4 02 	jmp	0x568	; 0x568 <__bad_interrupt>
      90:	0c 94 b4 02 	jmp	0x568	; 0x568 <__bad_interrupt>
      94:	0c 94 b4 02 	jmp	0x568	; 0x568 <__bad_interrupt>
      98:	0c 94 b4 02 	jmp	0x568	; 0x568 <__bad_interrupt>
      9c:	0c 94 b4 02 	jmp	0x568	; 0x568 <__bad_interrupt>
      a0:	0c 94 b4 02 	jmp	0x568	; 0x568 <__bad_interrupt>
      a4:	0c 94 b4 02 	jmp	0x568	; 0x568 <__bad_interrupt>
      a8:	0c 94 b4 02 	jmp	0x568	; 0x568 <__bad_interrupt>
      ac:	0c 94 b4 02 	jmp	0x568	; 0x568 <__bad_interrupt>
      b0:	0c 94 b4 02 	jmp	0x568	; 0x568 <__bad_interrupt>
      b4:	0c 94 b4 02 	jmp	0x568	; 0x568 <__bad_interrupt>
      b8:	0c 94 b4 02 	jmp	0x568	; 0x568 <__bad_interrupt>
      bc:	0c 94 b4 02 	jmp	0x568	; 0x568 <__bad_interrupt>
      c0:	0c 94 b4 02 	jmp	0x568	; 0x568 <__bad_interrupt>
      c4:	0c 94 b4 02 	jmp	0x568	; 0x568 <__bad_interrupt>
      c8:	0c 94 b4 02 	jmp	0x568	; 0x568 <__bad_interrupt>
      cc:	0c 94 b4 02 	jmp	0x568	; 0x568 <__bad_interrupt>
      d0:	0c 94 b4 02 	jmp	0x568	; 0x568 <__bad_interrupt>
      d4:	0c 94 b4 02 	jmp	0x568	; 0x568 <__bad_interrupt>
      d8:	0c 94 b4 02 	jmp	0x568	; 0x568 <__bad_interrupt>
      dc:	0c 94 b4 02 	jmp	0x568	; 0x568 <__bad_interrupt>
      e0:	0c 94 b4 02 	jmp	0x568	; 0x568 <__bad_interrupt>
      e4:	01 06       	cpc	r0, r17
      e6:	01 06       	cpc	r0, r17
      e8:	04 06       	cpc	r0, r20
      ea:	07 06       	cpc	r0, r23
      ec:	0a 06       	cpc	r0, r26
      ee:	11 06       	cpc	r1, r17
      f0:	4f 06       	cpc	r4, r31
      f2:	4f 06       	cpc	r4, r31
      f4:	16 06       	cpc	r1, r22
      f6:	1d 06       	cpc	r1, r29
      f8:	22 06       	cpc	r2, r18
      fa:	25 06       	cpc	r2, r21
      fc:	2a 06       	cpc	r2, r26
      fe:	2d 06       	cpc	r2, r29
     100:	30 06       	cpc	r3, r16
     102:	33 06       	cpc	r3, r19
     104:	36 06       	cpc	r3, r22
     106:	39 06       	cpc	r3, r25
     108:	3c 06       	cpc	r3, r28
     10a:	41 06       	cpc	r4, r17
     10c:	44 06       	cpc	r4, r20
     10e:	49 06       	cpc	r4, r25
     110:	4c 06       	cpc	r4, r28
     112:	4f 06       	cpc	r4, r31
     114:	4f 06       	cpc	r4, r31
     116:	4f 06       	cpc	r4, r31
     118:	4f 06       	cpc	r4, r31
     11a:	4f 06       	cpc	r4, r31
     11c:	4f 06       	cpc	r4, r31
     11e:	4f 06       	cpc	r4, r31
     120:	04 06       	cpc	r0, r20
     122:	4f 06       	cpc	r4, r31
     124:	4f 06       	cpc	r4, r31
     126:	4f 06       	cpc	r4, r31
     128:	4f 06       	cpc	r4, r31
     12a:	4f 06       	cpc	r4, r31
     12c:	4f 06       	cpc	r4, r31
     12e:	4f 06       	cpc	r4, r31
     130:	4f 06       	cpc	r4, r31
     132:	4f 06       	cpc	r4, r31
     134:	4f 06       	cpc	r4, r31
     136:	4f 06       	cpc	r4, r31
     138:	4f 06       	cpc	r4, r31
     13a:	4f 06       	cpc	r4, r31
     13c:	4f 06       	cpc	r4, r31
     13e:	4f 06       	cpc	r4, r31
     140:	4f 06       	cpc	r4, r31
     142:	4f 06       	cpc	r4, r31
     144:	4f 06       	cpc	r4, r31
     146:	4f 06       	cpc	r4, r31
     148:	4f 06       	cpc	r4, r31
     14a:	4f 06       	cpc	r4, r31
     14c:	4f 06       	cpc	r4, r31
     14e:	4f 06       	cpc	r4, r31
     150:	4f 06       	cpc	r4, r31
     152:	4f 06       	cpc	r4, r31
     154:	4f 06       	cpc	r4, r31
     156:	4f 06       	cpc	r4, r31
     158:	4f 06       	cpc	r4, r31
     15a:	4f 06       	cpc	r4, r31
     15c:	04 06       	cpc	r0, r20
     15e:	08 4a       	sbci	r16, 0xA8	; 168
     160:	d7 3b       	cpi	r29, 0xB7	; 183
     162:	3b ce       	rjmp	.-906    	; 0xfffffdda <__eeprom_end+0xff7efdda>
     164:	01 6e       	ori	r16, 0xE1	; 225
     166:	84 bc       	out	0x24, r8	; 36
     168:	bf fd       	.word	0xfdbf	; ????
     16a:	c1 2f       	mov	r28, r17
     16c:	3d 6c       	ori	r19, 0xCD	; 205
     16e:	74 31       	cpi	r23, 0x14	; 20
     170:	9a bd       	out	0x2a, r25	; 42
     172:	56 83       	std	Z+6, r21	; 0x06
     174:	3d da       	rcall	.-2950   	; 0xfffff5f0 <__eeprom_end+0xff7ef5f0>
     176:	3d 00       	.word	0x003d	; ????
     178:	c7 7f       	andi	r28, 0xF7	; 247
     17a:	11 be       	out	0x31, r1	; 49
     17c:	d9 e4       	ldi	r29, 0x49	; 73
     17e:	bb 4c       	sbci	r27, 0xCB	; 203
     180:	3e 91       	ld	r19, -X
     182:	6b aa       	std	Y+51, r6	; 0x33
     184:	aa be       	out	0x3a, r10	; 58
     186:	00 00       	nop
     188:	00 80       	ld	r0, Z
     18a:	3f 59       	subi	r19, 0x9F	; 159

0000018b <__c.1875>:
     18b:	59 5f 48 4f 4d 45 0d 0a 00                          Y_HOME...

00000194 <__c.1873>:
     194:	58 5f 48 4f 4d 45 0d 0a 00                          X_HOME...

0000019d <__c.1871>:
     19d:	59 4c 32 0d 0a 00                                   YL2...

000001a3 <__c.1869>:
     1a3:	59 4c 31 0d 0a 00                                   YL1...

000001a9 <__c.1867>:
     1a9:	58 4c 32 0d 0a 00                                   XL2...

000001af <__c.1865>:
     1af:	58 4c 31 0d 0a 00                                   XL1...

000001b5 <__c.1863>:
     1b5:	0d 0a 00                                            ...

000001b8 <__c.1861>:
     1b8:	72 6f 74 61 74 65 64 20 3d 20 00                    rotated = .

000001c3 <__c.1859>:
     1c3:	0d 0a 00                                            ...

000001c6 <__c.1857>:
     1c6:	68 65 61 64 20 64 6f 77 6e 20 3d 20 00              head down = .

000001d3 <__c.1855>:
     1d3:	0d 0a 00                                            ...

000001d6 <__c.1853>:
     1d6:	50 49 4e 44 20 6c 69 6d 69 74 73 20 3d 20 00        PIND limits = .

000001e5 <__c.1851>:
     1e5:	0d 0a 00                                            ...

000001e8 <__c.1849>:
     1e8:	50 4f 52 54 44 20 20 3d 20 00                       PORTD  = .

000001f2 <__c.1847>:
     1f2:	0d 0a 00                                            ...

000001f5 <__c.1845>:
     1f5:	44 49 52 45 43 54 49 4f 4e 5f 50 4f 52 54 20 20     DIRECTION_PORT  
     205:	3d 20 00                                            = .

00000208 <__c.1843>:
     208:	0d 0a 00                                            ...

0000020b <__c.1841>:
     20b:	44 49 52 45 43 54 49 4f 4e 5f 44 44 52 20 20 3d     DIRECTION_DDR  =
     21b:	20 00                                                .

0000021d <__c.1611>:
     21d:	6f 6b 0a 0d 00                                      ok...

00000222 <__c.1669>:
     222:	0a 0d 00                                            ...

00000225 <__c.1667>:
     225:	65 72 72 6f 72 3a 20 00                             error: .

0000022d <__c.1664>:
     22d:	65 72 72 6f 72 3a 20 46 6c 6f 61 74 69 6e 67 20     error: Floating 
     23d:	70 6f 69 6e 74 20 65 72 72 6f 72 0a 0d 00           point error...

0000024b <__c.1661>:
     24b:	65 72 72 6f 72 3a 20 55 6e 73 75 70 70 6f 72 74     error: Unsupport
     25b:	65 64 20 73 74 61 74 65 6d 65 6e 74 0a 0d 00        ed statement...

0000026a <__c.1658>:
     26a:	65 72 72 6f 72 3a 20 45 78 70 65 63 74 65 64 20     error: Expected 
     27a:	63 6f 6d 6d 61 6e 64 20 6c 65 74 74 65 72 0a 0d     command letter..
	...

0000028b <__c.1655>:
     28b:	65 72 72 6f 72 3a 20 42 61 64 20 6e 75 6d 62 65     error: Bad numbe
     29b:	72 20 66 6f 72 6d 61 74 0a 0d 00                    r format...

000002a6 <__c.1651>:
     2a6:	6f 6b 0a 0d 00                                      ok...

000002ab <__c.1648>:
     2ab:	0d 0a 4e 6f 74 20 68 6f 6d 65 64 0a 0d 00           ..Not homed...

000002b9 <__c.1726>:
     2b9:	53 74 6f 72 65 64 20 6e 65 77 20 73 65 74 74 69     Stored new setti
     2c9:	6e 67 0d 0a 00                                      ng...

000002ce <__c.1724>:
     2ce:	55 6e 6b 6e 6f 77 6e 20 70 61 72 61 6d 65 74 65     Unknown paramete
     2de:	72 0d 0a 00                                         r...

000002e2 <__c.1681>:
     2e2:	27 24 78 3d 76 61 6c 75 65 27 20 74 6f 20 73 65     '$x=value' to se
     2f2:	74 20 70 61 72 61 6d 65 74 65 72 20 6f 72 20 6a     t parameter or j
     302:	75 73 74 20 27 24 27 20 74 6f 20 64 75 6d 70 20     ust '$' to dump 
     312:	63 75 72 72 65 6e 74 20 73 65 74 74 69 6e 67 73     current settings
     322:	0d 0a 00                                            ...

00000325 <__c.1679>:
     325:	20 28 73 74 65 70 70 65 72 73 3a 20 30 20 3d 20      (steppers: 0 = 
     335:	64 69 73 61 62 6c 65 64 2c 20 31 20 3d 20 65 6e     disabled, 1 = en
     345:	61 62 6c 65 64 29 0d 0a 00                          abled)...

0000034e <__c.1677>:
     34e:	24 31 30 30 30 20 3d 20 00                          $1000 = .

00000357 <__c.1675>:
     357:	20 28 6d 61 78 20 69 6e 73 74 61 6e 74 20 63 6f      (max instant co
     367:	72 6e 65 72 69 6e 67 20 73 70 65 65 64 20 63 68     rnering speed ch
     377:	61 6e 67 65 20 69 6e 20 64 65 6c 74 61 20 6d 6d     ange in delta mm
     387:	2f 6d 69 6e 29 0d 0a 00                             /min)...

0000038f <__c.1673>:
     38f:	24 39 20 3d 20 00                                   $9 = .

00000395 <__c.1671>:
     395:	20 28 61 63 63 65 6c 65 72 61 74 69 6f 6e 20 69      (acceleration i
     3a5:	6e 20 6d 6d 2f 73 65 63 5e 32 29 0d 0a 00           n mm/sec^2)...

000003b3 <__c.1669>:
     3b3:	24 38 20 3d 20 00                                   $8 = .

000003b9 <__c.1667>:
     3b9:	20 28 6d 6d 2f 61 72 63 20 73 65 67 6d 65 6e 74      (mm/arc segment
     3c9:	29 0d 0a 00                                         )...

000003cd <__c.1665>:
     3cd:	24 37 20 3d 20 00                                   $7 = .

000003d3 <__c.1663>:
     3d3:	20 28 6d 6d 2f 6d 69 6e 20 64 65 66 61 75 6c 74      (mm/min default
     3e3:	20 73 65 65 6b 20 72 61 74 65 29 0d 0a 00            seek rate)...

000003f1 <__c.1661>:
     3f1:	24 36 20 3d 20 00                                   $6 = .

000003f7 <__c.1659>:
     3f7:	20 28 6d 6d 2f 6d 69 6e 20 64 65 66 61 75 6c 74      (mm/min default
     407:	20 66 65 65 64 20 72 61 74 65 29 0d 0a 00            feed rate)...

00000415 <__c.1657>:
     415:	24 35 20 3d 20 00                                   $5 = .

0000041b <__c.1655>:
     41b:	20 28 6d 69 63 72 6f 73 65 63 6f 6e 64 73 20 73      (microseconds s
     42b:	74 65 70 20 70 75 6c 73 65 29 0d 0a 00              tep pulse)...

00000438 <__c.1653>:
     438:	24 34 20 3d 20 00                                   $4 = .

0000043e <__c.1651>:
     43e:	20 28 73 74 65 70 73 2f 64 65 67 2e 20 63 29 0d      (steps/deg. c).
     44e:	0a 00                                               ..

00000450 <__c.1649>:
     450:	24 33 20 3d 20 00                                   $3 = .

00000456 <__c.1647>:
     456:	20 28 73 74 65 70 73 2f 6d 6d 20 7a 29 0d 0a 00      (steps/mm z)...

00000466 <__c.1645>:
     466:	24 32 20 3d 20 00                                   $2 = .

0000046c <__c.1643>:
     46c:	20 28 73 74 65 70 73 2f 6d 6d 20 79 29 0d 0a 00      (steps/mm y)...

0000047c <__c.1641>:
     47c:	24 31 20 3d 20 00                                   $1 = .

00000482 <__c.1639>:
     482:	20 28 73 74 65 70 73 2f 6d 6d 20 78 29 0d 0a 00      (steps/mm x)...

00000492 <__c.1637>:
     492:	24 30 20 3d 20 00                                   $0 = .

00000498 <__c.1635>:
     498:	0d 0a 00                                            ...

0000049b <__c.1633>:
     49b:	30 2e 37 36 50 42 00                                0.76PB.

000004a2 <__c.1631>:
     4a2:	24 56 45 52 53 49 4f 4e 20 3d 20 00                 $VERSION = .

000004ae <__c.2169>:
     4ae:	68 6f 6d 65 20 66 61 69 6c 65 64 0d 0a 00           home failed...

000004bc <__c.2029>:
     4bc:	78 4c 69 6d 69 74 31 0d 0a 00                       xLimit1...

000004c6 <__c.2047>:
     4c6:	79 4c 69 6d 69 74 31 0d 0a 00                       yLimit1...

000004d0 <__c.1817>:
     4d0:	48 65 61 64 20 64 6f 77 6e 20 65 72 72 6f 72 0a     Head down error.
     4e0:	0d 00                                               ..

000004e2 <__c.1830>:
     4e2:	6e 0d 0a 00                                         n...

000004e6 <__c.1828>:
     4e6:	79 0d 0a 00                                         y...

000004ea <pstr_inf>:
     4ea:	49 4e 46                                            INF

000004ed <pstr_inity>:
     4ed:	49 4e 49 54 59                                      INITY

000004f2 <pstr_nan>:
     4f2:	4e 41 4e                                            NAN

000004f5 <pwr_m10>:
     4f5:	cd cc cc 3d 0a d7 23 3c 17 b7 d1 38 77 cc 2b 32     ...=..#<...8w.+2
     505:	95 95 e6 24 1f b1 4f 0a                             ...$..O.

0000050d <pwr_p10>:
     50d:	00 00 20 41 00 00 c8 42 00 40 1c 46 20 bc be 4c     .. A...B.@.F ..L
     51d:	ca 1b 0e 5a ae c5 9d 74 00                          ...Z...t.

00000526 <__ctors_end>:
     526:	11 24       	eor	r1, r1
     528:	1f be       	out	0x3f, r1	; 63
     52a:	cf ef       	ldi	r28, 0xFF	; 255
     52c:	d1 e2       	ldi	r29, 0x21	; 33
     52e:	de bf       	out	0x3e, r29	; 62
     530:	cd bf       	out	0x3d, r28	; 61
     532:	00 e0       	ldi	r16, 0x00	; 0
     534:	0c bf       	out	0x3c, r16	; 60

00000536 <__do_copy_data>:
     536:	12 e0       	ldi	r17, 0x02	; 2
     538:	a0 e0       	ldi	r26, 0x00	; 0
     53a:	b2 e0       	ldi	r27, 0x02	; 2
     53c:	ee e3       	ldi	r30, 0x3E	; 62
     53e:	f5 e4       	ldi	r31, 0x45	; 69
     540:	00 e0       	ldi	r16, 0x00	; 0
     542:	0b bf       	out	0x3b, r16	; 59
     544:	02 c0       	rjmp	.+4      	; 0x54a <__do_copy_data+0x14>
     546:	07 90       	elpm	r0, Z+
     548:	0d 92       	st	X+, r0
     54a:	a0 30       	cpi	r26, 0x00	; 0
     54c:	b1 07       	cpc	r27, r17
     54e:	d9 f7       	brne	.-10     	; 0x546 <__do_copy_data+0x10>

00000550 <__do_clear_bss>:
     550:	16 e0       	ldi	r17, 0x06	; 6
     552:	a0 e0       	ldi	r26, 0x00	; 0
     554:	b2 e0       	ldi	r27, 0x02	; 2
     556:	01 c0       	rjmp	.+2      	; 0x55a <.do_clear_bss_start>

00000558 <.do_clear_bss_loop>:
     558:	1d 92       	st	X+, r1

0000055a <.do_clear_bss_start>:
     55a:	ad 39       	cpi	r26, 0x9D	; 157
     55c:	b1 07       	cpc	r27, r17
     55e:	e1 f7       	brne	.-8      	; 0x558 <.do_clear_bss_loop>
     560:	0e 94 98 08 	call	0x1130	; 0x1130 <main>
     564:	0c 94 9d 22 	jmp	0x453a	; 0x453a <_exit>

00000568 <__bad_interrupt>:
     568:	0c 94 00 00 	jmp	0	; 0x0 <__vectors>

0000056c <coolant_init>:

#include <avr/io.h>

void coolant_init()
{
  FLOOD_COOLANT_DDR |= 1<<FLOOD_COOLANT_BIT;
     56c:	24 9a       	sbi	0x04, 4	; 4
}
     56e:	08 95       	ret

00000570 <coolant_flood>:

void coolant_flood(int on) 
{
  if (on) {
     570:	89 2b       	or	r24, r25
     572:	11 f0       	breq	.+4      	; 0x578 <coolant_flood+0x8>
    FLOOD_COOLANT_PORT |= 1<<FLOOD_COOLANT_BIT;
     574:	2c 9a       	sbi	0x05, 4	; 5
     576:	08 95       	ret
  }
  else {
    FLOOD_COOLANT_PORT &= ~(1<<FLOOD_COOLANT_BIT);
     578:	2c 98       	cbi	0x05, 4	; 5
     57a:	08 95       	ret

0000057c <eeprom_get_char>:
 *  \param  addr  EEPROM address to read from.
 *  \return  The byte read from the EEPROM address.
 */
unsigned char eeprom_get_char( unsigned int addr )
{
	do {} while( EECR & (1<<EEPE) ); // Wait for completion of previous write.
     57c:	f9 99       	sbic	0x1f, 1	; 31
     57e:	fe cf       	rjmp	.-4      	; 0x57c <eeprom_get_char>
	EEAR = addr; // Set EEPROM address register.
     580:	92 bd       	out	0x22, r25	; 34
     582:	81 bd       	out	0x21, r24	; 33
	EECR = (1<<EERE); // Start EEPROM read operation.
     584:	81 e0       	ldi	r24, 0x01	; 1
     586:	8f bb       	out	0x1f, r24	; 31
	return EEDR; // Return the byte read from EEPROM.
     588:	80 b5       	in	r24, 0x20	; 32
}
     58a:	08 95       	ret

0000058c <eeprom_put_char>:
void eeprom_put_char( unsigned int addr, unsigned char new_value )
{
	char old_value; // Old EEPROM value.
	char diff_mask; // Difference mask, i.e. old value XOR new value.

	cli(); // Ensure atomic operation for the write operation.
     58c:	f8 94       	cli
	
	do {} while( EECR & (1<<EEPE) ); // Wait for completion of previous write.
     58e:	f9 99       	sbic	0x1f, 1	; 31
     590:	fe cf       	rjmp	.-4      	; 0x58e <eeprom_put_char+0x2>
	#ifndef EEPROM_IGNORE_SELFPROG
	do {} while( SPMCSR & (1<<SELFPRGEN) ); // Wait for completion of SPM.
	#endif
	
	EEAR = addr; // Set EEPROM address register.
     592:	92 bd       	out	0x22, r25	; 34
     594:	81 bd       	out	0x21, r24	; 33
	EECR = (1<<EERE); // Start EEPROM read operation.
     596:	81 e0       	ldi	r24, 0x01	; 1
     598:	8f bb       	out	0x1f, r24	; 31
	old_value = EEDR; // Get old EEPROM value.
     59a:	90 b5       	in	r25, 0x20	; 32
	diff_mask = old_value ^ new_value; // Get bit differences.
     59c:	96 27       	eor	r25, r22
	
	// Check if any bits are changed to '1' in the new value.
	if( diff_mask & new_value ) {
     59e:	89 2f       	mov	r24, r25
     5a0:	86 23       	and	r24, r22
     5a2:	39 f0       	breq	.+14     	; 0x5b2 <eeprom_put_char+0x26>
		// Now we know that _some_ bits need to be erased to '1'.
		
		// Check if any bits in the new value are '0'.
		if( new_value != 0xff ) {
     5a4:	6f 3f       	cpi	r22, 0xFF	; 255
     5a6:	19 f0       	breq	.+6      	; 0x5ae <eeprom_put_char+0x22>
			// Now we know that some bits need to be programmed to '0' also.
			
			EEDR = new_value; // Set EEPROM data register.
     5a8:	60 bd       	out	0x20, r22	; 32
			EECR = (1<<EEMPE) | // Set Master Write Enable bit...
     5aa:	84 e0       	ldi	r24, 0x04	; 4
     5ac:	06 c0       	rjmp	.+12     	; 0x5ba <eeprom_put_char+0x2e>
			       (0<<EEPM1) | (0<<EEPM0); // ...and Erase+Write mode.
			EECR |= (1<<EEPE);  // Start Erase+Write operation.
		} else {
			// Now we know that all bits should be erased.

			EECR = (1<<EEMPE) | // Set Master Write Enable bit...
     5ae:	84 e1       	ldi	r24, 0x14	; 20
     5b0:	04 c0       	rjmp	.+8      	; 0x5ba <eeprom_put_char+0x2e>
		}
	} else {
		// Now we know that _no_ bits need to be erased to '1'.
		
		// Check if any bits are changed from '1' in the old value.
		if( diff_mask ) {
     5b2:	99 23       	and	r25, r25
     5b4:	21 f0       	breq	.+8      	; 0x5be <eeprom_put_char+0x32>
			// Now we know that _some_ bits need to the programmed to '0'.
			
			EEDR = new_value;   // Set EEPROM data register.
     5b6:	60 bd       	out	0x20, r22	; 32
			EECR = (1<<EEMPE) | // Set Master Write Enable bit...
     5b8:	84 e2       	ldi	r24, 0x24	; 36
     5ba:	8f bb       	out	0x1f, r24	; 31
			       (1<<EEPM1);  // ...and Write-only mode.
			EECR |= (1<<EEPE);  // Start Write-only operation.
     5bc:	f9 9a       	sbi	0x1f, 1	; 31
		}
	}
	
	sei(); // Restore interrupt flag state.
     5be:	78 94       	sei
}
     5c0:	08 95       	ret

000005c2 <memcpy_to_eeprom_with_checksum>:

// Extensions added as part of Grbl 


void memcpy_to_eeprom_with_checksum(unsigned int destination, char *source, unsigned int size) {
     5c2:	8f 92       	push	r8
     5c4:	9f 92       	push	r9
     5c6:	af 92       	push	r10
     5c8:	bf 92       	push	r11
     5ca:	cf 92       	push	r12
     5cc:	df 92       	push	r13
     5ce:	ef 92       	push	r14
     5d0:	ff 92       	push	r15
     5d2:	0f 93       	push	r16
     5d4:	df 93       	push	r29
     5d6:	cf 93       	push	r28
     5d8:	0f 92       	push	r0
     5da:	0f 92       	push	r0
     5dc:	cd b7       	in	r28, 0x3d	; 61
     5de:	de b7       	in	r29, 0x3e	; 62
     5e0:	5c 01       	movw	r10, r24
     5e2:	6b 01       	movw	r12, r22
     5e4:	7a 01       	movw	r14, r20
     5e6:	4a 01       	movw	r8, r20
     5e8:	00 e0       	ldi	r16, 0x00	; 0
     5ea:	1e c0       	rjmp	.+60     	; 0x628 <memcpy_to_eeprom_with_checksum+0x66>
  unsigned char checksum = 0;
  for(; size > 0; size--) { 
    checksum = (checksum << 1) || (checksum >> 7);
     5ec:	00 23       	and	r16, r16
     5ee:	19 f0       	breq	.+6      	; 0x5f6 <memcpy_to_eeprom_with_checksum+0x34>
     5f0:	21 e0       	ldi	r18, 0x01	; 1
     5f2:	30 e0       	ldi	r19, 0x00	; 0
     5f4:	08 c0       	rjmp	.+16     	; 0x606 <memcpy_to_eeprom_with_checksum+0x44>
     5f6:	20 2f       	mov	r18, r16
     5f8:	33 27       	eor	r19, r19
     5fa:	27 fd       	sbrc	r18, 7
     5fc:	30 95       	com	r19
     5fe:	22 27       	eor	r18, r18
     600:	33 0f       	add	r19, r19
     602:	22 1f       	adc	r18, r18
     604:	33 27       	eor	r19, r19
    checksum += *source;
     606:	f6 01       	movw	r30, r12
     608:	61 91       	ld	r22, Z+
     60a:	6f 01       	movw	r12, r30
     60c:	06 2f       	mov	r16, r22
     60e:	02 0f       	add	r16, r18
    eeprom_put_char(destination++, *(source++)); 
     610:	9c 01       	movw	r18, r24
     612:	2f 5f       	subi	r18, 0xFF	; 255
     614:	3f 4f       	sbci	r19, 0xFF	; 255
     616:	3a 83       	std	Y+2, r19	; 0x02
     618:	29 83       	std	Y+1, r18	; 0x01
     61a:	0e 94 c6 02 	call	0x58c	; 0x58c <eeprom_put_char>
// Extensions added as part of Grbl 


void memcpy_to_eeprom_with_checksum(unsigned int destination, char *source, unsigned int size) {
  unsigned char checksum = 0;
  for(; size > 0; size--) { 
     61e:	08 94       	sec
     620:	81 08       	sbc	r8, r1
     622:	91 08       	sbc	r9, r1
     624:	89 81       	ldd	r24, Y+1	; 0x01
     626:	9a 81       	ldd	r25, Y+2	; 0x02
     628:	81 14       	cp	r8, r1
     62a:	91 04       	cpc	r9, r1
     62c:	f9 f6       	brne	.-66     	; 0x5ec <memcpy_to_eeprom_with_checksum+0x2a>
    checksum = (checksum << 1) || (checksum >> 7);
    checksum += *source;
    eeprom_put_char(destination++, *(source++)); 
  }
  eeprom_put_char(destination, checksum);
     62e:	c7 01       	movw	r24, r14
     630:	8a 0d       	add	r24, r10
     632:	9b 1d       	adc	r25, r11
     634:	60 2f       	mov	r22, r16
     636:	0e 94 c6 02 	call	0x58c	; 0x58c <eeprom_put_char>
}
     63a:	0f 90       	pop	r0
     63c:	0f 90       	pop	r0
     63e:	cf 91       	pop	r28
     640:	df 91       	pop	r29
     642:	0f 91       	pop	r16
     644:	ff 90       	pop	r15
     646:	ef 90       	pop	r14
     648:	df 90       	pop	r13
     64a:	cf 90       	pop	r12
     64c:	bf 90       	pop	r11
     64e:	af 90       	pop	r10
     650:	9f 90       	pop	r9
     652:	8f 90       	pop	r8
     654:	08 95       	ret

00000656 <memcpy_from_eeprom_with_checksum>:

int memcpy_from_eeprom_with_checksum(char *destination, unsigned int source, unsigned int size) {
     656:	cf 93       	push	r28
     658:	df 93       	push	r29
     65a:	ec 01       	movw	r28, r24
     65c:	fb 01       	movw	r30, r22
     65e:	9a 01       	movw	r18, r20
     660:	90 e0       	ldi	r25, 0x00	; 0
 */
unsigned char eeprom_get_char( unsigned int addr )
{
	do {} while( EECR & (1<<EEPE) ); // Wait for completion of previous write.
	EEAR = addr; // Set EEPROM address register.
	EECR = (1<<EERE); // Start EEPROM read operation.
     662:	b1 e0       	ldi	r27, 0x01	; 1
     664:	19 c0       	rjmp	.+50     	; 0x698 <memcpy_from_eeprom_with_checksum+0x42>
 *  \param  addr  EEPROM address to read from.
 *  \return  The byte read from the EEPROM address.
 */
unsigned char eeprom_get_char( unsigned int addr )
{
	do {} while( EECR & (1<<EEPE) ); // Wait for completion of previous write.
     666:	f9 99       	sbic	0x1f, 1	; 31
     668:	fe cf       	rjmp	.-4      	; 0x666 <memcpy_from_eeprom_with_checksum+0x10>
	EEAR = addr; // Set EEPROM address register.
     66a:	f2 bd       	out	0x22, r31	; 34
     66c:	e1 bd       	out	0x21, r30	; 33
	EECR = (1<<EERE); // Start EEPROM read operation.
     66e:	bf bb       	out	0x1f, r27	; 31
	return EEDR; // Return the byte read from EEPROM.
     670:	a0 b5       	in	r26, 0x20	; 32

int memcpy_from_eeprom_with_checksum(char *destination, unsigned int source, unsigned int size) {
  unsigned char data, checksum = 0;
  for(; size > 0; size--) { 
    data = eeprom_get_char(source++);
    checksum = (checksum << 1) || (checksum >> 7);
     672:	99 23       	and	r25, r25
     674:	19 f0       	breq	.+6      	; 0x67c <memcpy_from_eeprom_with_checksum+0x26>
     676:	81 e0       	ldi	r24, 0x01	; 1
     678:	90 e0       	ldi	r25, 0x00	; 0
     67a:	08 c0       	rjmp	.+16     	; 0x68c <memcpy_from_eeprom_with_checksum+0x36>
     67c:	89 2f       	mov	r24, r25
     67e:	99 27       	eor	r25, r25
     680:	87 fd       	sbrc	r24, 7
     682:	90 95       	com	r25
     684:	88 27       	eor	r24, r24
     686:	99 0f       	add	r25, r25
     688:	88 1f       	adc	r24, r24
     68a:	99 27       	eor	r25, r25
}

int memcpy_from_eeprom_with_checksum(char *destination, unsigned int source, unsigned int size) {
  unsigned char data, checksum = 0;
  for(; size > 0; size--) { 
    data = eeprom_get_char(source++);
     68c:	31 96       	adiw	r30, 0x01	; 1
    checksum = (checksum << 1) || (checksum >> 7);
    checksum += data;    
     68e:	9a 2f       	mov	r25, r26
     690:	98 0f       	add	r25, r24
    *(destination++) = data; 
     692:	a9 93       	st	Y+, r26
  eeprom_put_char(destination, checksum);
}

int memcpy_from_eeprom_with_checksum(char *destination, unsigned int source, unsigned int size) {
  unsigned char data, checksum = 0;
  for(; size > 0; size--) { 
     694:	21 50       	subi	r18, 0x01	; 1
     696:	30 40       	sbci	r19, 0x00	; 0
     698:	21 15       	cp	r18, r1
     69a:	31 05       	cpc	r19, r1
     69c:	21 f7       	brne	.-56     	; 0x666 <memcpy_from_eeprom_with_checksum+0x10>
     69e:	46 0f       	add	r20, r22
     6a0:	57 1f       	adc	r21, r23
 *  \param  addr  EEPROM address to read from.
 *  \return  The byte read from the EEPROM address.
 */
unsigned char eeprom_get_char( unsigned int addr )
{
	do {} while( EECR & (1<<EEPE) ); // Wait for completion of previous write.
     6a2:	f9 99       	sbic	0x1f, 1	; 31
     6a4:	fe cf       	rjmp	.-4      	; 0x6a2 <memcpy_from_eeprom_with_checksum+0x4c>
	EEAR = addr; // Set EEPROM address register.
     6a6:	52 bd       	out	0x22, r21	; 34
     6a8:	41 bd       	out	0x21, r20	; 33
	EECR = (1<<EERE); // Start EEPROM read operation.
     6aa:	81 e0       	ldi	r24, 0x01	; 1
     6ac:	8f bb       	out	0x1f, r24	; 31
	return EEDR; // Return the byte read from EEPROM.
     6ae:	80 b5       	in	r24, 0x20	; 32
     6b0:	20 e0       	ldi	r18, 0x00	; 0
     6b2:	30 e0       	ldi	r19, 0x00	; 0
     6b4:	98 17       	cp	r25, r24
     6b6:	11 f4       	brne	.+4      	; 0x6bc <memcpy_from_eeprom_with_checksum+0x66>
     6b8:	21 e0       	ldi	r18, 0x01	; 1
     6ba:	30 e0       	ldi	r19, 0x00	; 0
    checksum = (checksum << 1) || (checksum >> 7);
    checksum += data;    
    *(destination++) = data; 
  }
  return(checksum == eeprom_get_char(source));
}
     6bc:	c9 01       	movw	r24, r18
     6be:	df 91       	pop	r29
     6c0:	cf 91       	pop	r28
     6c2:	08 95       	ret

000006c4 <select_plane>:
int next_statement(char *letter, double *double_ptr, char *line, int *char_counter);


void select_plane(uint8_t axis_0, uint8_t axis_1, uint8_t axis_2) 
{
  gc.plane_axis_0 = axis_0;
     6c4:	80 93 25 02 	sts	0x0225, r24
  gc.plane_axis_1 = axis_1;
     6c8:	60 93 26 02 	sts	0x0226, r22
  gc.plane_axis_2 = axis_2;
     6cc:	40 93 27 02 	sts	0x0227, r20
}
     6d0:	08 95       	ret

000006d2 <read_double>:
}

int read_double(char *line,               //!< string: line of RS274/NGC code being processed
                     int *char_counter,   //!< pointer to a counter for position on the line 
                     double *double_ptr)  //!< pointer to double to be read                  
{
     6d2:	af 92       	push	r10
     6d4:	bf 92       	push	r11
     6d6:	cf 92       	push	r12
     6d8:	df 92       	push	r13
     6da:	ef 92       	push	r14
     6dc:	ff 92       	push	r15
     6de:	0f 93       	push	r16
     6e0:	1f 93       	push	r17
     6e2:	df 93       	push	r29
     6e4:	cf 93       	push	r28
     6e6:	0f 92       	push	r0
     6e8:	0f 92       	push	r0
     6ea:	cd b7       	in	r28, 0x3d	; 61
     6ec:	de b7       	in	r29, 0x3e	; 62
     6ee:	6c 01       	movw	r12, r24
     6f0:	5b 01       	movw	r10, r22
     6f2:	7a 01       	movw	r14, r20
  char *start = line + *char_counter;
     6f4:	fb 01       	movw	r30, r22
     6f6:	00 81       	ld	r16, Z
     6f8:	11 81       	ldd	r17, Z+1	; 0x01
     6fa:	08 0f       	add	r16, r24
     6fc:	19 1f       	adc	r17, r25
  char *end;
  
  *double_ptr = strtod(start, &end);
     6fe:	c8 01       	movw	r24, r16
     700:	be 01       	movw	r22, r28
     702:	6f 5f       	subi	r22, 0xFF	; 255
     704:	7f 4f       	sbci	r23, 0xFF	; 255
     706:	0e 94 0c 21 	call	0x4218	; 0x4218 <strtod>
     70a:	f7 01       	movw	r30, r14
     70c:	60 83       	st	Z, r22
     70e:	71 83       	std	Z+1, r23	; 0x01
     710:	82 83       	std	Z+2, r24	; 0x02
     712:	93 83       	std	Z+3, r25	; 0x03
  if(end == start) { 
     714:	89 81       	ldd	r24, Y+1	; 0x01
     716:	9a 81       	ldd	r25, Y+2	; 0x02
     718:	80 17       	cp	r24, r16
     71a:	91 07       	cpc	r25, r17
     71c:	31 f4       	brne	.+12     	; 0x72a <read_double+0x58>
    FAIL(GCSTATUS_BAD_NUMBER_FORMAT); 
     71e:	81 e0       	ldi	r24, 0x01	; 1
     720:	80 93 00 02 	sts	0x0200, r24
     724:	20 e0       	ldi	r18, 0x00	; 0
     726:	30 e0       	ldi	r19, 0x00	; 0
     728:	07 c0       	rjmp	.+14     	; 0x738 <read_double+0x66>
    return(0); 
  };

  *char_counter = end - line;
     72a:	8c 19       	sub	r24, r12
     72c:	9d 09       	sbc	r25, r13
     72e:	f5 01       	movw	r30, r10
     730:	91 83       	std	Z+1, r25	; 0x01
     732:	80 83       	st	Z, r24
     734:	21 e0       	ldi	r18, 0x01	; 1
     736:	30 e0       	ldi	r19, 0x00	; 0
  return(1);
}
     738:	c9 01       	movw	r24, r18
     73a:	0f 90       	pop	r0
     73c:	0f 90       	pop	r0
     73e:	cf 91       	pop	r28
     740:	df 91       	pop	r29
     742:	1f 91       	pop	r17
     744:	0f 91       	pop	r16
     746:	ff 90       	pop	r15
     748:	ef 90       	pop	r14
     74a:	df 90       	pop	r13
     74c:	cf 90       	pop	r12
     74e:	bf 90       	pop	r11
     750:	af 90       	pop	r10
     752:	08 95       	ret

00000754 <next_statement>:
}

// Parses the next statement and leaves the counter on the first character following
// the statement. Returns 1 if there was a statements, 0 if end of string was reached
// or there was an error (check state.status_code).
int next_statement(char *letter, double *double_ptr, char *line, int *char_counter) {
     754:	0f 93       	push	r16
     756:	1f 93       	push	r17
     758:	cf 93       	push	r28
     75a:	df 93       	push	r29
     75c:	ec 01       	movw	r28, r24
     75e:	8b 01       	movw	r16, r22
     760:	d9 01       	movw	r26, r18
  if (line[*char_counter] == 0) {
     762:	ed 91       	ld	r30, X+
     764:	fc 91       	ld	r31, X
     766:	11 97       	sbiw	r26, 0x01	; 1
     768:	e4 0f       	add	r30, r20
     76a:	f5 1f       	adc	r31, r21
     76c:	e0 81       	ld	r30, Z
     76e:	ee 23       	and	r30, r30
     770:	39 f0       	breq	.+14     	; 0x780 <next_statement+0x2c>
    return(0); // No more statements
  }
  
  *letter = line[*char_counter];
     772:	e8 83       	st	Y, r30
  if((*letter < 'A') || (*letter > 'Z')) {
     774:	e1 54       	subi	r30, 0x41	; 65
     776:	ea 31       	cpi	r30, 0x1A	; 26
     778:	30 f0       	brcs	.+12     	; 0x786 <next_statement+0x32>
    FAIL(GCSTATUS_EXPECTED_COMMAND_LETTER);
     77a:	82 e0       	ldi	r24, 0x02	; 2
     77c:	80 93 00 02 	sts	0x0200, r24
     780:	20 e0       	ldi	r18, 0x00	; 0
     782:	30 e0       	ldi	r19, 0x00	; 0
     784:	10 c0       	rjmp	.+32     	; 0x7a6 <next_statement+0x52>
    return(0);
  }
  (*char_counter)++;
     786:	8d 91       	ld	r24, X+
     788:	9c 91       	ld	r25, X
     78a:	11 97       	sbiw	r26, 0x01	; 1
     78c:	01 96       	adiw	r24, 0x01	; 1
     78e:	8d 93       	st	X+, r24
     790:	9c 93       	st	X, r25
  if (!read_double(line, char_counter, double_ptr)) {
     792:	ca 01       	movw	r24, r20
     794:	b9 01       	movw	r22, r18
     796:	a8 01       	movw	r20, r16
     798:	0e 94 69 03 	call	0x6d2	; 0x6d2 <read_double>
     79c:	00 97       	sbiw	r24, 0x00	; 0
     79e:	11 f0       	breq	.+4      	; 0x7a4 <next_statement+0x50>
     7a0:	81 e0       	ldi	r24, 0x01	; 1
     7a2:	90 e0       	ldi	r25, 0x00	; 0
     7a4:	9c 01       	movw	r18, r24
    return(0);
  };
  return(1);
}
     7a6:	c9 01       	movw	r24, r18
     7a8:	df 91       	pop	r29
     7aa:	cf 91       	pop	r28
     7ac:	1f 91       	pop	r17
     7ae:	0f 91       	pop	r16
     7b0:	08 95       	ret

000007b2 <gc_init>:
  gc.plane_axis_1 = axis_1;
  gc.plane_axis_2 = axis_2;
}

void gc_init() {
  memset(&gc, 0, sizeof(gc));
     7b2:	88 e2       	ldi	r24, 0x28	; 40
     7b4:	e0 e0       	ldi	r30, 0x00	; 0
     7b6:	f2 e0       	ldi	r31, 0x02	; 2
     7b8:	df 01       	movw	r26, r30
     7ba:	1d 92       	st	X+, r1
     7bc:	8a 95       	dec	r24
     7be:	e9 f7       	brne	.-6      	; 0x7ba <gc_init+0x8>
  gc.feed_rate = settings.default_feed_rate/60;
     7c0:	60 91 86 06 	lds	r22, 0x0686
     7c4:	70 91 87 06 	lds	r23, 0x0687
     7c8:	80 91 88 06 	lds	r24, 0x0688
     7cc:	90 91 89 06 	lds	r25, 0x0689
     7d0:	20 e0       	ldi	r18, 0x00	; 0
     7d2:	30 e0       	ldi	r19, 0x00	; 0
     7d4:	40 e7       	ldi	r20, 0x70	; 112
     7d6:	52 e4       	ldi	r21, 0x42	; 66
     7d8:	0e 94 82 1d 	call	0x3b04	; 0x3b04 <__divsf3>
     7dc:	60 93 0a 02 	sts	0x020A, r22
     7e0:	70 93 0b 02 	sts	0x020B, r23
     7e4:	80 93 0c 02 	sts	0x020C, r24
     7e8:	90 93 0d 02 	sts	0x020D, r25
  gc.seek_rate = settings.default_seek_rate/60;
     7ec:	60 91 8a 06 	lds	r22, 0x068A
     7f0:	70 91 8b 06 	lds	r23, 0x068B
     7f4:	80 91 8c 06 	lds	r24, 0x068C
     7f8:	90 91 8d 06 	lds	r25, 0x068D
     7fc:	20 e0       	ldi	r18, 0x00	; 0
     7fe:	30 e0       	ldi	r19, 0x00	; 0
     800:	40 e7       	ldi	r20, 0x70	; 112
     802:	52 e4       	ldi	r21, 0x42	; 66
     804:	0e 94 82 1d 	call	0x3b04	; 0x3b04 <__divsf3>
     808:	60 93 0e 02 	sts	0x020E, r22
     80c:	70 93 0f 02 	sts	0x020F, r23
     810:	80 93 10 02 	sts	0x0210, r24
     814:	90 93 11 02 	sts	0x0211, r25
int next_statement(char *letter, double *double_ptr, char *line, int *char_counter);


void select_plane(uint8_t axis_0, uint8_t axis_1, uint8_t axis_2) 
{
  gc.plane_axis_0 = axis_0;
     818:	10 92 25 02 	sts	0x0225, r1
  gc.plane_axis_1 = axis_1;
     81c:	91 e0       	ldi	r25, 0x01	; 1
     81e:	90 93 26 02 	sts	0x0226, r25
  gc.plane_axis_2 = axis_2;
     822:	82 e0       	ldi	r24, 0x02	; 2
     824:	80 93 27 02 	sts	0x0227, r24
void gc_init() {
  memset(&gc, 0, sizeof(gc));
  gc.feed_rate = settings.default_feed_rate/60;
  gc.seek_rate = settings.default_seek_rate/60;
  select_plane(X_AXIS, Y_AXIS, Z_AXIS);
  gc.absolute_mode = TRUE;
     828:	90 93 04 02 	sts	0x0204, r25
}
     82c:	08 95       	ret

0000082e <gc_execute_line>:
  }
}

// Executes one line of 0-terminated G-Code. The line is assumed to contain only uppercase
// characters and signed floating point values (no whitespace).
uint8_t gc_execute_line(char *line) {
     82e:	2f 92       	push	r2
     830:	3f 92       	push	r3
     832:	4f 92       	push	r4
     834:	5f 92       	push	r5
     836:	6f 92       	push	r6
     838:	7f 92       	push	r7
     83a:	8f 92       	push	r8
     83c:	9f 92       	push	r9
     83e:	af 92       	push	r10
     840:	bf 92       	push	r11
     842:	cf 92       	push	r12
     844:	df 92       	push	r13
     846:	ef 92       	push	r14
     848:	ff 92       	push	r15
     84a:	0f 93       	push	r16
     84c:	1f 93       	push	r17
     84e:	df 93       	push	r29
     850:	cf 93       	push	r28
     852:	cd b7       	in	r28, 0x3d	; 61
     854:	de b7       	in	r29, 0x3e	; 62
     856:	e2 97       	sbiw	r28, 0x32	; 50
     858:	0f b6       	in	r0, 0x3f	; 63
     85a:	f8 94       	cli
     85c:	de bf       	out	0x3e, r29	; 62
     85e:	0f be       	out	0x3f, r0	; 63
     860:	cd bf       	out	0x3d, r28	; 61
     862:	5c 01       	movw	r10, r24
  int char_counter = 0;  
     864:	1b 82       	std	Y+3, r1	; 0x03
     866:	1a 82       	std	Y+2, r1	; 0x02
  uint8_t absolute_override = FALSE;          /* 1 = absolute motion for this block only {G53} */
  uint8_t next_action = NEXT_ACTION_DEFAULT;  /* The action that will be taken by the parsed line */
  
  double target[4], offset[4];  
  
  double p = 0, r = 0;
     868:	80 e0       	ldi	r24, 0x00	; 0
     86a:	90 e0       	ldi	r25, 0x00	; 0
     86c:	a0 e0       	ldi	r26, 0x00	; 0
     86e:	b0 e0       	ldi	r27, 0x00	; 0
     870:	88 87       	std	Y+8, r24	; 0x08
     872:	99 87       	std	Y+9, r25	; 0x09
     874:	aa 87       	std	Y+10, r26	; 0x0a
     876:	bb 87       	std	Y+11, r27	; 0x0b
  int int_value;
  
  clear_vector(target);
     878:	80 e1       	ldi	r24, 0x10	; 16
     87a:	fe 01       	movw	r30, r28
     87c:	3c 96       	adiw	r30, 0x0c	; 12
     87e:	df 01       	movw	r26, r30
     880:	98 2f       	mov	r25, r24
     882:	1d 92       	st	X+, r1
     884:	9a 95       	dec	r25
     886:	e9 f7       	brne	.-6      	; 0x882 <gc_execute_line+0x54>
  clear_vector(offset);
     888:	fe 01       	movw	r30, r28
     88a:	7c 96       	adiw	r30, 0x1c	; 28
     88c:	df 01       	movw	r26, r30
     88e:	1d 92       	st	X+, r1
     890:	8a 95       	dec	r24
     892:	e9 f7       	brne	.-6      	; 0x88e <gc_execute_line+0x60>

  gc.status_code = GCSTATUS_OK;
     894:	10 92 00 02 	sts	0x0200, r1
  
  // Disregard comments and block delete
  if (line[0] == '(') { return(gc.status_code); }
     898:	f5 01       	movw	r30, r10
     89a:	80 81       	ld	r24, Z
     89c:	88 32       	cpi	r24, 0x28	; 40
     89e:	51 f1       	breq	.+84     	; 0x8f4 <gc_execute_line+0xc6>
  if (line[0] == '/') { char_counter++; } // ignore block delete  
     8a0:	8f 32       	cpi	r24, 0x2F	; 47
     8a2:	29 f4       	brne	.+10     	; 0x8ae <gc_execute_line+0x80>
     8a4:	8a 81       	ldd	r24, Y+2	; 0x02
     8a6:	9b 81       	ldd	r25, Y+3	; 0x03
     8a8:	01 96       	adiw	r24, 0x01	; 1
     8aa:	9b 83       	std	Y+3, r25	; 0x03
     8ac:	8a 83       	std	Y+2, r24	; 0x02
  
  // If the line starts with an '$' it is a configuration-command
  if (line[0] == '$') { 
     8ae:	d5 01       	movw	r26, r10
     8b0:	8c 91       	ld	r24, X
     8b2:	84 32       	cpi	r24, 0x24	; 36
     8b4:	a9 f0       	breq	.+42     	; 0x8e0 <gc_execute_line+0xb2>
     8b6:	77 24       	eor	r7, r7
     8b8:	1c a6       	std	Y+44, r1	; 0x2c
  }
  
  /* We'll handle this as g-code. First: parse all statements */

  // Pass 1: Commands
  while(next_statement(&letter, &value, line, &char_counter)) {
     8ba:	04 e0       	ldi	r16, 0x04	; 4
     8bc:	40 2e       	mov	r4, r16
     8be:	51 2c       	mov	r5, r1
     8c0:	4c 0e       	add	r4, r28
     8c2:	5d 1e       	adc	r5, r29
     8c4:	12 e0       	ldi	r17, 0x02	; 2
     8c6:	21 2e       	mov	r2, r17
     8c8:	31 2c       	mov	r3, r1
     8ca:	2c 0e       	add	r2, r28
     8cc:	3d 1e       	adc	r3, r29
        case 90: gc.absolute_mode = TRUE; break;
        case 91: gc.absolute_mode = FALSE; break;
        case 92: next_action = NEXT_ACTION_SET_OFFSETS; break;
        case 93: gc.inverse_feed_rate_mode = TRUE; break;
        case 94: gc.inverse_feed_rate_mode = FALSE; break;
        default: FAIL(GCSTATUS_UNSUPPORTED_STATEMENT);
     8ce:	b3 e0       	ldi	r27, 0x03	; 3
     8d0:	9b 2e       	mov	r9, r27
        case 20: gc.inches_mode = TRUE; break;
        case 21: gc.inches_mode = FALSE; break;
        case 28: case 30: next_action = NEXT_ACTION_GO_HOME; break;
        case 53: absolute_override = TRUE; break;
        case 80: gc.motion_mode = MOTION_MODE_CANCEL; break;
        case 90: gc.absolute_mode = TRUE; break;
     8d2:	dd 24       	eor	r13, r13
     8d4:	d3 94       	inc	r13
			}

	       break;

      case 'G':
      switch(int_value) {
     8d6:	a2 e0       	ldi	r26, 0x02	; 2
     8d8:	ca 2e       	mov	r12, r26
        case 19: select_plane(Y_AXIS, Z_AXIS, X_AXIS); break;
        case 20: gc.inches_mode = TRUE; break;
        case 21: gc.inches_mode = FALSE; break;
        case 28: case 30: next_action = NEXT_ACTION_GO_HOME; break;
        case 53: absolute_override = TRUE; break;
        case 80: gc.motion_mode = MOTION_MODE_CANCEL; break;
     8da:	f4 e0       	ldi	r31, 0x04	; 4
     8dc:	8f 2e       	mov	r8, r31
     8de:	ec c1       	rjmp	.+984    	; 0xcb8 <gc_execute_line+0x48a>
  if (line[0] == '/') { char_counter++; } // ignore block delete  
  
  // If the line starts with an '$' it is a configuration-command
  if (line[0] == '$') { 
    // Parameter lines are on the form '$4=374.3' or '$' to dump current settings
    char_counter = 1;
     8e0:	81 e0       	ldi	r24, 0x01	; 1
     8e2:	90 e0       	ldi	r25, 0x00	; 0
     8e4:	9b 83       	std	Y+3, r25	; 0x03
     8e6:	8a 83       	std	Y+2, r24	; 0x02
    if(line[char_counter] == 0) { settings_dump(); return(GCSTATUS_OK); }
     8e8:	f5 01       	movw	r30, r10
     8ea:	81 81       	ldd	r24, Z+1	; 0x01
     8ec:	88 23       	and	r24, r24
     8ee:	21 f4       	brne	.+8      	; 0x8f8 <gc_execute_line+0xca>
     8f0:	0e 94 4a 13 	call	0x2694	; 0x2694 <settings_dump>
     8f4:	80 e0       	ldi	r24, 0x00	; 0
     8f6:	c4 c3       	rjmp	.+1928   	; 0x1080 <gc_execute_line+0x852>
    read_double(line, &char_counter, &p);
     8f8:	8e 01       	movw	r16, r28
     8fa:	0e 5f       	subi	r16, 0xFE	; 254
     8fc:	1f 4f       	sbci	r17, 0xFF	; 255
     8fe:	c5 01       	movw	r24, r10
     900:	b8 01       	movw	r22, r16
     902:	ae 01       	movw	r20, r28
     904:	48 5f       	subi	r20, 0xF8	; 248
     906:	5f 4f       	sbci	r21, 0xFF	; 255
     908:	0e 94 69 03 	call	0x6d2	; 0x6d2 <read_double>
    if(line[char_counter++] != '=') { return(GCSTATUS_UNSUPPORTED_STATEMENT); }
     90c:	8a 81       	ldd	r24, Y+2	; 0x02
     90e:	9b 81       	ldd	r25, Y+3	; 0x03
     910:	f5 01       	movw	r30, r10
     912:	e8 0f       	add	r30, r24
     914:	f9 1f       	adc	r31, r25
     916:	20 81       	ld	r18, Z
     918:	01 96       	adiw	r24, 0x01	; 1
     91a:	9b 83       	std	Y+3, r25	; 0x03
     91c:	8a 83       	std	Y+2, r24	; 0x02
     91e:	2d 33       	cpi	r18, 0x3D	; 61
     920:	09 f0       	breq	.+2      	; 0x924 <gc_execute_line+0xf6>
     922:	ad c3       	rjmp	.+1882   	; 0x107e <gc_execute_line+0x850>
    read_double(line, &char_counter, &value);
     924:	c5 01       	movw	r24, r10
     926:	b8 01       	movw	r22, r16
     928:	ae 01       	movw	r20, r28
     92a:	4c 5f       	subi	r20, 0xFC	; 252
     92c:	5f 4f       	sbci	r21, 0xFF	; 255
     92e:	0e 94 69 03 	call	0x6d2	; 0x6d2 <read_double>
    if(line[char_counter] != 0) { return(GCSTATUS_UNSUPPORTED_STATEMENT); }
     932:	ea 81       	ldd	r30, Y+2	; 0x02
     934:	fb 81       	ldd	r31, Y+3	; 0x03
     936:	ea 0d       	add	r30, r10
     938:	fb 1d       	adc	r31, r11
     93a:	80 81       	ld	r24, Z
     93c:	88 23       	and	r24, r24
     93e:	09 f0       	breq	.+2      	; 0x942 <gc_execute_line+0x114>
     940:	9e c3       	rjmp	.+1852   	; 0x107e <gc_execute_line+0x850>
    settings_store_setting(p, value);
     942:	68 85       	ldd	r22, Y+8	; 0x08
     944:	79 85       	ldd	r23, Y+9	; 0x09
     946:	8a 85       	ldd	r24, Y+10	; 0x0a
     948:	9b 85       	ldd	r25, Y+11	; 0x0b
     94a:	0e 94 ea 1d 	call	0x3bd4	; 0x3bd4 <__fixsfsi>
     94e:	dc 01       	movw	r26, r24
     950:	cb 01       	movw	r24, r22
     952:	4c 81       	ldd	r20, Y+4	; 0x04
     954:	5d 81       	ldd	r21, Y+5	; 0x05
     956:	6e 81       	ldd	r22, Y+6	; 0x06
     958:	7f 81       	ldd	r23, Y+7	; 0x07
     95a:	0e 94 ce 12 	call	0x259c	; 0x259c <settings_store_setting>
     95e:	8c c3       	rjmp	.+1816   	; 0x1078 <gc_execute_line+0x84a>
  
  /* We'll handle this as g-code. First: parse all statements */

  // Pass 1: Commands
  while(next_statement(&letter, &value, line, &char_counter)) {
    int_value = trunc(value);
     960:	6c 81       	ldd	r22, Y+4	; 0x04
     962:	7d 81       	ldd	r23, Y+5	; 0x05
     964:	8e 81       	ldd	r24, Y+6	; 0x06
     966:	9f 81       	ldd	r25, Y+7	; 0x07
     968:	0e 94 7b 20 	call	0x40f6	; 0x40f6 <trunc>
     96c:	7b 01       	movw	r14, r22
     96e:	8c 01       	movw	r16, r24
     970:	0e 94 ea 1d 	call	0x3bd4	; 0x3bd4 <__fixsfsi>
     974:	fb 01       	movw	r30, r22

    switch(letter) {
     976:	29 81       	ldd	r18, Y+1	; 0x01
     978:	27 34       	cpi	r18, 0x47	; 71
     97a:	09 f4       	brne	.+2      	; 0x97e <gc_execute_line+0x150>
     97c:	91 c0       	rjmp	.+290    	; 0xaa0 <gc_execute_line+0x272>
     97e:	28 34       	cpi	r18, 0x48	; 72
     980:	20 f4       	brcc	.+8      	; 0x98a <gc_execute_line+0x15c>
     982:	24 34       	cpi	r18, 0x44	; 68
     984:	09 f0       	breq	.+2      	; 0x988 <gc_execute_line+0x15a>
     986:	94 c1       	rjmp	.+808    	; 0xcb0 <gc_execute_line+0x482>
     988:	07 c0       	rjmp	.+14     	; 0x998 <gc_execute_line+0x16a>
     98a:	2d 34       	cpi	r18, 0x4D	; 77
     98c:	09 f4       	brne	.+2      	; 0x990 <gc_execute_line+0x162>
     98e:	2d c1       	rjmp	.+602    	; 0xbea <gc_execute_line+0x3bc>
     990:	24 35       	cpi	r18, 0x54	; 84
     992:	09 f0       	breq	.+2      	; 0x996 <gc_execute_line+0x168>
     994:	8d c1       	rjmp	.+794    	; 0xcb0 <gc_execute_line+0x482>
     996:	86 c1       	rjmp	.+780    	; 0xca4 <gc_execute_line+0x476>
	  case 'D':
		{	
#if 1
			unsigned char ch;
			ch = DDRD;
     998:	8a b1       	in	r24, 0x0a	; 10
	      	printPgmString(PSTR("DIRECTION_DDR  = "));
     99a:	8b e0       	ldi	r24, 0x0B	; 11
     99c:	92 e0       	ldi	r25, 0x02	; 2
     99e:	0e 94 01 1a 	call	0x3402	; 0x3402 <printPgmString>
		  	printBinary( DIRECTION_DDR );
     9a2:	60 b3       	in	r22, 0x10	; 16
     9a4:	70 e0       	ldi	r23, 0x00	; 0
     9a6:	80 e0       	ldi	r24, 0x00	; 0
     9a8:	90 e0       	ldi	r25, 0x00	; 0
     9aa:	0e 94 b8 1a 	call	0x3570	; 0x3570 <printBinary>
	      	printPgmString(PSTR("\r\n"));
     9ae:	88 e0       	ldi	r24, 0x08	; 8
     9b0:	92 e0       	ldi	r25, 0x02	; 2
     9b2:	0e 94 01 1a 	call	0x3402	; 0x3402 <printPgmString>

	      	printPgmString(PSTR("DIRECTION_PORT  = "));
     9b6:	85 ef       	ldi	r24, 0xF5	; 245
     9b8:	91 e0       	ldi	r25, 0x01	; 1
     9ba:	0e 94 01 1a 	call	0x3402	; 0x3402 <printPgmString>
		  	printBinary( DIRECTION_PORT );
     9be:	61 b3       	in	r22, 0x11	; 17
     9c0:	70 e0       	ldi	r23, 0x00	; 0
     9c2:	80 e0       	ldi	r24, 0x00	; 0
     9c4:	90 e0       	ldi	r25, 0x00	; 0
     9c6:	0e 94 b8 1a 	call	0x3570	; 0x3570 <printBinary>
	      	printPgmString(PSTR("\r\n"));
     9ca:	82 ef       	ldi	r24, 0xF2	; 242
     9cc:	91 e0       	ldi	r25, 0x01	; 1
     9ce:	0e 94 01 1a 	call	0x3402	; 0x3402 <printPgmString>

			ch = PORTD;
     9d2:	eb b0       	in	r14, 0x0b	; 11
	      	printPgmString(PSTR("PORTD  = "));
     9d4:	88 ee       	ldi	r24, 0xE8	; 232
     9d6:	91 e0       	ldi	r25, 0x01	; 1
     9d8:	0e 94 01 1a 	call	0x3402	; 0x3402 <printPgmString>
		  	printBinary( ch );
     9dc:	ff 24       	eor	r15, r15
     9de:	00 e0       	ldi	r16, 0x00	; 0
     9e0:	10 e0       	ldi	r17, 0x00	; 0
     9e2:	c8 01       	movw	r24, r16
     9e4:	b7 01       	movw	r22, r14
     9e6:	0e 94 b8 1a 	call	0x3570	; 0x3570 <printBinary>
	      	printPgmString(PSTR("\r\n"));
     9ea:	85 ee       	ldi	r24, 0xE5	; 229
     9ec:	91 e0       	ldi	r25, 0x01	; 1
     9ee:	0e 94 01 1a 	call	0x3402	; 0x3402 <printPgmString>

			ch = PIND;
     9f2:	e9 b0       	in	r14, 0x09	; 9
	      	printPgmString(PSTR("PIND limits = "));
     9f4:	86 ed       	ldi	r24, 0xD6	; 214
     9f6:	91 e0       	ldi	r25, 0x01	; 1
     9f8:	0e 94 01 1a 	call	0x3402	; 0x3402 <printPgmString>
		  	printBinary( ch );
     9fc:	ff 24       	eor	r15, r15
     9fe:	00 e0       	ldi	r16, 0x00	; 0
     a00:	10 e0       	ldi	r17, 0x00	; 0
     a02:	c8 01       	movw	r24, r16
     a04:	b7 01       	movw	r22, r14
     a06:	0e 94 b8 1a 	call	0x3570	; 0x3570 <printBinary>
	      	printPgmString(PSTR("\r\n"));
     a0a:	83 ed       	ldi	r24, 0xD3	; 211
     a0c:	91 e0       	ldi	r25, 0x01	; 1
     a0e:	0e 94 01 1a 	call	0x3402	; 0x3402 <printPgmString>
#endif

	      	printPgmString(PSTR("head down = "));
     a12:	86 ec       	ldi	r24, 0xC6	; 198
     a14:	91 e0       	ldi	r25, 0x01	; 1
     a16:	0e 94 01 1a 	call	0x3402	; 0x3402 <printPgmString>
			printInteger( is_head_down() );
     a1a:	0e 94 ed 1b 	call	0x37da	; 0x37da <is_head_down>
     a1e:	90 e0       	ldi	r25, 0x00	; 0
     a20:	a0 e0       	ldi	r26, 0x00	; 0
     a22:	b0 e0       	ldi	r27, 0x00	; 0
     a24:	bc 01       	movw	r22, r24
     a26:	cd 01       	movw	r24, r26
     a28:	0e 94 9d 1a 	call	0x353a	; 0x353a <printInteger>
	      	printPgmString(PSTR("\r\n"));
     a2c:	83 ec       	ldi	r24, 0xC3	; 195
     a2e:	91 e0       	ldi	r25, 0x01	; 1
     a30:	0e 94 01 1a 	call	0x3402	; 0x3402 <printPgmString>

	      	printPgmString(PSTR("rotated = "));
     a34:	88 eb       	ldi	r24, 0xB8	; 184
     a36:	91 e0       	ldi	r25, 0x01	; 1
     a38:	0e 94 01 1a 	call	0x3402	; 0x3402 <printPgmString>
			printInteger( is_rotated() );
     a3c:	0e 94 f0 1b 	call	0x37e0	; 0x37e0 <is_rotated>
     a40:	90 e0       	ldi	r25, 0x00	; 0
     a42:	a0 e0       	ldi	r26, 0x00	; 0
     a44:	b0 e0       	ldi	r27, 0x00	; 0
     a46:	bc 01       	movw	r22, r24
     a48:	cd 01       	movw	r24, r26
     a4a:	0e 94 9d 1a 	call	0x353a	; 0x353a <printInteger>
	      	printPgmString(PSTR("\r\n"));
     a4e:	85 eb       	ldi	r24, 0xB5	; 181
     a50:	91 e0       	ldi	r25, 0x01	; 1
     a52:	0e 94 01 1a 	call	0x3402	; 0x3402 <printPgmString>


			if( bit_is_set( LIMIT_PIN, X1_LIMIT_BIT ) )
     a56:	4b 9b       	sbis	0x09, 3	; 9
     a58:	04 c0       	rjmp	.+8      	; 0xa62 <gc_execute_line+0x234>
		      	printPgmString(PSTR("XL1\r\n"));
     a5a:	8f ea       	ldi	r24, 0xAF	; 175
     a5c:	91 e0       	ldi	r25, 0x01	; 1
     a5e:	0e 94 01 1a 	call	0x3402	; 0x3402 <printPgmString>
			if( bit_is_set( LIMIT_PIN, X2_LIMIT_BIT ) )
     a62:	4a 9b       	sbis	0x09, 2	; 9
     a64:	04 c0       	rjmp	.+8      	; 0xa6e <gc_execute_line+0x240>
		      	printPgmString(PSTR("XL2\r\n"));
     a66:	89 ea       	ldi	r24, 0xA9	; 169
     a68:	91 e0       	ldi	r25, 0x01	; 1
     a6a:	0e 94 01 1a 	call	0x3402	; 0x3402 <printPgmString>

			if( bit_is_set( LIMIT_PIN, Y1_LIMIT_BIT ))
     a6e:	48 9b       	sbis	0x09, 0	; 9
     a70:	04 c0       	rjmp	.+8      	; 0xa7a <gc_execute_line+0x24c>
		      	printPgmString(PSTR("YL1\r\n"));
     a72:	83 ea       	ldi	r24, 0xA3	; 163
     a74:	91 e0       	ldi	r25, 0x01	; 1
     a76:	0e 94 01 1a 	call	0x3402	; 0x3402 <printPgmString>
			if( bit_is_set( LIMIT_PIN, Y2_LIMIT_BIT ) )
     a7a:	49 9b       	sbis	0x09, 1	; 9
     a7c:	04 c0       	rjmp	.+8      	; 0xa86 <gc_execute_line+0x258>
		      	printPgmString(PSTR("YL2\r\n"));
     a7e:	8d e9       	ldi	r24, 0x9D	; 157
     a80:	91 e0       	ldi	r25, 0x01	; 1
     a82:	0e 94 01 1a 	call	0x3402	; 0x3402 <printPgmString>

			if( bit_is_set( XHM_PIN, X_HOME ) )
     a86:	04 9b       	sbis	0x00, 4	; 0
     a88:	04 c0       	rjmp	.+8      	; 0xa92 <gc_execute_line+0x264>
		      	printPgmString(PSTR("X_HOME\r\n"));
     a8a:	84 e9       	ldi	r24, 0x94	; 148
     a8c:	91 e0       	ldi	r25, 0x01	; 1
     a8e:	0e 94 01 1a 	call	0x3402	; 0x3402 <printPgmString>

			if( bit_is_set( YHM_PIN, Y_HOME ) )
     a92:	90 9b       	sbis	0x12, 0	; 18
     a94:	0d c1       	rjmp	.+538    	; 0xcb0 <gc_execute_line+0x482>
		      	printPgmString(PSTR("Y_HOME\r\n"));
     a96:	8b e8       	ldi	r24, 0x8B	; 139
     a98:	91 e0       	ldi	r25, 0x01	; 1
     a9a:	0e 94 01 1a 	call	0x3402	; 0x3402 <printPgmString>
     a9e:	08 c1       	rjmp	.+528    	; 0xcb0 <gc_execute_line+0x482>
			}

	       break;

      case 'G':
      switch(int_value) {
     aa0:	65 31       	cpi	r22, 0x15	; 21
     aa2:	71 05       	cpc	r23, r1
     aa4:	09 f4       	brne	.+2      	; 0xaa8 <gc_execute_line+0x27a>
     aa6:	89 c0       	rjmp	.+274    	; 0xbba <gc_execute_line+0x38c>
     aa8:	66 31       	cpi	r22, 0x16	; 22
     aaa:	71 05       	cpc	r23, r1
     aac:	84 f5       	brge	.+96     	; 0xb0e <gc_execute_line+0x2e0>
     aae:	64 30       	cpi	r22, 0x04	; 4
     ab0:	71 05       	cpc	r23, r1
     ab2:	09 f4       	brne	.+2      	; 0xab6 <gc_execute_line+0x288>
     ab4:	5b c0       	rjmp	.+182    	; 0xb6c <gc_execute_line+0x33e>
     ab6:	65 30       	cpi	r22, 0x05	; 5
     ab8:	71 05       	cpc	r23, r1
     aba:	a4 f4       	brge	.+40     	; 0xae4 <gc_execute_line+0x2b6>
     abc:	61 30       	cpi	r22, 0x01	; 1
     abe:	71 05       	cpc	r23, r1
     ac0:	09 f4       	brne	.+2      	; 0xac4 <gc_execute_line+0x296>
     ac2:	5a c0       	rjmp	.+180    	; 0xb78 <gc_execute_line+0x34a>
     ac4:	62 30       	cpi	r22, 0x02	; 2
     ac6:	71 05       	cpc	r23, r1
     ac8:	24 f4       	brge	.+8      	; 0xad2 <gc_execute_line+0x2a4>
     aca:	67 2b       	or	r22, r23
     acc:	09 f4       	brne	.+2      	; 0xad0 <gc_execute_line+0x2a2>
     ace:	51 c0       	rjmp	.+162    	; 0xb72 <gc_execute_line+0x344>
     ad0:	e6 c0       	rjmp	.+460    	; 0xc9e <gc_execute_line+0x470>
     ad2:	62 30       	cpi	r22, 0x02	; 2
     ad4:	71 05       	cpc	r23, r1
     ad6:	09 f4       	brne	.+2      	; 0xada <gc_execute_line+0x2ac>
     ad8:	52 c0       	rjmp	.+164    	; 0xb7e <gc_execute_line+0x350>
     ada:	63 30       	cpi	r22, 0x03	; 3
     adc:	71 05       	cpc	r23, r1
     ade:	09 f0       	breq	.+2      	; 0xae2 <gc_execute_line+0x2b4>
     ae0:	de c0       	rjmp	.+444    	; 0xc9e <gc_execute_line+0x470>
     ae2:	50 c0       	rjmp	.+160    	; 0xb84 <gc_execute_line+0x356>
     ae4:	62 31       	cpi	r22, 0x12	; 18
     ae6:	71 05       	cpc	r23, r1
     ae8:	09 f4       	brne	.+2      	; 0xaec <gc_execute_line+0x2be>
     aea:	56 c0       	rjmp	.+172    	; 0xb98 <gc_execute_line+0x36a>
     aec:	63 31       	cpi	r22, 0x13	; 19
     aee:	71 05       	cpc	r23, r1
     af0:	2c f4       	brge	.+10     	; 0xafc <gc_execute_line+0x2ce>
     af2:	61 31       	cpi	r22, 0x11	; 17
     af4:	71 05       	cpc	r23, r1
     af6:	09 f0       	breq	.+2      	; 0xafa <gc_execute_line+0x2cc>
     af8:	d2 c0       	rjmp	.+420    	; 0xc9e <gc_execute_line+0x470>
     afa:	47 c0       	rjmp	.+142    	; 0xb8a <gc_execute_line+0x35c>
     afc:	63 31       	cpi	r22, 0x13	; 19
     afe:	71 05       	cpc	r23, r1
     b00:	09 f4       	brne	.+2      	; 0xb04 <gc_execute_line+0x2d6>
     b02:	51 c0       	rjmp	.+162    	; 0xba6 <gc_execute_line+0x378>
     b04:	64 31       	cpi	r22, 0x14	; 20
     b06:	71 05       	cpc	r23, r1
     b08:	09 f0       	breq	.+2      	; 0xb0c <gc_execute_line+0x2de>
     b0a:	c9 c0       	rjmp	.+402    	; 0xc9e <gc_execute_line+0x470>
     b0c:	53 c0       	rjmp	.+166    	; 0xbb4 <gc_execute_line+0x386>
     b0e:	6a 35       	cpi	r22, 0x5A	; 90
     b10:	71 05       	cpc	r23, r1
     b12:	09 f4       	brne	.+2      	; 0xb16 <gc_execute_line+0x2e8>
     b14:	5b c0       	rjmp	.+182    	; 0xbcc <gc_execute_line+0x39e>
     b16:	6b 35       	cpi	r22, 0x5B	; 91
     b18:	71 05       	cpc	r23, r1
     b1a:	a4 f4       	brge	.+40     	; 0xb44 <gc_execute_line+0x316>
     b1c:	6e 31       	cpi	r22, 0x1E	; 30
     b1e:	71 05       	cpc	r23, r1
     b20:	11 f1       	breq	.+68     	; 0xb66 <gc_execute_line+0x338>
     b22:	6f 31       	cpi	r22, 0x1F	; 31
     b24:	71 05       	cpc	r23, r1
     b26:	2c f4       	brge	.+10     	; 0xb32 <gc_execute_line+0x304>
     b28:	6c 31       	cpi	r22, 0x1C	; 28
     b2a:	71 05       	cpc	r23, r1
     b2c:	09 f0       	breq	.+2      	; 0xb30 <gc_execute_line+0x302>
     b2e:	b7 c0       	rjmp	.+366    	; 0xc9e <gc_execute_line+0x470>
     b30:	1a c0       	rjmp	.+52     	; 0xb66 <gc_execute_line+0x338>
     b32:	65 33       	cpi	r22, 0x35	; 53
     b34:	71 05       	cpc	r23, r1
     b36:	09 f4       	brne	.+2      	; 0xb3a <gc_execute_line+0x30c>
     b38:	43 c0       	rjmp	.+134    	; 0xbc0 <gc_execute_line+0x392>
     b3a:	60 35       	cpi	r22, 0x50	; 80
     b3c:	71 05       	cpc	r23, r1
     b3e:	09 f0       	breq	.+2      	; 0xb42 <gc_execute_line+0x314>
     b40:	ae c0       	rjmp	.+348    	; 0xc9e <gc_execute_line+0x470>
     b42:	41 c0       	rjmp	.+130    	; 0xbc6 <gc_execute_line+0x398>
     b44:	6c 35       	cpi	r22, 0x5C	; 92
     b46:	71 05       	cpc	r23, r1
     b48:	09 f4       	brne	.+2      	; 0xb4c <gc_execute_line+0x31e>
     b4a:	46 c0       	rjmp	.+140    	; 0xbd8 <gc_execute_line+0x3aa>
     b4c:	6c 35       	cpi	r22, 0x5C	; 92
     b4e:	71 05       	cpc	r23, r1
     b50:	0c f4       	brge	.+2      	; 0xb54 <gc_execute_line+0x326>
     b52:	3f c0       	rjmp	.+126    	; 0xbd2 <gc_execute_line+0x3a4>
     b54:	6d 35       	cpi	r22, 0x5D	; 93
     b56:	71 05       	cpc	r23, r1
     b58:	09 f4       	brne	.+2      	; 0xb5c <gc_execute_line+0x32e>
     b5a:	41 c0       	rjmp	.+130    	; 0xbde <gc_execute_line+0x3b0>
     b5c:	6e 35       	cpi	r22, 0x5E	; 94
     b5e:	71 05       	cpc	r23, r1
     b60:	09 f0       	breq	.+2      	; 0xb64 <gc_execute_line+0x336>
     b62:	9d c0       	rjmp	.+314    	; 0xc9e <gc_execute_line+0x470>
     b64:	3f c0       	rjmp	.+126    	; 0xbe4 <gc_execute_line+0x3b6>
     b66:	f2 e0       	ldi	r31, 0x02	; 2
     b68:	fc a7       	std	Y+44, r31	; 0x2c
     b6a:	a2 c0       	rjmp	.+324    	; 0xcb0 <gc_execute_line+0x482>
     b6c:	81 e0       	ldi	r24, 0x01	; 1
     b6e:	8c a7       	std	Y+44, r24	; 0x2c
     b70:	9f c0       	rjmp	.+318    	; 0xcb0 <gc_execute_line+0x482>
        case 0: gc.motion_mode = MOTION_MODE_SEEK; break;
     b72:	10 92 01 02 	sts	0x0201, r1
     b76:	9c c0       	rjmp	.+312    	; 0xcb0 <gc_execute_line+0x482>
        case 1: gc.motion_mode = MOTION_MODE_LINEAR; break;
     b78:	d0 92 01 02 	sts	0x0201, r13
     b7c:	99 c0       	rjmp	.+306    	; 0xcb0 <gc_execute_line+0x482>
#if defined  (__AVR_ATmega328P__ ) || defined( __AVR_ATmega2560__ )       
        case 2: gc.motion_mode = MOTION_MODE_CW_ARC; break;
     b7e:	c0 92 01 02 	sts	0x0201, r12
     b82:	96 c0       	rjmp	.+300    	; 0xcb0 <gc_execute_line+0x482>
        case 3: gc.motion_mode = MOTION_MODE_CCW_ARC; break;
     b84:	90 92 01 02 	sts	0x0201, r9
     b88:	93 c0       	rjmp	.+294    	; 0xcb0 <gc_execute_line+0x482>
int next_statement(char *letter, double *double_ptr, char *line, int *char_counter);


void select_plane(uint8_t axis_0, uint8_t axis_1, uint8_t axis_2) 
{
  gc.plane_axis_0 = axis_0;
     b8a:	10 92 25 02 	sts	0x0225, r1
  gc.plane_axis_1 = axis_1;
     b8e:	d0 92 26 02 	sts	0x0226, r13
  gc.plane_axis_2 = axis_2;
     b92:	c0 92 27 02 	sts	0x0227, r12
     b96:	8c c0       	rjmp	.+280    	; 0xcb0 <gc_execute_line+0x482>
int next_statement(char *letter, double *double_ptr, char *line, int *char_counter);


void select_plane(uint8_t axis_0, uint8_t axis_1, uint8_t axis_2) 
{
  gc.plane_axis_0 = axis_0;
     b98:	10 92 25 02 	sts	0x0225, r1
  gc.plane_axis_1 = axis_1;
     b9c:	c0 92 26 02 	sts	0x0226, r12
  gc.plane_axis_2 = axis_2;
     ba0:	d0 92 27 02 	sts	0x0227, r13
     ba4:	85 c0       	rjmp	.+266    	; 0xcb0 <gc_execute_line+0x482>
int next_statement(char *letter, double *double_ptr, char *line, int *char_counter);


void select_plane(uint8_t axis_0, uint8_t axis_1, uint8_t axis_2) 
{
  gc.plane_axis_0 = axis_0;
     ba6:	d0 92 25 02 	sts	0x0225, r13
  gc.plane_axis_1 = axis_1;
     baa:	c0 92 26 02 	sts	0x0226, r12
  gc.plane_axis_2 = axis_2;
     bae:	10 92 27 02 	sts	0x0227, r1
     bb2:	7e c0       	rjmp	.+252    	; 0xcb0 <gc_execute_line+0x482>
#endif        
        case 4: next_action = NEXT_ACTION_DWELL; break;
        case 17: select_plane(X_AXIS, Y_AXIS, Z_AXIS); break;
        case 18: select_plane(X_AXIS, Z_AXIS, Y_AXIS); break;
        case 19: select_plane(Y_AXIS, Z_AXIS, X_AXIS); break;
        case 20: gc.inches_mode = TRUE; break;
     bb4:	d0 92 03 02 	sts	0x0203, r13
     bb8:	7b c0       	rjmp	.+246    	; 0xcb0 <gc_execute_line+0x482>
        case 21: gc.inches_mode = FALSE; break;
     bba:	10 92 03 02 	sts	0x0203, r1
     bbe:	78 c0       	rjmp	.+240    	; 0xcb0 <gc_execute_line+0x482>
     bc0:	77 24       	eor	r7, r7
     bc2:	73 94       	inc	r7
     bc4:	75 c0       	rjmp	.+234    	; 0xcb0 <gc_execute_line+0x482>
        case 28: case 30: next_action = NEXT_ACTION_GO_HOME; break;
        case 53: absolute_override = TRUE; break;
        case 80: gc.motion_mode = MOTION_MODE_CANCEL; break;
     bc6:	80 92 01 02 	sts	0x0201, r8
     bca:	72 c0       	rjmp	.+228    	; 0xcb0 <gc_execute_line+0x482>
        case 90: gc.absolute_mode = TRUE; break;
     bcc:	d0 92 04 02 	sts	0x0204, r13
     bd0:	6f c0       	rjmp	.+222    	; 0xcb0 <gc_execute_line+0x482>
        case 91: gc.absolute_mode = FALSE; break;
     bd2:	10 92 04 02 	sts	0x0204, r1
     bd6:	6c c0       	rjmp	.+216    	; 0xcb0 <gc_execute_line+0x482>
     bd8:	93 e0       	ldi	r25, 0x03	; 3
     bda:	9c a7       	std	Y+44, r25	; 0x2c
     bdc:	69 c0       	rjmp	.+210    	; 0xcb0 <gc_execute_line+0x482>
        case 92: next_action = NEXT_ACTION_SET_OFFSETS; break;
        case 93: gc.inverse_feed_rate_mode = TRUE; break;
     bde:	d0 92 02 02 	sts	0x0202, r13
     be2:	66 c0       	rjmp	.+204    	; 0xcb0 <gc_execute_line+0x482>
        case 94: gc.inverse_feed_rate_mode = FALSE; break;
     be4:	10 92 02 02 	sts	0x0202, r1
     be8:	63 c0       	rjmp	.+198    	; 0xcb0 <gc_execute_line+0x482>
        default: FAIL(GCSTATUS_UNSUPPORTED_STATEMENT);
      }
      break;
      
      case 'M':
      switch(int_value) {
     bea:	6d 33       	cpi	r22, 0x3D	; 61
     bec:	71 05       	cpc	r23, r1
     bee:	08 f0       	brcs	.+2      	; 0xbf2 <gc_execute_line+0x3c4>
     bf0:	56 c0       	rjmp	.+172    	; 0xc9e <gc_execute_line+0x470>
     bf2:	ee 58       	subi	r30, 0x8E	; 142
     bf4:	ff 4f       	sbci	r31, 0xFF	; 255
     bf6:	ee 0f       	add	r30, r30
     bf8:	ff 1f       	adc	r31, r31
     bfa:	05 90       	lpm	r0, Z+
     bfc:	f4 91       	lpm	r31, Z+
     bfe:	e0 2d       	mov	r30, r0
     c00:	19 94       	eijmp
        case 0: case 1: gc.program_flow = PROGRAM_FLOW_PAUSED; break;
     c02:	d0 92 05 02 	sts	0x0205, r13
     c06:	54 c0       	rjmp	.+168    	; 0xcb0 <gc_execute_line+0x482>
        case 2: case 30: case 60: gc.program_flow = PROGRAM_FLOW_COMPLETED; break;
     c08:	c0 92 05 02 	sts	0x0205, r12
     c0c:	51 c0       	rjmp	.+162    	; 0xcb0 <gc_execute_line+0x482>
        case 3: gc.spindle_direction = 1; break;
     c0e:	81 e0       	ldi	r24, 0x01	; 1
     c10:	90 e0       	ldi	r25, 0x00	; 0
     c12:	02 c0       	rjmp	.+4      	; 0xc18 <gc_execute_line+0x3ea>
        case 4: gc.spindle_direction = -1; break;
     c14:	8f ef       	ldi	r24, 0xFF	; 255
     c16:	9f ef       	ldi	r25, 0xFF	; 255
     c18:	90 93 07 02 	sts	0x0207, r25
     c1c:	80 93 06 02 	sts	0x0206, r24
     c20:	47 c0       	rjmp	.+142    	; 0xcb0 <gc_execute_line+0x482>
        case 5: gc.spindle_direction = 0; break;
     c22:	10 92 07 02 	sts	0x0207, r1
     c26:	10 92 06 02 	sts	0x0206, r1
     c2a:	42 c0       	rjmp	.+132    	; 0xcb0 <gc_execute_line+0x482>
        case 8: gc.coolant_flood = 1; break;
     c2c:	81 e0       	ldi	r24, 0x01	; 1
     c2e:	90 e0       	ldi	r25, 0x00	; 0
     c30:	90 93 09 02 	sts	0x0209, r25
     c34:	80 93 08 02 	sts	0x0208, r24
     c38:	3b c0       	rjmp	.+118    	; 0xcb0 <gc_execute_line+0x482>
        case 9: gc.coolant_flood = 0; break;
     c3a:	10 92 09 02 	sts	0x0209, r1
     c3e:	10 92 08 02 	sts	0x0208, r1
     c42:	36 c0       	rjmp	.+108    	; 0xcb0 <gc_execute_line+0x482>
	// head control
        case 10: head_down(1);break;
     c44:	81 e0       	ldi	r24, 0x01	; 1
     c46:	90 e0       	ldi	r25, 0x00	; 0
     c48:	02 c0       	rjmp	.+4      	; 0xc4e <gc_execute_line+0x420>
        case 11: head_down(0);break;
     c4a:	80 e0       	ldi	r24, 0x00	; 0
     c4c:	90 e0       	ldi	r25, 0x00	; 0
     c4e:	0e 94 f5 1b 	call	0x37ea	; 0x37ea <head_down>
     c52:	2e c0       	rjmp	.+92     	; 0xcb0 <gc_execute_line+0x482>
	// atc
		case 12: atc_change(0);break;
     c54:	80 e0       	ldi	r24, 0x00	; 0
     c56:	90 e0       	ldi	r25, 0x00	; 0
     c58:	11 c0       	rjmp	.+34     	; 0xc7c <gc_execute_line+0x44e>
		case 13: atc_change(1);break;
     c5a:	81 e0       	ldi	r24, 0x01	; 1
     c5c:	90 e0       	ldi	r25, 0x00	; 0
     c5e:	0e c0       	rjmp	.+28     	; 0xc7c <gc_execute_line+0x44e>
		case 14: atc_change(2);break;
     c60:	82 e0       	ldi	r24, 0x02	; 2
     c62:	90 e0       	ldi	r25, 0x00	; 0
     c64:	0b c0       	rjmp	.+22     	; 0xc7c <gc_execute_line+0x44e>
		case 15: atc_change(3);break;
     c66:	83 e0       	ldi	r24, 0x03	; 3
     c68:	90 e0       	ldi	r25, 0x00	; 0
     c6a:	08 c0       	rjmp	.+16     	; 0xc7c <gc_execute_line+0x44e>
		case 16: atc_change(4);break;
     c6c:	84 e0       	ldi	r24, 0x04	; 4
     c6e:	90 e0       	ldi	r25, 0x00	; 0
     c70:	05 c0       	rjmp	.+10     	; 0xc7c <gc_execute_line+0x44e>
		case 17: atc_change(5);break;
     c72:	85 e0       	ldi	r24, 0x05	; 5
     c74:	90 e0       	ldi	r25, 0x00	; 0
     c76:	02 c0       	rjmp	.+4      	; 0xc7c <gc_execute_line+0x44e>
		case 18: atc_change(6);break;
     c78:	86 e0       	ldi	r24, 0x06	; 6
     c7a:	90 e0       	ldi	r25, 0x00	; 0
     c7c:	0e 94 16 1b 	call	0x362c	; 0x362c <atc_change>
     c80:	17 c0       	rjmp	.+46     	; 0xcb0 <gc_execute_line+0x482>
// vacuum
		case 19: vacuum(1);break;
     c82:	81 e0       	ldi	r24, 0x01	; 1
     c84:	90 e0       	ldi	r25, 0x00	; 0
     c86:	02 c0       	rjmp	.+4      	; 0xc8c <gc_execute_line+0x45e>
		case 20: vacuum(0);break;
     c88:	80 e0       	ldi	r24, 0x00	; 0
     c8a:	90 e0       	ldi	r25, 0x00	; 0
     c8c:	0e 94 8e 1c 	call	0x391c	; 0x391c <vacuum>
     c90:	0f c0       	rjmp	.+30     	; 0xcb0 <gc_execute_line+0x482>
// tape knock
		case 21: tape_knock();break;
     c92:	0e 94 b9 1c 	call	0x3972	; 0x3972 <tape_knock>
     c96:	0c c0       	rjmp	.+24     	; 0xcb0 <gc_execute_line+0x482>
		case 22: do_vacuum_test(); break;
     c98:	0e 94 a9 1c 	call	0x3952	; 0x3952 <do_vacuum_test>
     c9c:	09 c0       	rjmp	.+18     	; 0xcb0 <gc_execute_line+0x482>


        default: FAIL(GCSTATUS_UNSUPPORTED_STATEMENT);
     c9e:	90 92 00 02 	sts	0x0200, r9
     ca2:	06 c0       	rjmp	.+12     	; 0xcb0 <gc_execute_line+0x482>
      }            
      break;
      case 'T': gc.tool = trunc(value); break;
     ca4:	c8 01       	movw	r24, r16
     ca6:	b7 01       	movw	r22, r14
     ca8:	0e 94 ef 1d 	call	0x3bde	; 0x3bde <__fixunssfsi>
     cac:	60 93 22 02 	sts	0x0222, r22
    }
    if(gc.status_code) { break; }
     cb0:	80 91 00 02 	lds	r24, 0x0200
     cb4:	88 23       	and	r24, r24
     cb6:	51 f4       	brne	.+20     	; 0xccc <gc_execute_line+0x49e>
  }
  
  /* We'll handle this as g-code. First: parse all statements */

  // Pass 1: Commands
  while(next_statement(&letter, &value, line, &char_counter)) {
     cb8:	ce 01       	movw	r24, r28
     cba:	01 96       	adiw	r24, 0x01	; 1
     cbc:	b2 01       	movw	r22, r4
     cbe:	a5 01       	movw	r20, r10
     cc0:	91 01       	movw	r18, r2
     cc2:	0e 94 aa 03 	call	0x754	; 0x754 <next_statement>
     cc6:	89 2b       	or	r24, r25
     cc8:	09 f0       	breq	.+2      	; 0xccc <gc_execute_line+0x49e>
     cca:	4a ce       	rjmp	.-876    	; 0x960 <gc_execute_line+0x132>
    }
    if(gc.status_code) { break; }
  }
  
  // If there were any errors parsing this line, we will return right away with the bad news
  if (gc.status_code) { return(gc.status_code); }
     ccc:	80 91 00 02 	lds	r24, 0x0200
     cd0:	88 23       	and	r24, r24
     cd2:	09 f0       	breq	.+2      	; 0xcd6 <gc_execute_line+0x4a8>
     cd4:	d5 c1       	rjmp	.+938    	; 0x1080 <gc_execute_line+0x852>

  char_counter = 0;
     cd6:	1b 82       	std	Y+3, r1	; 0x03
     cd8:	1a 82       	std	Y+2, r1	; 0x02
  clear_vector(offset);
     cda:	80 e1       	ldi	r24, 0x10	; 16
     cdc:	fe 01       	movw	r30, r28
     cde:	7c 96       	adiw	r30, 0x1c	; 28
     ce0:	df 01       	movw	r26, r30
     ce2:	1d 92       	st	X+, r1
     ce4:	8a 95       	dec	r24
     ce6:	e9 f7       	brne	.-6      	; 0xce2 <gc_execute_line+0x4b4>
  memcpy(target, gc.position, sizeof(target)); // i.e. target = gc.position
     ce8:	de 01       	movw	r26, r28
     cea:	1c 96       	adiw	r26, 0x0c	; 12
     cec:	e2 e1       	ldi	r30, 0x12	; 18
     cee:	f2 e0       	ldi	r31, 0x02	; 2
     cf0:	80 e1       	ldi	r24, 0x10	; 16
     cf2:	01 90       	ld	r0, Z+
     cf4:	0d 92       	st	X+, r0
     cf6:	81 50       	subi	r24, 0x01	; 1
     cf8:	e1 f7       	brne	.-8      	; 0xcf2 <gc_execute_line+0x4c4>
     cfa:	1d a6       	std	Y+45, r1	; 0x2d
     cfc:	1e a6       	std	Y+46, r1	; 0x2e
     cfe:	b0 e8       	ldi	r27, 0x80	; 128
     d00:	bf a7       	std	Y+47, r27	; 0x2f
     d02:	ef eb       	ldi	r30, 0xBF	; 191
     d04:	e8 ab       	std	Y+48, r30	; 0x30

  // Pass 2: Parameters
  while(next_statement(&letter, &value, line, &char_counter)) {
     d06:	e4 e0       	ldi	r30, 0x04	; 4
     d08:	2e 2e       	mov	r2, r30
     d0a:	31 2c       	mov	r3, r1
     d0c:	2c 0e       	add	r2, r28
     d0e:	3d 1e       	adc	r3, r29
     d10:	72 e0       	ldi	r23, 0x02	; 2
     d12:	47 2e       	mov	r4, r23
     d14:	51 2c       	mov	r5, r1
     d16:	4c 0e       	add	r4, r28
     d18:	5d 1e       	adc	r5, r29
     d1a:	4e 01       	movw	r8, r28
     d1c:	08 94       	sec
     d1e:	81 1c       	adc	r8, r1
     d20:	91 1c       	adc	r9, r1
     d22:	bf c0       	rjmp	.+382    	; 0xea2 <gc_execute_line+0x674>
    int_value = trunc(value);
    unit_converted_value = to_millimeters(value);
     d24:	cc 80       	ldd	r12, Y+4	; 0x04
     d26:	dd 80       	ldd	r13, Y+5	; 0x05
     d28:	ee 80       	ldd	r14, Y+6	; 0x06
     d2a:	ff 80       	ldd	r15, Y+7	; 0x07
  gc.absolute_mode = TRUE;
}
extern uint8_t dir_bits;

static float to_millimeters(double value) {
  return(gc.inches_mode ? (value * MM_PER_INCH) : value);
     d2c:	80 91 03 02 	lds	r24, 0x0203
     d30:	88 23       	and	r24, r24
     d32:	19 f4       	brne	.+6      	; 0xd3a <gc_execute_line+0x50c>
     d34:	a7 01       	movw	r20, r14
     d36:	96 01       	movw	r18, r12
     d38:	0a c0       	rjmp	.+20     	; 0xd4e <gc_execute_line+0x520>
     d3a:	c7 01       	movw	r24, r14
     d3c:	b6 01       	movw	r22, r12
     d3e:	23 e3       	ldi	r18, 0x33	; 51
     d40:	33 e3       	ldi	r19, 0x33	; 51
     d42:	4b ec       	ldi	r20, 0xCB	; 203
     d44:	51 e4       	ldi	r21, 0x41	; 65
     d46:	0e 94 b3 1f 	call	0x3f66	; 0x3f66 <__mulsf3>
     d4a:	9b 01       	movw	r18, r22
     d4c:	ac 01       	movw	r20, r24

  // Pass 2: Parameters
  while(next_statement(&letter, &value, line, &char_counter)) {
    int_value = trunc(value);
    unit_converted_value = to_millimeters(value);
    switch(letter) {
     d4e:	09 81       	ldd	r16, Y+1	; 0x01
     d50:	0c 34       	cpi	r16, 0x4C	; 76
     d52:	50 f4       	brcc	.+20     	; 0xd68 <gc_execute_line+0x53a>
     d54:	09 34       	cpi	r16, 0x49	; 73
     d56:	08 f0       	brcs	.+2      	; 0xd5a <gc_execute_line+0x52c>
     d58:	45 c0       	rjmp	.+138    	; 0xde4 <gc_execute_line+0x5b6>
     d5a:	03 34       	cpi	r16, 0x43	; 67
     d5c:	09 f4       	brne	.+2      	; 0xd60 <gc_execute_line+0x532>
     d5e:	8c c0       	rjmp	.+280    	; 0xe78 <gc_execute_line+0x64a>
     d60:	06 34       	cpi	r16, 0x46	; 70
     d62:	09 f0       	breq	.+2      	; 0xd66 <gc_execute_line+0x538>
     d64:	9e c0       	rjmp	.+316    	; 0xea2 <gc_execute_line+0x674>
     d66:	0f c0       	rjmp	.+30     	; 0xd86 <gc_execute_line+0x558>
     d68:	03 35       	cpi	r16, 0x53	; 83
     d6a:	09 f4       	brne	.+2      	; 0xd6e <gc_execute_line+0x540>
     d6c:	4f c0       	rjmp	.+158    	; 0xe0c <gc_execute_line+0x5de>
     d6e:	04 35       	cpi	r16, 0x54	; 84
     d70:	20 f4       	brcc	.+8      	; 0xd7a <gc_execute_line+0x54c>
     d72:	00 35       	cpi	r16, 0x50	; 80
     d74:	09 f0       	breq	.+2      	; 0xd78 <gc_execute_line+0x54a>
     d76:	95 c0       	rjmp	.+298    	; 0xea2 <gc_execute_line+0x674>
     d78:	44 c0       	rjmp	.+136    	; 0xe02 <gc_execute_line+0x5d4>
     d7a:	80 2f       	mov	r24, r16
     d7c:	88 55       	subi	r24, 0x58	; 88
     d7e:	83 30       	cpi	r24, 0x03	; 3
     d80:	08 f0       	brcs	.+2      	; 0xd84 <gc_execute_line+0x556>
     d82:	8f c0       	rjmp	.+286    	; 0xea2 <gc_execute_line+0x674>
     d84:	4c c0       	rjmp	.+152    	; 0xe1e <gc_execute_line+0x5f0>
      case 'F': 
      if (gc.inverse_feed_rate_mode) {
     d86:	80 91 02 02 	lds	r24, 0x0202
     d8a:	88 23       	and	r24, r24
     d8c:	29 f0       	breq	.+10     	; 0xd98 <gc_execute_line+0x56a>
     d8e:	2d a7       	std	Y+45, r18	; 0x2d
     d90:	3e a7       	std	Y+46, r19	; 0x2e
     d92:	4f a7       	std	Y+47, r20	; 0x2f
     d94:	58 ab       	std	Y+48, r21	; 0x30
     d96:	85 c0       	rjmp	.+266    	; 0xea2 <gc_execute_line+0x674>
        inverse_feed_rate = unit_converted_value; // seconds per motion for this motion only
      } else {          
        if (gc.motion_mode == MOTION_MODE_SEEK) {
     d98:	80 91 01 02 	lds	r24, 0x0201
     d9c:	88 23       	and	r24, r24
     d9e:	89 f4       	brne	.+34     	; 0xdc2 <gc_execute_line+0x594>
          gc.seek_rate = unit_converted_value/60;
     da0:	ca 01       	movw	r24, r20
     da2:	b9 01       	movw	r22, r18
     da4:	20 e0       	ldi	r18, 0x00	; 0
     da6:	30 e0       	ldi	r19, 0x00	; 0
     da8:	40 e7       	ldi	r20, 0x70	; 112
     daa:	52 e4       	ldi	r21, 0x42	; 66
     dac:	0e 94 82 1d 	call	0x3b04	; 0x3b04 <__divsf3>
     db0:	60 93 0e 02 	sts	0x020E, r22
     db4:	70 93 0f 02 	sts	0x020F, r23
     db8:	80 93 10 02 	sts	0x0210, r24
     dbc:	90 93 11 02 	sts	0x0211, r25
     dc0:	70 c0       	rjmp	.+224    	; 0xea2 <gc_execute_line+0x674>
        } else {
          gc.feed_rate = unit_converted_value/60; // millimeters pr second
     dc2:	ca 01       	movw	r24, r20
     dc4:	b9 01       	movw	r22, r18
     dc6:	20 e0       	ldi	r18, 0x00	; 0
     dc8:	30 e0       	ldi	r19, 0x00	; 0
     dca:	40 e7       	ldi	r20, 0x70	; 112
     dcc:	52 e4       	ldi	r21, 0x42	; 66
     dce:	0e 94 82 1d 	call	0x3b04	; 0x3b04 <__divsf3>
     dd2:	60 93 0a 02 	sts	0x020A, r22
     dd6:	70 93 0b 02 	sts	0x020B, r23
     dda:	80 93 0c 02 	sts	0x020C, r24
     dde:	90 93 0d 02 	sts	0x020D, r25
     de2:	5f c0       	rjmp	.+190    	; 0xea2 <gc_execute_line+0x674>
        }
      }
      break;
      case 'I': case 'J': case 'K': offset[letter-'I'] = unit_converted_value; break;
     de4:	e0 2f       	mov	r30, r16
     de6:	f0 e0       	ldi	r31, 0x00	; 0
     de8:	e9 54       	subi	r30, 0x49	; 73
     dea:	f0 40       	sbci	r31, 0x00	; 0
     dec:	ee 0f       	add	r30, r30
     dee:	ff 1f       	adc	r31, r31
     df0:	ee 0f       	add	r30, r30
     df2:	ff 1f       	adc	r31, r31
     df4:	e8 0d       	add	r30, r8
     df6:	f9 1d       	adc	r31, r9
     df8:	23 8f       	std	Z+27, r18	; 0x1b
     dfa:	34 8f       	std	Z+28, r19	; 0x1c
     dfc:	45 8f       	std	Z+29, r20	; 0x1d
     dfe:	56 8f       	std	Z+30, r21	; 0x1e
     e00:	50 c0       	rjmp	.+160    	; 0xea2 <gc_execute_line+0x674>
      case 'P': p = value; break;
     e02:	c8 86       	std	Y+8, r12	; 0x08
     e04:	d9 86       	std	Y+9, r13	; 0x09
     e06:	ea 86       	std	Y+10, r14	; 0x0a
     e08:	fb 86       	std	Y+11, r15	; 0x0b
     e0a:	4b c0       	rjmp	.+150    	; 0xea2 <gc_execute_line+0x674>
      case 'R': r = unit_converted_value; radius_mode = TRUE; break;
      case 'S': gc.spindle_speed = value; break;
     e0c:	c7 01       	movw	r24, r14
     e0e:	b6 01       	movw	r22, r12
     e10:	0e 94 ea 1d 	call	0x3bd4	; 0x3bd4 <__fixsfsi>
     e14:	70 93 24 02 	sts	0x0224, r23
     e18:	60 93 23 02 	sts	0x0223, r22
     e1c:	42 c0       	rjmp	.+132    	; 0xea2 <gc_execute_line+0x674>
      case 'X': case 'Y': case 'Z':
      if (gc.absolute_mode || absolute_override) {
     e1e:	80 91 04 02 	lds	r24, 0x0204
     e22:	88 23       	and	r24, r24
     e24:	11 f4       	brne	.+4      	; 0xe2a <gc_execute_line+0x5fc>
     e26:	77 20       	and	r7, r7
     e28:	79 f0       	breq	.+30     	; 0xe48 <gc_execute_line+0x61a>
        target[letter - 'X'] = unit_converted_value;
     e2a:	e0 2f       	mov	r30, r16
     e2c:	f0 e0       	ldi	r31, 0x00	; 0
     e2e:	e8 55       	subi	r30, 0x58	; 88
     e30:	f0 40       	sbci	r31, 0x00	; 0
     e32:	ee 0f       	add	r30, r30
     e34:	ff 1f       	adc	r31, r31
     e36:	ee 0f       	add	r30, r30
     e38:	ff 1f       	adc	r31, r31
     e3a:	e8 0d       	add	r30, r8
     e3c:	f9 1d       	adc	r31, r9
     e3e:	23 87       	std	Z+11, r18	; 0x0b
     e40:	34 87       	std	Z+12, r19	; 0x0c
     e42:	45 87       	std	Z+13, r20	; 0x0d
     e44:	56 87       	std	Z+14, r21	; 0x0e
     e46:	2d c0       	rjmp	.+90     	; 0xea2 <gc_execute_line+0x674>
      } else {
        target[letter - 'X'] += unit_converted_value;
     e48:	10 e0       	ldi	r17, 0x00	; 0
     e4a:	08 55       	subi	r16, 0x58	; 88
     e4c:	10 40       	sbci	r17, 0x00	; 0
     e4e:	00 0f       	add	r16, r16
     e50:	11 1f       	adc	r17, r17
     e52:	00 0f       	add	r16, r16
     e54:	11 1f       	adc	r17, r17
     e56:	08 0d       	add	r16, r8
     e58:	19 1d       	adc	r17, r9
     e5a:	d8 01       	movw	r26, r16
     e5c:	1b 96       	adiw	r26, 0x0b	; 11
     e5e:	6d 91       	ld	r22, X+
     e60:	7d 91       	ld	r23, X+
     e62:	8d 91       	ld	r24, X+
     e64:	9c 91       	ld	r25, X
     e66:	1e 97       	sbiw	r26, 0x0e	; 14
     e68:	0e 94 df 1c 	call	0x39be	; 0x39be <__addsf3>
     e6c:	f8 01       	movw	r30, r16
     e6e:	63 87       	std	Z+11, r22	; 0x0b
     e70:	74 87       	std	Z+12, r23	; 0x0c
     e72:	85 87       	std	Z+13, r24	; 0x0d
     e74:	96 87       	std	Z+14, r25	; 0x0e
     e76:	15 c0       	rjmp	.+42     	; 0xea2 <gc_execute_line+0x674>
      }
      break;
      case 'C':
      if (gc.absolute_mode || absolute_override) {
     e78:	80 91 04 02 	lds	r24, 0x0204
     e7c:	88 23       	and	r24, r24
     e7e:	11 f4       	brne	.+4      	; 0xe84 <gc_execute_line+0x656>
     e80:	77 20       	and	r7, r7
     e82:	29 f0       	breq	.+10     	; 0xe8e <gc_execute_line+0x660>
		target[C_AXIS] = unit_converted_value;
     e84:	28 8f       	std	Y+24, r18	; 0x18
     e86:	39 8f       	std	Y+25, r19	; 0x19
     e88:	4a 8f       	std	Y+26, r20	; 0x1a
     e8a:	5b 8f       	std	Y+27, r21	; 0x1b
     e8c:	0a c0       	rjmp	.+20     	; 0xea2 <gc_execute_line+0x674>
      } else {
        target[C_AXIS] += unit_converted_value;
     e8e:	68 8d       	ldd	r22, Y+24	; 0x18
     e90:	79 8d       	ldd	r23, Y+25	; 0x19
     e92:	8a 8d       	ldd	r24, Y+26	; 0x1a
     e94:	9b 8d       	ldd	r25, Y+27	; 0x1b
     e96:	0e 94 df 1c 	call	0x39be	; 0x39be <__addsf3>
     e9a:	68 8f       	std	Y+24, r22	; 0x18
     e9c:	79 8f       	std	Y+25, r23	; 0x19
     e9e:	8a 8f       	std	Y+26, r24	; 0x1a
     ea0:	9b 8f       	std	Y+27, r25	; 0x1b
  char_counter = 0;
  clear_vector(offset);
  memcpy(target, gc.position, sizeof(target)); // i.e. target = gc.position

  // Pass 2: Parameters
  while(next_statement(&letter, &value, line, &char_counter)) {
     ea2:	c4 01       	movw	r24, r8
     ea4:	b1 01       	movw	r22, r2
     ea6:	a5 01       	movw	r20, r10
     ea8:	92 01       	movw	r18, r4
     eaa:	0e 94 aa 03 	call	0x754	; 0x754 <next_statement>
     eae:	89 2b       	or	r24, r25
     eb0:	09 f0       	breq	.+2      	; 0xeb4 <gc_execute_line+0x686>
     eb2:	38 cf       	rjmp	.-400    	; 0xd24 <gc_execute_line+0x4f6>
      break;      
    }
  }
  
  // If there were any errors parsing this line, we will return right away with the bad news
  if (gc.status_code) { return(gc.status_code); }
     eb4:	80 91 00 02 	lds	r24, 0x0200
     eb8:	88 23       	and	r24, r24
     eba:	09 f0       	breq	.+2      	; 0xebe <gc_execute_line+0x690>
     ebc:	e1 c0       	rjmp	.+450    	; 0x1080 <gc_execute_line+0x852>
    
  // Update spindle state
  if (gc.spindle_direction) {
     ebe:	80 91 06 02 	lds	r24, 0x0206
     ec2:	90 91 07 02 	lds	r25, 0x0207
     ec6:	00 97       	sbiw	r24, 0x00	; 0
     ec8:	59 f0       	breq	.+22     	; 0xee0 <gc_execute_line+0x6b2>
    spindle_run(gc.spindle_direction, gc.spindle_speed);
     eca:	40 91 23 02 	lds	r20, 0x0223
     ece:	50 91 24 02 	lds	r21, 0x0224
     ed2:	66 27       	eor	r22, r22
     ed4:	57 fd       	sbrc	r21, 7
     ed6:	60 95       	com	r22
     ed8:	76 2f       	mov	r23, r22
     eda:	0e 94 30 14 	call	0x2860	; 0x2860 <spindle_run>
     ede:	02 c0       	rjmp	.+4      	; 0xee4 <gc_execute_line+0x6b6>
  } else {
    spindle_stop();
     ee0:	0e 94 3b 14 	call	0x2876	; 0x2876 <spindle_stop>
  }
  
  // Update coolant state
  if (gc.coolant_flood) {
     ee4:	80 91 08 02 	lds	r24, 0x0208
     ee8:	90 91 09 02 	lds	r25, 0x0209
     eec:	89 2b       	or	r24, r25
     eee:	19 f0       	breq	.+6      	; 0xef6 <gc_execute_line+0x6c8>
  	coolant_flood(TRUE);
     ef0:	81 e0       	ldi	r24, 0x01	; 1
     ef2:	90 e0       	ldi	r25, 0x00	; 0
     ef4:	02 c0       	rjmp	.+4      	; 0xefa <gc_execute_line+0x6cc>
  }
  else {
  	coolant_flood(FALSE);
     ef6:	80 e0       	ldi	r24, 0x00	; 0
     ef8:	90 e0       	ldi	r25, 0x00	; 0
     efa:	0e 94 b8 02 	call	0x570	; 0x570 <coolant_flood>
  }
  
  // Perform any physical actions
  switch (next_action) {
     efe:	fc a5       	ldd	r31, Y+44	; 0x2c
     f00:	f1 30       	cpi	r31, 0x01	; 1
     f02:	91 f0       	breq	.+36     	; 0xf28 <gc_execute_line+0x6fa>
     f04:	f1 30       	cpi	r31, 0x01	; 1
     f06:	f8 f0       	brcs	.+62     	; 0xf46 <gc_execute_line+0x718>
     f08:	f2 30       	cpi	r31, 0x02	; 2
     f0a:	21 f0       	breq	.+8      	; 0xf14 <gc_execute_line+0x6e6>
     f0c:	f3 30       	cpi	r31, 0x03	; 3
     f0e:	09 f0       	breq	.+2      	; 0xf12 <gc_execute_line+0x6e4>
     f10:	aa c0       	rjmp	.+340    	; 0x1066 <gc_execute_line+0x838>
     f12:	97 c0       	rjmp	.+302    	; 0x1042 <gc_execute_line+0x814>
    case NEXT_ACTION_GO_HOME: mc_go_home(); memset(target,0,sizeof(target));break;
     f14:	0e 94 be 08 	call	0x117c	; 0x117c <mc_go_home>
     f18:	80 e1       	ldi	r24, 0x10	; 16
     f1a:	fe 01       	movw	r30, r28
     f1c:	3c 96       	adiw	r30, 0x0c	; 12
     f1e:	df 01       	movw	r26, r30
     f20:	1d 92       	st	X+, r1
     f22:	8a 95       	dec	r24
     f24:	e9 f7       	brne	.-6      	; 0xf20 <gc_execute_line+0x6f2>
     f26:	9f c0       	rjmp	.+318    	; 0x1066 <gc_execute_line+0x838>
    case NEXT_ACTION_DWELL: mc_dwell(trunc(p*1000)); break;
     f28:	68 85       	ldd	r22, Y+8	; 0x08
     f2a:	79 85       	ldd	r23, Y+9	; 0x09
     f2c:	8a 85       	ldd	r24, Y+10	; 0x0a
     f2e:	9b 85       	ldd	r25, Y+11	; 0x0b
     f30:	20 e0       	ldi	r18, 0x00	; 0
     f32:	30 e0       	ldi	r19, 0x00	; 0
     f34:	4a e7       	ldi	r20, 0x7A	; 122
     f36:	54 e4       	ldi	r21, 0x44	; 68
     f38:	0e 94 b3 1f 	call	0x3f66	; 0x3f66 <__mulsf3>
     f3c:	0e 94 ef 1d 	call	0x3bde	; 0x3bde <__fixunssfsi>
     f40:	0e 94 c1 08 	call	0x1182	; 0x1182 <mc_dwell>
     f44:	90 c0       	rjmp	.+288    	; 0x1066 <gc_execute_line+0x838>
    case NEXT_ACTION_DEFAULT: 
    switch (gc.motion_mode) {
     f46:	80 91 01 02 	lds	r24, 0x0201
     f4a:	88 23       	and	r24, r24
     f4c:	21 f0       	breq	.+8      	; 0xf56 <gc_execute_line+0x728>
     f4e:	81 30       	cpi	r24, 0x01	; 1
     f50:	09 f0       	breq	.+2      	; 0xf54 <gc_execute_line+0x726>
     f52:	89 c0       	rjmp	.+274    	; 0x1066 <gc_execute_line+0x838>
     f54:	2d c0       	rjmp	.+90     	; 0xfb0 <gc_execute_line+0x782>
      case MOTION_MODE_CANCEL: break;
      case MOTION_MODE_SEEK:
      mc_line(target[X_AXIS], target[Y_AXIS], target[Z_AXIS], target[C_AXIS], gc.seek_rate, FALSE);
     f56:	00 d0       	rcall	.+0      	; 0xf58 <gc_execute_line+0x72a>
     f58:	00 d0       	rcall	.+0      	; 0xf5a <gc_execute_line+0x72c>
     f5a:	6c 85       	ldd	r22, Y+12	; 0x0c
     f5c:	7d 85       	ldd	r23, Y+13	; 0x0d
     f5e:	8e 85       	ldd	r24, Y+14	; 0x0e
     f60:	9f 85       	ldd	r25, Y+15	; 0x0f
     f62:	28 89       	ldd	r18, Y+16	; 0x10
     f64:	39 89       	ldd	r19, Y+17	; 0x11
     f66:	4a 89       	ldd	r20, Y+18	; 0x12
     f68:	5b 89       	ldd	r21, Y+19	; 0x13
     f6a:	ec 88       	ldd	r14, Y+20	; 0x14
     f6c:	fd 88       	ldd	r15, Y+21	; 0x15
     f6e:	0e 89       	ldd	r16, Y+22	; 0x16
     f70:	1f 89       	ldd	r17, Y+23	; 0x17
     f72:	a8 8c       	ldd	r10, Y+24	; 0x18
     f74:	b9 8c       	ldd	r11, Y+25	; 0x19
     f76:	ca 8c       	ldd	r12, Y+26	; 0x1a
     f78:	db 8c       	ldd	r13, Y+27	; 0x1b
     f7a:	60 90 0e 02 	lds	r6, 0x020E
     f7e:	70 90 0f 02 	lds	r7, 0x020F
     f82:	80 90 10 02 	lds	r8, 0x0210
     f86:	90 90 11 02 	lds	r9, 0x0211
     f8a:	ed b7       	in	r30, 0x3d	; 61
     f8c:	fe b7       	in	r31, 0x3e	; 62
     f8e:	61 82       	std	Z+1, r6	; 0x01
     f90:	72 82       	std	Z+2, r7	; 0x02
     f92:	83 82       	std	Z+3, r8	; 0x03
     f94:	94 82       	std	Z+4, r9	; 0x04
     f96:	16 82       	std	Z+6, r1	; 0x06
     f98:	15 82       	std	Z+5, r1	; 0x05
     f9a:	0e 94 eb 0d 	call	0x1bd6	; 0x1bd6 <plan_buffer_line>
     f9e:	8d b7       	in	r24, 0x3d	; 61
     fa0:	9e b7       	in	r25, 0x3e	; 62
     fa2:	06 96       	adiw	r24, 0x06	; 6
     fa4:	0f b6       	in	r0, 0x3f	; 63
     fa6:	f8 94       	cli
     fa8:	9e bf       	out	0x3e, r25	; 62
     faa:	0f be       	out	0x3f, r0	; 63
     fac:	8d bf       	out	0x3d, r24	; 61
     fae:	5b c0       	rjmp	.+182    	; 0x1066 <gc_execute_line+0x838>
      break;
      case MOTION_MODE_LINEAR:
      mc_line(target[X_AXIS], target[Y_AXIS], target[Z_AXIS], target[C_AXIS],
     fb0:	2c 84       	ldd	r2, Y+12	; 0x0c
     fb2:	3d 84       	ldd	r3, Y+13	; 0x0d
     fb4:	4e 84       	ldd	r4, Y+14	; 0x0e
     fb6:	5f 84       	ldd	r5, Y+15	; 0x0f
     fb8:	68 88       	ldd	r6, Y+16	; 0x10
     fba:	79 88       	ldd	r7, Y+17	; 0x11
     fbc:	8a 88       	ldd	r8, Y+18	; 0x12
     fbe:	9b 88       	ldd	r9, Y+19	; 0x13
     fc0:	ec 88       	ldd	r14, Y+20	; 0x14
     fc2:	fd 88       	ldd	r15, Y+21	; 0x15
     fc4:	0e 89       	ldd	r16, Y+22	; 0x16
     fc6:	1f 89       	ldd	r17, Y+23	; 0x17
     fc8:	a8 8c       	ldd	r10, Y+24	; 0x18
     fca:	b9 8c       	ldd	r11, Y+25	; 0x19
     fcc:	ca 8c       	ldd	r12, Y+26	; 0x1a
     fce:	db 8c       	ldd	r13, Y+27	; 0x1b
     fd0:	60 91 02 02 	lds	r22, 0x0202
     fd4:	66 23       	and	r22, r22
     fd6:	61 f4       	brne	.+24     	; 0xff0 <gc_execute_line+0x7c2>
     fd8:	90 91 0a 02 	lds	r25, 0x020A
     fdc:	9d a7       	std	Y+45, r25	; 0x2d
     fde:	a0 91 0b 02 	lds	r26, 0x020B
     fe2:	ae a7       	std	Y+46, r26	; 0x2e
     fe4:	b0 91 0c 02 	lds	r27, 0x020C
     fe8:	bf a7       	std	Y+47, r27	; 0x2f
     fea:	e0 91 0d 02 	lds	r30, 0x020D
     fee:	e8 ab       	std	Y+48, r30	; 0x30
     ff0:	00 d0       	rcall	.+0      	; 0xff2 <gc_execute_line+0x7c4>
     ff2:	00 d0       	rcall	.+0      	; 0xff4 <gc_execute_line+0x7c6>
     ff4:	8d b7       	in	r24, 0x3d	; 61
     ff6:	9e b7       	in	r25, 0x3e	; 62
     ff8:	01 96       	adiw	r24, 0x01	; 1
     ffa:	9a ab       	std	Y+50, r25	; 0x32
     ffc:	89 ab       	std	Y+49, r24	; 0x31
     ffe:	2d a5       	ldd	r18, Y+45	; 0x2d
    1000:	3e a5       	ldd	r19, Y+46	; 0x2e
    1002:	4f a5       	ldd	r20, Y+47	; 0x2f
    1004:	58 a9       	ldd	r21, Y+48	; 0x30
    1006:	c9 01       	movw	r24, r18
    1008:	da 01       	movw	r26, r20
    100a:	ed b7       	in	r30, 0x3d	; 61
    100c:	fe b7       	in	r31, 0x3e	; 62
    100e:	81 83       	std	Z+1, r24	; 0x01
    1010:	92 83       	std	Z+2, r25	; 0x02
    1012:	a3 83       	std	Z+3, r26	; 0x03
    1014:	b4 83       	std	Z+4, r27	; 0x04
    1016:	a9 a9       	ldd	r26, Y+49	; 0x31
    1018:	ba a9       	ldd	r27, Y+50	; 0x32
    101a:	14 96       	adiw	r26, 0x04	; 4
    101c:	6c 93       	st	X, r22
    101e:	14 97       	sbiw	r26, 0x04	; 4
    1020:	15 96       	adiw	r26, 0x05	; 5
    1022:	1c 92       	st	X, r1
    1024:	c2 01       	movw	r24, r4
    1026:	b1 01       	movw	r22, r2
    1028:	a4 01       	movw	r20, r8
    102a:	93 01       	movw	r18, r6
    102c:	0e 94 eb 0d 	call	0x1bd6	; 0x1bd6 <plan_buffer_line>
    1030:	ed b7       	in	r30, 0x3d	; 61
    1032:	fe b7       	in	r31, 0x3e	; 62
    1034:	36 96       	adiw	r30, 0x06	; 6
    1036:	0f b6       	in	r0, 0x3f	; 63
    1038:	f8 94       	cli
    103a:	fe bf       	out	0x3e, r31	; 62
    103c:	0f be       	out	0x3f, r0	; 63
    103e:	ed bf       	out	0x3d, r30	; 61
    1040:	12 c0       	rjmp	.+36     	; 0x1066 <gc_execute_line+0x838>
        (gc.inverse_feed_rate_mode) ? inverse_feed_rate : gc.feed_rate, gc.inverse_feed_rate_mode);
      break;
    }
    break;
    case NEXT_ACTION_SET_OFFSETS:
      mc_set_current(target[X_AXIS], target[Y_AXIS], target[Z_AXIS], target[C_AXIS]);
    1042:	6c 85       	ldd	r22, Y+12	; 0x0c
    1044:	7d 85       	ldd	r23, Y+13	; 0x0d
    1046:	8e 85       	ldd	r24, Y+14	; 0x0e
    1048:	9f 85       	ldd	r25, Y+15	; 0x0f
    104a:	28 89       	ldd	r18, Y+16	; 0x10
    104c:	39 89       	ldd	r19, Y+17	; 0x11
    104e:	4a 89       	ldd	r20, Y+18	; 0x12
    1050:	5b 89       	ldd	r21, Y+19	; 0x13
    1052:	ec 88       	ldd	r14, Y+20	; 0x14
    1054:	fd 88       	ldd	r15, Y+21	; 0x15
    1056:	0e 89       	ldd	r16, Y+22	; 0x16
    1058:	1f 89       	ldd	r17, Y+23	; 0x17
    105a:	a8 8c       	ldd	r10, Y+24	; 0x18
    105c:	b9 8c       	ldd	r11, Y+25	; 0x19
    105e:	ca 8c       	ldd	r12, Y+26	; 0x1a
    1060:	db 8c       	ldd	r13, Y+27	; 0x1b
    1062:	0e 94 23 0a 	call	0x1446	; 0x1446 <plan_set_current>
  }
  
  // As far as the parser is concerned, the position is now == target. In reality the
  // motion control system might still be processing the action and the real tool position
  // in any intermediate location.
  memcpy(gc.position, target, sizeof(gc.position)); // gc.position[] = target[];
    1066:	a2 e1       	ldi	r26, 0x12	; 18
    1068:	b2 e0       	ldi	r27, 0x02	; 2
    106a:	fe 01       	movw	r30, r28
    106c:	3c 96       	adiw	r30, 0x0c	; 12
    106e:	80 e1       	ldi	r24, 0x10	; 16
    1070:	01 90       	ld	r0, Z+
    1072:	0d 92       	st	X+, r0
    1074:	81 50       	subi	r24, 0x01	; 1
    1076:	e1 f7       	brne	.-8      	; 0x1070 <gc_execute_line+0x842>

  return(gc.status_code);
    1078:	80 91 00 02 	lds	r24, 0x0200
    107c:	01 c0       	rjmp	.+2      	; 0x1080 <gc_execute_line+0x852>
    107e:	83 e0       	ldi	r24, 0x03	; 3
}
    1080:	e2 96       	adiw	r28, 0x32	; 50
    1082:	0f b6       	in	r0, 0x3f	; 63
    1084:	f8 94       	cli
    1086:	de bf       	out	0x3e, r29	; 62
    1088:	0f be       	out	0x3f, r0	; 63
    108a:	cd bf       	out	0x3d, r28	; 61
    108c:	cf 91       	pop	r28
    108e:	df 91       	pop	r29
    1090:	1f 91       	pop	r17
    1092:	0f 91       	pop	r16
    1094:	ff 90       	pop	r15
    1096:	ef 90       	pop	r14
    1098:	df 90       	pop	r13
    109a:	cf 90       	pop	r12
    109c:	bf 90       	pop	r11
    109e:	af 90       	pop	r10
    10a0:	9f 90       	pop	r9
    10a2:	8f 90       	pop	r8
    10a4:	7f 90       	pop	r7
    10a6:	6f 90       	pop	r6
    10a8:	5f 90       	pop	r5
    10aa:	4f 90       	pop	r4
    10ac:	3f 90       	pop	r3
    10ae:	2f 90       	pop	r2
    10b0:	08 95       	ret

000010b2 <theta>:
}

// Find the angle in radians of deviance from the positive y axis. negative angles to the left of y-axis, 
// positive to the right.
double theta(double x, double y)
{
    10b2:	af 92       	push	r10
    10b4:	bf 92       	push	r11
    10b6:	cf 92       	push	r12
    10b8:	df 92       	push	r13
    10ba:	ef 92       	push	r14
    10bc:	ff 92       	push	r15
    10be:	0f 93       	push	r16
    10c0:	1f 93       	push	r17
    10c2:	79 01       	movw	r14, r18
    10c4:	8a 01       	movw	r16, r20
  double theta = atan(x/fabs(y));
    10c6:	5f 77       	andi	r21, 0x7F	; 127
    10c8:	0e 94 82 1d 	call	0x3b04	; 0x3b04 <__divsf3>
    10cc:	0e 94 43 1d 	call	0x3a86	; 0x3a86 <atan>
    10d0:	5b 01       	movw	r10, r22
    10d2:	6c 01       	movw	r12, r24
  if (y>0) {
    10d4:	c8 01       	movw	r24, r16
    10d6:	b7 01       	movw	r22, r14
    10d8:	20 e0       	ldi	r18, 0x00	; 0
    10da:	30 e0       	ldi	r19, 0x00	; 0
    10dc:	40 e0       	ldi	r20, 0x00	; 0
    10de:	50 e0       	ldi	r21, 0x00	; 0
    10e0:	0e 94 45 1f 	call	0x3e8a	; 0x3e8a <__gesf2>
    10e4:	18 16       	cp	r1, r24
    10e6:	cc f0       	brlt	.+50     	; 0x111a <theta+0x68>
    return(theta);
  } else {
    if (theta>0) 
    10e8:	c6 01       	movw	r24, r12
    10ea:	b5 01       	movw	r22, r10
    10ec:	20 e0       	ldi	r18, 0x00	; 0
    10ee:	30 e0       	ldi	r19, 0x00	; 0
    10f0:	40 e0       	ldi	r20, 0x00	; 0
    10f2:	50 e0       	ldi	r21, 0x00	; 0
    10f4:	0e 94 45 1f 	call	0x3e8a	; 0x3e8a <__gesf2>
    10f8:	18 16       	cp	r1, r24
    10fa:	2c f4       	brge	.+10     	; 0x1106 <theta+0x54>
    {
      return(M_PI-theta);
    10fc:	6b ed       	ldi	r22, 0xDB	; 219
    10fe:	7f e0       	ldi	r23, 0x0F	; 15
    1100:	89 e4       	ldi	r24, 0x49	; 73
    1102:	90 e4       	ldi	r25, 0x40	; 64
    1104:	04 c0       	rjmp	.+8      	; 0x110e <theta+0x5c>
    } else {
      return(-M_PI-theta);
    1106:	6b ed       	ldi	r22, 0xDB	; 219
    1108:	7f e0       	ldi	r23, 0x0F	; 15
    110a:	89 e4       	ldi	r24, 0x49	; 73
    110c:	90 ec       	ldi	r25, 0xC0	; 192
    110e:	a6 01       	movw	r20, r12
    1110:	95 01       	movw	r18, r10
    1112:	0e 94 de 1c 	call	0x39bc	; 0x39bc <__subsf3>
    1116:	5b 01       	movw	r10, r22
    1118:	6c 01       	movw	r12, r24
    }
  }
}
    111a:	b5 01       	movw	r22, r10
    111c:	c6 01       	movw	r24, r12
    111e:	1f 91       	pop	r17
    1120:	0f 91       	pop	r16
    1122:	ff 90       	pop	r15
    1124:	ef 90       	pop	r14
    1126:	df 90       	pop	r13
    1128:	cf 90       	pop	r12
    112a:	bf 90       	pop	r11
    112c:	af 90       	pop	r10
    112e:	08 95       	ret

00001130 <main>:
// #  error "As of version 0.6 Grbl only supports atmega328p. If you want to run Grbl on an 168 check out 0.51 ('git co v0_51')"
// #endif

int main(void)
{
  sp_init();        
    1130:	0e 94 10 12 	call	0x2420	; 0x2420 <sp_init>
  settings_init();  
    1134:	0e 94 1e 14 	call	0x283c	; 0x283c <settings_init>
  plan_init();      
    1138:	0e 94 c0 0a 	call	0x1580	; 0x1580 <plan_init>
  st_init();        
    113c:	0e 94 1e 15 	call	0x2a3c	; 0x2a3c <st_init>
  limits_init();
    1140:	0e 94 e0 15 	call	0x2bc0	; 0x2bc0 <limits_init>
  spindle_init();   
    1144:	0e 94 29 14 	call	0x2852	; 0x2852 <spindle_init>
  coolant_init();
    1148:	0e 94 b6 02 	call	0x56c	; 0x56c <coolant_init>
  atc_init();
    114c:	0e 94 01 1b 	call	0x3602	; 0x3602 <atc_init>
  head_init();
    1150:	0e 94 de 1b 	call	0x37bc	; 0x37bc <head_init>
  vacuum_init();
    1154:	0e 94 81 1c 	call	0x3902	; 0x3902 <vacuum_init>
  panel_init();
    1158:	0e 94 21 1c 	call	0x3842	; 0x3842 <panel_init>
  gc_init();
    115c:	0e 94 d9 03 	call	0x7b2	; 0x7b2 <gc_init>
 
  
  // Once everything is initialized, send the standard "ok" to let clients
  // know it's okay to go ahead
  printPgmString(PSTR("ok\n\r"));
    1160:	8d e1       	ldi	r24, 0x1D	; 29
    1162:	92 e0       	ldi	r25, 0x02	; 2
    1164:	0e 94 01 1a 	call	0x3402	; 0x3402 <printPgmString>


	}

  for(;;){
    sleep_mode(); // Wait for it ...
    1168:	83 b7       	in	r24, 0x33	; 51
    116a:	81 60       	ori	r24, 0x01	; 1
    116c:	83 bf       	out	0x33, r24	; 51
    116e:	88 95       	sleep
    1170:	83 b7       	in	r24, 0x33	; 51
    1172:	8e 7f       	andi	r24, 0xFE	; 254
    1174:	83 bf       	out	0x33, r24	; 51
    sp_process(); // ... process the serial protocol
    1176:	0e 94 a3 11 	call	0x2346	; 0x2346 <sp_process>
    117a:	f6 cf       	rjmp	.-20     	; 0x1168 <main+0x38>

0000117c <mc_go_home>:
  _delay_ms(milliseconds);
}

void mc_go_home()
{
  st_go_home();
    117c:	0e 94 09 16 	call	0x2c12	; 0x2c12 <st_go_home>
}
    1180:	08 95       	ret

00001182 <mc_dwell>:
#include "planner.h"
#include "wiring_serial.h"


void mc_dwell(uint32_t milliseconds) 
{
    1182:	af 92       	push	r10
    1184:	bf 92       	push	r11
    1186:	cf 92       	push	r12
    1188:	df 92       	push	r13
    118a:	ef 92       	push	r14
    118c:	ff 92       	push	r15
    118e:	0f 93       	push	r16
    1190:	1f 93       	push	r17
    1192:	7b 01       	movw	r14, r22
    1194:	8c 01       	movw	r16, r24
  st_synchronize();
    1196:	0e 94 79 16 	call	0x2cf2	; 0x2cf2 <st_synchronize>
  _delay_ms(milliseconds);
    119a:	c8 01       	movw	r24, r16
    119c:	b7 01       	movw	r22, r14
    119e:	0e 94 1b 1e 	call	0x3c36	; 0x3c36 <__floatunsisf>
    11a2:	5b 01       	movw	r10, r22
    11a4:	6c 01       	movw	r12, r24
 */
void
_delay_ms(double __ms)
{
	uint16_t __ticks;
	double __tmp = ((F_CPU) / 4e3) * __ms;
    11a6:	20 e0       	ldi	r18, 0x00	; 0
    11a8:	30 e0       	ldi	r19, 0x00	; 0
    11aa:	4a e7       	ldi	r20, 0x7A	; 122
    11ac:	55 e4       	ldi	r21, 0x45	; 69
    11ae:	0e 94 b3 1f 	call	0x3f66	; 0x3f66 <__mulsf3>
    11b2:	7b 01       	movw	r14, r22
    11b4:	8c 01       	movw	r16, r24
	if (__tmp < 1.0)
    11b6:	20 e0       	ldi	r18, 0x00	; 0
    11b8:	30 e0       	ldi	r19, 0x00	; 0
    11ba:	40 e8       	ldi	r20, 0x80	; 128
    11bc:	5f e3       	ldi	r21, 0x3F	; 63
    11be:	0e 94 7e 1d 	call	0x3afc	; 0x3afc <__cmpsf2>
    11c2:	88 23       	and	r24, r24
    11c4:	1c f4       	brge	.+6      	; 0x11cc <mc_dwell+0x4a>
    11c6:	61 e0       	ldi	r22, 0x01	; 1
    11c8:	70 e0       	ldi	r23, 0x00	; 0
    11ca:	24 c0       	rjmp	.+72     	; 0x1214 <mc_dwell+0x92>
		__ticks = 1;
	else if (__tmp > 65535)
    11cc:	c8 01       	movw	r24, r16
    11ce:	b7 01       	movw	r22, r14
    11d0:	20 e0       	ldi	r18, 0x00	; 0
    11d2:	3f ef       	ldi	r19, 0xFF	; 255
    11d4:	4f e7       	ldi	r20, 0x7F	; 127
    11d6:	57 e4       	ldi	r21, 0x47	; 71
    11d8:	0e 94 45 1f 	call	0x3e8a	; 0x3e8a <__gesf2>
    11dc:	18 16       	cp	r1, r24
    11de:	b4 f4       	brge	.+44     	; 0x120c <mc_dwell+0x8a>
	{
		//	__ticks = requested delay in 1/10 ms
		__ticks = (uint16_t) (__ms * 10.0);
    11e0:	c6 01       	movw	r24, r12
    11e2:	b5 01       	movw	r22, r10
    11e4:	20 e0       	ldi	r18, 0x00	; 0
    11e6:	30 e0       	ldi	r19, 0x00	; 0
    11e8:	40 e2       	ldi	r20, 0x20	; 32
    11ea:	51 e4       	ldi	r21, 0x41	; 65
    11ec:	0e 94 b3 1f 	call	0x3f66	; 0x3f66 <__mulsf3>
    11f0:	0e 94 ef 1d 	call	0x3bde	; 0x3bde <__fixunssfsi>
    milliseconds can be achieved.
 */
void
_delay_loop_2(uint16_t __count)
{
	__asm__ volatile (
    11f4:	80 e9       	ldi	r24, 0x90	; 144
    11f6:	91 e0       	ldi	r25, 0x01	; 1
    11f8:	05 c0       	rjmp	.+10     	; 0x1204 <mc_dwell+0x82>
    11fa:	fc 01       	movw	r30, r24
    11fc:	31 97       	sbiw	r30, 0x01	; 1
    11fe:	f1 f7       	brne	.-4      	; 0x11fc <mc_dwell+0x7a>
		while(__ticks)
		{
			// wait 1/10 ms
			_delay_loop_2(((F_CPU) / 4e3) / 10);
			__ticks --;
    1200:	61 50       	subi	r22, 0x01	; 1
    1202:	70 40       	sbci	r23, 0x00	; 0
		__ticks = 1;
	else if (__tmp > 65535)
	{
		//	__ticks = requested delay in 1/10 ms
		__ticks = (uint16_t) (__ms * 10.0);
		while(__ticks)
    1204:	61 15       	cp	r22, r1
    1206:	71 05       	cpc	r23, r1
    1208:	c1 f7       	brne	.-16     	; 0x11fa <mc_dwell+0x78>
    120a:	07 c0       	rjmp	.+14     	; 0x121a <mc_dwell+0x98>
			__ticks --;
		}
		return;
	}
	else
		__ticks = (uint16_t)__tmp;
    120c:	c8 01       	movw	r24, r16
    120e:	b7 01       	movw	r22, r14
    1210:	0e 94 ef 1d 	call	0x3bde	; 0x3bde <__fixunssfsi>
    1214:	cb 01       	movw	r24, r22
    1216:	01 97       	sbiw	r24, 0x01	; 1
    1218:	f1 f7       	brne	.-4      	; 0x1216 <mc_dwell+0x94>
}
    121a:	1f 91       	pop	r17
    121c:	0f 91       	pop	r16
    121e:	ff 90       	pop	r15
    1220:	ef 90       	pop	r14
    1222:	df 90       	pop	r13
    1224:	cf 90       	pop	r12
    1226:	bf 90       	pop	r11
    1228:	af 90       	pop	r10
    122a:	08 95       	ret

0000122c <factor_for_safe_speed>:
  );
}

// Calculate a braking factor to reach baseline speed which is max_jerk/2, e.g. the 
// speed under which you cannot exceed max_jerk no matter what you do.
double factor_for_safe_speed(block_t *block) {
    122c:	fc 01       	movw	r30, r24
    122e:	60 91 96 06 	lds	r22, 0x0696
    1232:	70 91 97 06 	lds	r23, 0x0697
    1236:	80 91 98 06 	lds	r24, 0x0698
    123a:	90 91 99 06 	lds	r25, 0x0699
    123e:	21 a5       	ldd	r18, Z+41	; 0x29
    1240:	32 a5       	ldd	r19, Z+42	; 0x2a
    1242:	43 a5       	ldd	r20, Z+43	; 0x2b
    1244:	54 a5       	ldd	r21, Z+44	; 0x2c
    1246:	0e 94 82 1d 	call	0x3b04	; 0x3b04 <__divsf3>
  return(settings.max_jerk/block->nominal_speed);  
}
    124a:	08 95       	ret

0000124c <plan_is_acceleration_manager_enabled>:
  }
}

int plan_is_acceleration_manager_enabled() {
  return(acceleration_manager_enabled);
}
    124c:	80 91 16 05 	lds	r24, 0x0516
    1250:	90 e0       	ldi	r25, 0x00	; 0
    1252:	08 95       	ret

00001254 <plan_discard_current_block>:

 void plan_discard_current_block() {
  if (block_buffer_head != block_buffer_tail) {
    1254:	20 91 02 05 	lds	r18, 0x0502
    1258:	30 91 03 05 	lds	r19, 0x0503
    125c:	80 91 04 05 	lds	r24, 0x0504
    1260:	90 91 05 05 	lds	r25, 0x0505
    1264:	28 17       	cp	r18, r24
    1266:	39 07       	cpc	r19, r25
    1268:	69 f0       	breq	.+26     	; 0x1284 <plan_discard_current_block+0x30>
    block_buffer_tail = (block_buffer_tail + 1) % BLOCK_BUFFER_SIZE;  
    126a:	80 91 04 05 	lds	r24, 0x0504
    126e:	90 91 05 05 	lds	r25, 0x0505
    1272:	01 96       	adiw	r24, 0x01	; 1
    1274:	6a e0       	ldi	r22, 0x0A	; 10
    1276:	70 e0       	ldi	r23, 0x00	; 0
    1278:	0e 94 a8 20 	call	0x4150	; 0x4150 <__divmodhi4>
    127c:	90 93 05 05 	sts	0x0505, r25
    1280:	80 93 04 05 	sts	0x0504, r24
    1284:	08 95       	ret

00001286 <plan_get_current_block>:
  }
}

 block_t *plan_get_current_block() {
  if (block_buffer_head == block_buffer_tail) { return(NULL); }
    1286:	20 91 02 05 	lds	r18, 0x0502
    128a:	30 91 03 05 	lds	r19, 0x0503
    128e:	80 91 04 05 	lds	r24, 0x0504
    1292:	90 91 05 05 	lds	r25, 0x0505
    1296:	28 17       	cp	r18, r24
    1298:	39 07       	cpc	r19, r25
    129a:	19 f4       	brne	.+6      	; 0x12a2 <plan_get_current_block+0x1c>
    129c:	40 e0       	ldi	r20, 0x00	; 0
    129e:	50 e0       	ldi	r21, 0x00	; 0
    12a0:	0f c0       	rjmp	.+30     	; 0x12c0 <plan_get_current_block+0x3a>
  return(&block_buffer[block_buffer_tail]);
    12a2:	20 91 04 05 	lds	r18, 0x0504
    12a6:	30 91 05 05 	lds	r19, 0x0505
    12aa:	89 e4       	ldi	r24, 0x49	; 73
    12ac:	90 e0       	ldi	r25, 0x00	; 0
    12ae:	28 9f       	mul	r18, r24
    12b0:	a0 01       	movw	r20, r0
    12b2:	29 9f       	mul	r18, r25
    12b4:	50 0d       	add	r21, r0
    12b6:	38 9f       	mul	r19, r24
    12b8:	50 0d       	add	r21, r0
    12ba:	11 24       	eor	r1, r1
    12bc:	48 5d       	subi	r20, 0xD8	; 216
    12be:	5d 4f       	sbci	r21, 0xFD	; 253
}
    12c0:	ca 01       	movw	r24, r20
    12c2:	08 95       	ret

000012c4 <planner_forward_pass_kernel>:
  }
  planner_reverse_pass_kernel(NULL, block[0], block[1]);
}

// The kernel called by planner_recalculate() when scanning the plan from first to last entry.
void planner_forward_pass_kernel(block_t *previous, block_t *current, block_t *next) {
    12c4:	4f 92       	push	r4
    12c6:	5f 92       	push	r5
    12c8:	6f 92       	push	r6
    12ca:	7f 92       	push	r7
    12cc:	8f 92       	push	r8
    12ce:	9f 92       	push	r9
    12d0:	af 92       	push	r10
    12d2:	bf 92       	push	r11
    12d4:	cf 92       	push	r12
    12d6:	df 92       	push	r13
    12d8:	ef 92       	push	r14
    12da:	ff 92       	push	r15
    12dc:	0f 93       	push	r16
    12de:	1f 93       	push	r17
    12e0:	cf 93       	push	r28
    12e2:	df 93       	push	r29
    12e4:	ec 01       	movw	r28, r24
    12e6:	4b 01       	movw	r8, r22
  if(!current) { return; }
    12e8:	61 15       	cp	r22, r1
    12ea:	71 05       	cpc	r23, r1
    12ec:	09 f4       	brne	.+2      	; 0x12f0 <planner_forward_pass_kernel+0x2c>
    12ee:	5e c0       	rjmp	.+188    	; 0x13ac <planner_forward_pass_kernel+0xe8>
  if(previous) {
    12f0:	00 97       	sbiw	r24, 0x00	; 0
    12f2:	09 f4       	brne	.+2      	; 0x12f6 <planner_forward_pass_kernel+0x32>
    12f4:	5b c0       	rjmp	.+182    	; 0x13ac <planner_forward_pass_kernel+0xe8>
    // If the previous block is an acceleration block, but it is not long enough to 
    // complete the full speed change within the block, we need to adjust out entry
    // speed accordingly. Remember current->entry_factor equals the exit factor of 
    // the previous block.
    if(previous->entry_factor < current->entry_factor) {
    12f6:	e9 a8       	ldd	r14, Y+49	; 0x31
    12f8:	fa a8       	ldd	r15, Y+50	; 0x32
    12fa:	0b a9       	ldd	r16, Y+51	; 0x33
    12fc:	1c a9       	ldd	r17, Y+52	; 0x34
    12fe:	fb 01       	movw	r30, r22
    1300:	41 a8       	ldd	r4, Z+49	; 0x31
    1302:	52 a8       	ldd	r5, Z+50	; 0x32
    1304:	63 a8       	ldd	r6, Z+51	; 0x33
    1306:	74 a8       	ldd	r7, Z+52	; 0x34
    1308:	c8 01       	movw	r24, r16
    130a:	b7 01       	movw	r22, r14
    130c:	a3 01       	movw	r20, r6
    130e:	92 01       	movw	r18, r4
    1310:	0e 94 7e 1d 	call	0x3afc	; 0x3afc <__cmpsf2>
    1314:	88 23       	and	r24, r24
    1316:	0c f0       	brlt	.+2      	; 0x131a <planner_forward_pass_kernel+0x56>
    1318:	49 c0       	rjmp	.+146    	; 0x13ac <planner_forward_pass_kernel+0xe8>
      double max_entry_speed = max_allowable_speed(-settings.acceleration,
        current->nominal_speed*previous->entry_factor, previous->millimeters);
    131a:	f4 01       	movw	r30, r8
    131c:	a1 a4       	ldd	r10, Z+41	; 0x29
    131e:	b2 a4       	ldd	r11, Z+42	; 0x2a
    1320:	c3 a4       	ldd	r12, Z+43	; 0x2b
    1322:	d4 a4       	ldd	r13, Z+44	; 0x2c
    1324:	c6 01       	movw	r24, r12
    1326:	b5 01       	movw	r22, r10
    1328:	a8 01       	movw	r20, r16
    132a:	97 01       	movw	r18, r14
    132c:	0e 94 b3 1f 	call	0x3f66	; 0x3f66 <__mulsf3>
    1330:	9b 01       	movw	r18, r22
    1332:	ac 01       	movw	r20, r24
}                    

// Calculates the maximum allowable speed at this point when you must be able to reach target_velocity using the 
// acceleration within the allotted distance.
inline double max_allowable_speed(double acceleration, double target_velocity, double distance) {
  return(
    1334:	0e 94 b3 1f 	call	0x3f66	; 0x3f66 <__mulsf3>
    1338:	7b 01       	movw	r14, r22
    133a:	8c 01       	movw	r16, r24
    133c:	20 91 92 06 	lds	r18, 0x0692
    1340:	30 91 93 06 	lds	r19, 0x0693
    1344:	40 91 94 06 	lds	r20, 0x0694
    1348:	50 91 95 06 	lds	r21, 0x0695
    134c:	50 58       	subi	r21, 0x80	; 128
    134e:	ca 01       	movw	r24, r20
    1350:	b9 01       	movw	r22, r18
    1352:	0e 94 df 1c 	call	0x39be	; 0x39be <__addsf3>
    1356:	20 e0       	ldi	r18, 0x00	; 0
    1358:	30 e0       	ldi	r19, 0x00	; 0
    135a:	40 e7       	ldi	r20, 0x70	; 112
    135c:	52 e4       	ldi	r21, 0x42	; 66
    135e:	0e 94 b3 1f 	call	0x3f66	; 0x3f66 <__mulsf3>
    1362:	20 e0       	ldi	r18, 0x00	; 0
    1364:	30 e0       	ldi	r19, 0x00	; 0
    1366:	40 e7       	ldi	r20, 0x70	; 112
    1368:	52 ec       	ldi	r21, 0xC2	; 194
    136a:	0e 94 b3 1f 	call	0x3f66	; 0x3f66 <__mulsf3>
    136e:	2d a5       	ldd	r18, Y+45	; 0x2d
    1370:	3e a5       	ldd	r19, Y+46	; 0x2e
    1372:	4f a5       	ldd	r20, Y+47	; 0x2f
    1374:	58 a9       	ldd	r21, Y+48	; 0x30
    1376:	0e 94 b3 1f 	call	0x3f66	; 0x3f66 <__mulsf3>
    137a:	9b 01       	movw	r18, r22
    137c:	ac 01       	movw	r20, r24
    137e:	c8 01       	movw	r24, r16
    1380:	b7 01       	movw	r22, r14
    1382:	0e 94 df 1c 	call	0x39be	; 0x39be <__addsf3>
    1386:	0e 94 3a 20 	call	0x4074	; 0x4074 <sqrt>
    // speed accordingly. Remember current->entry_factor equals the exit factor of 
    // the previous block.
    if(previous->entry_factor < current->entry_factor) {
      double max_entry_speed = max_allowable_speed(-settings.acceleration,
        current->nominal_speed*previous->entry_factor, previous->millimeters);
      double max_entry_factor = max_entry_speed/current->nominal_speed;
    138a:	a6 01       	movw	r20, r12
    138c:	95 01       	movw	r18, r10
    138e:	0e 94 82 1d 	call	0x3b04	; 0x3b04 <__divsf3>
    1392:	7b 01       	movw	r14, r22
    1394:	8c 01       	movw	r16, r24
      if (max_entry_factor < current->entry_factor) {
    1396:	a3 01       	movw	r20, r6
    1398:	92 01       	movw	r18, r4
    139a:	0e 94 7e 1d 	call	0x3afc	; 0x3afc <__cmpsf2>
    139e:	88 23       	and	r24, r24
    13a0:	2c f4       	brge	.+10     	; 0x13ac <planner_forward_pass_kernel+0xe8>
        current->entry_factor = max_entry_factor;
    13a2:	f4 01       	movw	r30, r8
    13a4:	e1 aa       	std	Z+49, r14	; 0x31
    13a6:	f2 aa       	std	Z+50, r15	; 0x32
    13a8:	03 ab       	std	Z+51, r16	; 0x33
    13aa:	14 ab       	std	Z+52, r17	; 0x34
      }
    }
  }
}
    13ac:	df 91       	pop	r29
    13ae:	cf 91       	pop	r28
    13b0:	1f 91       	pop	r17
    13b2:	0f 91       	pop	r16
    13b4:	ff 90       	pop	r15
    13b6:	ef 90       	pop	r14
    13b8:	df 90       	pop	r13
    13ba:	cf 90       	pop	r12
    13bc:	bf 90       	pop	r11
    13be:	af 90       	pop	r10
    13c0:	9f 90       	pop	r9
    13c2:	8f 90       	pop	r8
    13c4:	7f 90       	pop	r7
    13c6:	6f 90       	pop	r6
    13c8:	5f 90       	pop	r5
    13ca:	4f 90       	pop	r4
    13cc:	08 95       	ret

000013ce <planner_forward_pass>:

// planner_recalculate() needs to go over the current plan twice. Once in reverse and once forward. This 
// implements the forward pass.
void planner_forward_pass() {
    13ce:	ef 92       	push	r14
    13d0:	ff 92       	push	r15
    13d2:	0f 93       	push	r16
    13d4:	1f 93       	push	r17
    13d6:	cf 93       	push	r28
    13d8:	df 93       	push	r29
  int8_t block_index = block_buffer_tail;
    13da:	80 91 04 05 	lds	r24, 0x0504
    13de:	90 91 05 05 	lds	r25, 0x0505
    13e2:	48 2f       	mov	r20, r24
    13e4:	c0 e0       	ldi	r28, 0x00	; 0
    13e6:	d0 e0       	ldi	r29, 0x00	; 0
    13e8:	20 e0       	ldi	r18, 0x00	; 0
    13ea:	30 e0       	ldi	r19, 0x00	; 0
    13ec:	14 c0       	rjmp	.+40     	; 0x1416 <planner_forward_pass+0x48>
  block_t *block[3] = {NULL, NULL, NULL};
  
  while(block_index != block_buffer_head) {
    block[0] = block[1];
    block[1] = block[2];
    block[2] = &block_buffer[block_index];
    13ee:	89 e4       	ldi	r24, 0x49	; 73
    13f0:	48 02       	muls	r20, r24
    13f2:	80 01       	movw	r16, r0
    13f4:	11 24       	eor	r1, r1
    13f6:	08 5d       	subi	r16, 0xD8	; 216
    13f8:	1d 4f       	sbci	r17, 0xFD	; 253
    planner_forward_pass_kernel(block[0],block[1],block[2]);
    13fa:	c9 01       	movw	r24, r18
    13fc:	be 01       	movw	r22, r28
    13fe:	a8 01       	movw	r20, r16
    1400:	0e 94 62 09 	call	0x12c4	; 0x12c4 <planner_forward_pass_kernel>
    block_index = (block_index+1) % BLOCK_BUFFER_SIZE;
    1404:	c7 01       	movw	r24, r14
    1406:	01 96       	adiw	r24, 0x01	; 1
    1408:	6a e0       	ldi	r22, 0x0A	; 10
    140a:	70 e0       	ldi	r23, 0x00	; 0
    140c:	0e 94 a8 20 	call	0x4150	; 0x4150 <__divmodhi4>
    1410:	48 2f       	mov	r20, r24
    1412:	9e 01       	movw	r18, r28
    1414:	e8 01       	movw	r28, r16
// implements the forward pass.
void planner_forward_pass() {
  int8_t block_index = block_buffer_tail;
  block_t *block[3] = {NULL, NULL, NULL};
  
  while(block_index != block_buffer_head) {
    1416:	e4 2e       	mov	r14, r20
    1418:	ff 24       	eor	r15, r15
    141a:	e7 fc       	sbrc	r14, 7
    141c:	f0 94       	com	r15
    141e:	80 91 02 05 	lds	r24, 0x0502
    1422:	90 91 03 05 	lds	r25, 0x0503
    1426:	e8 16       	cp	r14, r24
    1428:	f9 06       	cpc	r15, r25
    142a:	09 f7       	brne	.-62     	; 0x13ee <planner_forward_pass+0x20>
    block[1] = block[2];
    block[2] = &block_buffer[block_index];
    planner_forward_pass_kernel(block[0],block[1],block[2]);
    block_index = (block_index+1) % BLOCK_BUFFER_SIZE;
  }
  planner_forward_pass_kernel(block[1], block[2], NULL);
    142c:	c9 01       	movw	r24, r18
    142e:	be 01       	movw	r22, r28
    1430:	40 e0       	ldi	r20, 0x00	; 0
    1432:	50 e0       	ldi	r21, 0x00	; 0
    1434:	0e 94 62 09 	call	0x12c4	; 0x12c4 <planner_forward_pass_kernel>
}
    1438:	df 91       	pop	r29
    143a:	cf 91       	pop	r28
    143c:	1f 91       	pop	r17
    143e:	0f 91       	pop	r16
    1440:	ff 90       	pop	r15
    1442:	ef 90       	pop	r14
    1444:	08 95       	ret

00001446 <plan_set_current>:
 block_t *plan_get_current_block() {
  if (block_buffer_head == block_buffer_tail) { return(NULL); }
  return(&block_buffer[block_buffer_tail]);
}

void plan_set_current(double x, double y, double z, double c) {
    1446:	2f 92       	push	r2
    1448:	3f 92       	push	r3
    144a:	4f 92       	push	r4
    144c:	5f 92       	push	r5
    144e:	6f 92       	push	r6
    1450:	7f 92       	push	r7
    1452:	8f 92       	push	r8
    1454:	9f 92       	push	r9
    1456:	af 92       	push	r10
    1458:	bf 92       	push	r11
    145a:	cf 92       	push	r12
    145c:	df 92       	push	r13
    145e:	ef 92       	push	r14
    1460:	ff 92       	push	r15
    1462:	0f 93       	push	r16
    1464:	1f 93       	push	r17
    1466:	3b 01       	movw	r6, r22
    1468:	4c 01       	movw	r8, r24
    146a:	19 01       	movw	r2, r18
    146c:	2a 01       	movw	r4, r20
	st_synchronize();
    146e:	0e 94 79 16 	call	0x2cf2	; 0x2cf2 <st_synchronize>
    position[X_AXIS] = lround(x*settings.steps_per_mm[X_AXIS]);
    1472:	c4 01       	movw	r24, r8
    1474:	b3 01       	movw	r22, r6
    1476:	20 91 74 06 	lds	r18, 0x0674
    147a:	30 91 75 06 	lds	r19, 0x0675
    147e:	40 91 76 06 	lds	r20, 0x0676
    1482:	50 91 77 06 	lds	r21, 0x0677
    1486:	0e 94 b3 1f 	call	0x3f66	; 0x3f66 <__mulsf3>
    148a:	0e 94 50 1f 	call	0x3ea0	; 0x3ea0 <lround>
    148e:	26 e0       	ldi	r18, 0x06	; 6
    1490:	82 2e       	mov	r8, r18
    1492:	25 e0       	ldi	r18, 0x05	; 5
    1494:	92 2e       	mov	r9, r18
    1496:	60 93 06 05 	sts	0x0506, r22
    149a:	70 93 07 05 	sts	0x0507, r23
    149e:	80 93 08 05 	sts	0x0508, r24
    14a2:	90 93 09 05 	sts	0x0509, r25
    position[Y_AXIS] = lround(y*settings.steps_per_mm[Y_AXIS]);
    14a6:	c2 01       	movw	r24, r4
    14a8:	b1 01       	movw	r22, r2
    14aa:	20 91 78 06 	lds	r18, 0x0678
    14ae:	30 91 79 06 	lds	r19, 0x0679
    14b2:	40 91 7a 06 	lds	r20, 0x067A
    14b6:	50 91 7b 06 	lds	r21, 0x067B
    14ba:	0e 94 b3 1f 	call	0x3f66	; 0x3f66 <__mulsf3>
    14be:	0e 94 50 1f 	call	0x3ea0	; 0x3ea0 <lround>
    14c2:	f4 01       	movw	r30, r8
    14c4:	34 96       	adiw	r30, 0x04	; 4
    14c6:	60 93 0a 05 	sts	0x050A, r22
    14ca:	71 83       	std	Z+1, r23	; 0x01
    14cc:	82 83       	std	Z+2, r24	; 0x02
    14ce:	93 83       	std	Z+3, r25	; 0x03
    position[Z_AXIS] = lround(z*settings.steps_per_mm[Z_AXIS]);     
    14d0:	c8 01       	movw	r24, r16
    14d2:	b7 01       	movw	r22, r14
    14d4:	20 91 7c 06 	lds	r18, 0x067C
    14d8:	30 91 7d 06 	lds	r19, 0x067D
    14dc:	40 91 7e 06 	lds	r20, 0x067E
    14e0:	50 91 7f 06 	lds	r21, 0x067F
    14e4:	0e 94 b3 1f 	call	0x3f66	; 0x3f66 <__mulsf3>
    14e8:	0e 94 50 1f 	call	0x3ea0	; 0x3ea0 <lround>
    14ec:	f4 01       	movw	r30, r8
    14ee:	38 96       	adiw	r30, 0x08	; 8
    14f0:	60 93 0e 05 	sts	0x050E, r22
    14f4:	71 83       	std	Z+1, r23	; 0x01
    14f6:	82 83       	std	Z+2, r24	; 0x02
    14f8:	93 83       	std	Z+3, r25	; 0x03
    position[C_AXIS] = lround(c*settings.steps_per_mm[C_AXIS]);     
    14fa:	c6 01       	movw	r24, r12
    14fc:	b5 01       	movw	r22, r10
    14fe:	20 91 80 06 	lds	r18, 0x0680
    1502:	30 91 81 06 	lds	r19, 0x0681
    1506:	40 91 82 06 	lds	r20, 0x0682
    150a:	50 91 83 06 	lds	r21, 0x0683
    150e:	0e 94 b3 1f 	call	0x3f66	; 0x3f66 <__mulsf3>
    1512:	0e 94 50 1f 	call	0x3ea0	; 0x3ea0 <lround>
    1516:	2c e0       	ldi	r18, 0x0C	; 12
    1518:	30 e0       	ldi	r19, 0x00	; 0
    151a:	82 0e       	add	r8, r18
    151c:	93 1e       	adc	r9, r19
    151e:	60 93 12 05 	sts	0x0512, r22
    1522:	f4 01       	movw	r30, r8
    1524:	71 83       	std	Z+1, r23	; 0x01
    1526:	82 83       	std	Z+2, r24	; 0x02
    1528:	93 83       	std	Z+3, r25	; 0x03
}
    152a:	1f 91       	pop	r17
    152c:	0f 91       	pop	r16
    152e:	ff 90       	pop	r15
    1530:	ef 90       	pop	r14
    1532:	df 90       	pop	r13
    1534:	cf 90       	pop	r12
    1536:	bf 90       	pop	r11
    1538:	af 90       	pop	r10
    153a:	9f 90       	pop	r9
    153c:	8f 90       	pop	r8
    153e:	7f 90       	pop	r7
    1540:	6f 90       	pop	r6
    1542:	5f 90       	pop	r5
    1544:	4f 90       	pop	r4
    1546:	3f 90       	pop	r3
    1548:	2f 90       	pop	r2
    154a:	08 95       	ret

0000154c <plan_set_acceleration_manager_enabled>:
  block_buffer_tail = 0;
  plan_set_acceleration_manager_enabled(TRUE);
  clear_vector(position);
}

void plan_set_acceleration_manager_enabled(int enabled) {
    154c:	cf 93       	push	r28
    154e:	df 93       	push	r29
    1550:	ec 01       	movw	r28, r24
  if ((!!acceleration_manager_enabled) != (!!enabled)) {
    1552:	90 e0       	ldi	r25, 0x00	; 0
    1554:	80 91 16 05 	lds	r24, 0x0516
    1558:	81 11       	cpse	r24, r1
    155a:	91 e0       	ldi	r25, 0x01	; 1
    155c:	80 e0       	ldi	r24, 0x00	; 0
    155e:	20 97       	sbiw	r28, 0x00	; 0
    1560:	09 f0       	breq	.+2      	; 0x1564 <plan_set_acceleration_manager_enabled+0x18>
    1562:	81 e0       	ldi	r24, 0x01	; 1
    1564:	98 17       	cp	r25, r24
    1566:	49 f0       	breq	.+18     	; 0x157a <plan_set_acceleration_manager_enabled+0x2e>
    st_synchronize();
    1568:	0e 94 79 16 	call	0x2cf2	; 0x2cf2 <st_synchronize>
    acceleration_manager_enabled = !!enabled;
    156c:	10 92 16 05 	sts	0x0516, r1
    1570:	cd 2b       	or	r28, r29
    1572:	19 f0       	breq	.+6      	; 0x157a <plan_set_acceleration_manager_enabled+0x2e>
    1574:	81 e0       	ldi	r24, 0x01	; 1
    1576:	80 93 16 05 	sts	0x0516, r24
  }
}
    157a:	df 91       	pop	r29
    157c:	cf 91       	pop	r28
    157e:	08 95       	ret

00001580 <plan_init>:
  planner_forward_pass();
  planner_recalculate_trapezoids();
}

void plan_init() {
  block_buffer_head = 0;
    1580:	10 92 03 05 	sts	0x0503, r1
    1584:	10 92 02 05 	sts	0x0502, r1
  block_buffer_tail = 0;
    1588:	10 92 05 05 	sts	0x0505, r1
    158c:	10 92 04 05 	sts	0x0504, r1
  plan_set_acceleration_manager_enabled(TRUE);
    1590:	81 e0       	ldi	r24, 0x01	; 1
    1592:	90 e0       	ldi	r25, 0x00	; 0
    1594:	0e 94 a6 0a 	call	0x154c	; 0x154c <plan_set_acceleration_manager_enabled>
  clear_vector(position);
    1598:	80 e1       	ldi	r24, 0x10	; 16
    159a:	e6 e0       	ldi	r30, 0x06	; 6
    159c:	f5 e0       	ldi	r31, 0x05	; 5
    159e:	df 01       	movw	r26, r30
    15a0:	1d 92       	st	X+, r1
    15a2:	8a 95       	dec	r24
    15a4:	e9 f7       	brne	.-6      	; 0x15a0 <plan_init+0x20>
}
    15a6:	08 95       	ret

000015a8 <planner_reverse_pass_kernel>:
double factor_for_safe_speed(block_t *block) {
  return(settings.max_jerk/block->nominal_speed);  
}

// The kernel called by planner_recalculate() when scanning the plan from last to first entry.
void planner_reverse_pass_kernel(block_t *previous, block_t *current, block_t *next) {
    15a8:	2f 92       	push	r2
    15aa:	3f 92       	push	r3
    15ac:	4f 92       	push	r4
    15ae:	5f 92       	push	r5
    15b0:	6f 92       	push	r6
    15b2:	7f 92       	push	r7
    15b4:	8f 92       	push	r8
    15b6:	9f 92       	push	r9
    15b8:	af 92       	push	r10
    15ba:	bf 92       	push	r11
    15bc:	cf 92       	push	r12
    15be:	df 92       	push	r13
    15c0:	ef 92       	push	r14
    15c2:	ff 92       	push	r15
    15c4:	0f 93       	push	r16
    15c6:	1f 93       	push	r17
    15c8:	df 93       	push	r29
    15ca:	cf 93       	push	r28
    15cc:	00 d0       	rcall	.+0      	; 0x15ce <planner_reverse_pass_kernel+0x26>
    15ce:	00 d0       	rcall	.+0      	; 0x15d0 <planner_reverse_pass_kernel+0x28>
    15d0:	cd b7       	in	r28, 0x3d	; 61
    15d2:	de b7       	in	r29, 0x3e	; 62
    15d4:	8c 01       	movw	r16, r24
    15d6:	7e 83       	std	Y+6, r23	; 0x06
    15d8:	6d 83       	std	Y+5, r22	; 0x05
  if(!current) { return; }
    15da:	67 2b       	or	r22, r23
    15dc:	09 f4       	brne	.+2      	; 0x15e0 <planner_reverse_pass_kernel+0x38>
    15de:	07 c1       	rjmp	.+526    	; 0x17ee <planner_reverse_pass_kernel+0x246>

  double entry_factor = 1.0;
  double exit_factor;
  if (next) {
    15e0:	41 15       	cp	r20, r1
    15e2:	51 05       	cpc	r21, r1
    15e4:	61 f0       	breq	.+24     	; 0x15fe <planner_reverse_pass_kernel+0x56>
    exit_factor = next->entry_factor;
    15e6:	da 01       	movw	r26, r20
    15e8:	d1 96       	adiw	r26, 0x31	; 49
    15ea:	8d 91       	ld	r24, X+
    15ec:	9d 91       	ld	r25, X+
    15ee:	0d 90       	ld	r0, X+
    15f0:	bc 91       	ld	r27, X
    15f2:	a0 2d       	mov	r26, r0
    15f4:	89 83       	std	Y+1, r24	; 0x01
    15f6:	9a 83       	std	Y+2, r25	; 0x02
    15f8:	ab 83       	std	Y+3, r26	; 0x03
    15fa:	bc 83       	std	Y+4, r27	; 0x04
    15fc:	08 c0       	rjmp	.+16     	; 0x160e <planner_reverse_pass_kernel+0x66>
  } else {
    exit_factor = factor_for_safe_speed(current);
    15fe:	8d 81       	ldd	r24, Y+5	; 0x05
    1600:	9e 81       	ldd	r25, Y+6	; 0x06
    1602:	0e 94 16 09 	call	0x122c	; 0x122c <factor_for_safe_speed>
    1606:	69 83       	std	Y+1, r22	; 0x01
    1608:	7a 83       	std	Y+2, r23	; 0x02
    160a:	8b 83       	std	Y+3, r24	; 0x03
    160c:	9c 83       	std	Y+4, r25	; 0x04
  }
  
  // Calculate the entry_factor for the current block. 
  if (previous) {
    160e:	01 15       	cp	r16, r1
    1610:	11 05       	cpc	r17, r1
    1612:	09 f4       	brne	.+2      	; 0x1616 <planner_reverse_pass_kernel+0x6e>
    1614:	e0 c0       	rjmp	.+448    	; 0x17d6 <planner_reverse_pass_kernel+0x22e>

// "Junction jerk" in this context is the immediate change in speed at the junction of two blocks.
// This method will calculate the junction jerk as the euclidean distance between the nominal 
// velocities of the respective blocks.
inline double junction_jerk(block_t *before, block_t *after) {
  return(sqrt(
    1616:	f8 01       	movw	r30, r16
    1618:	61 8d       	ldd	r22, Z+25	; 0x19
    161a:	72 8d       	ldd	r23, Z+26	; 0x1a
    161c:	83 8d       	ldd	r24, Z+27	; 0x1b
    161e:	94 8d       	ldd	r25, Z+28	; 0x1c
    1620:	ad 81       	ldd	r26, Y+5	; 0x05
    1622:	be 81       	ldd	r27, Y+6	; 0x06
    1624:	59 96       	adiw	r26, 0x19	; 25
    1626:	2d 91       	ld	r18, X+
    1628:	3d 91       	ld	r19, X+
    162a:	4d 91       	ld	r20, X+
    162c:	5c 91       	ld	r21, X
    162e:	5c 97       	sbiw	r26, 0x1c	; 28
    1630:	0e 94 de 1c 	call	0x39bc	; 0x39bc <__subsf3>
    1634:	9b 01       	movw	r18, r22
    1636:	ac 01       	movw	r20, r24
    1638:	0e 94 b3 1f 	call	0x3f66	; 0x3f66 <__mulsf3>
    163c:	1b 01       	movw	r2, r22
    163e:	2c 01       	movw	r4, r24
    1640:	f8 01       	movw	r30, r16
    1642:	65 8d       	ldd	r22, Z+29	; 0x1d
    1644:	76 8d       	ldd	r23, Z+30	; 0x1e
    1646:	87 8d       	ldd	r24, Z+31	; 0x1f
    1648:	90 a1       	ldd	r25, Z+32	; 0x20
    164a:	ad 81       	ldd	r26, Y+5	; 0x05
    164c:	be 81       	ldd	r27, Y+6	; 0x06
    164e:	5d 96       	adiw	r26, 0x1d	; 29
    1650:	2d 91       	ld	r18, X+
    1652:	3d 91       	ld	r19, X+
    1654:	4d 91       	ld	r20, X+
    1656:	5c 91       	ld	r21, X
    1658:	90 97       	sbiw	r26, 0x20	; 32
    165a:	0e 94 de 1c 	call	0x39bc	; 0x39bc <__subsf3>
    165e:	9b 01       	movw	r18, r22
    1660:	ac 01       	movw	r20, r24
    1662:	0e 94 b3 1f 	call	0x3f66	; 0x3f66 <__mulsf3>
    1666:	3b 01       	movw	r6, r22
    1668:	4c 01       	movw	r8, r24
    166a:	f8 01       	movw	r30, r16
    166c:	61 a1       	ldd	r22, Z+33	; 0x21
    166e:	72 a1       	ldd	r23, Z+34	; 0x22
    1670:	83 a1       	ldd	r24, Z+35	; 0x23
    1672:	94 a1       	ldd	r25, Z+36	; 0x24
    1674:	ad 81       	ldd	r26, Y+5	; 0x05
    1676:	be 81       	ldd	r27, Y+6	; 0x06
    1678:	91 96       	adiw	r26, 0x21	; 33
    167a:	2d 91       	ld	r18, X+
    167c:	3d 91       	ld	r19, X+
    167e:	4d 91       	ld	r20, X+
    1680:	5c 91       	ld	r21, X
    1682:	94 97       	sbiw	r26, 0x24	; 36
    1684:	0e 94 de 1c 	call	0x39bc	; 0x39bc <__subsf3>
    1688:	9b 01       	movw	r18, r22
    168a:	ac 01       	movw	r20, r24
    168c:	0e 94 b3 1f 	call	0x3f66	; 0x3f66 <__mulsf3>
    1690:	5b 01       	movw	r10, r22
    1692:	6c 01       	movw	r12, r24
    1694:	f8 01       	movw	r30, r16
    1696:	65 a1       	ldd	r22, Z+37	; 0x25
    1698:	76 a1       	ldd	r23, Z+38	; 0x26
    169a:	87 a1       	ldd	r24, Z+39	; 0x27
    169c:	90 a5       	ldd	r25, Z+40	; 0x28
    169e:	ad 81       	ldd	r26, Y+5	; 0x05
    16a0:	be 81       	ldd	r27, Y+6	; 0x06
    16a2:	95 96       	adiw	r26, 0x25	; 37
    16a4:	2d 91       	ld	r18, X+
    16a6:	3d 91       	ld	r19, X+
    16a8:	4d 91       	ld	r20, X+
    16aa:	5c 91       	ld	r21, X
    16ac:	98 97       	sbiw	r26, 0x28	; 40
    16ae:	0e 94 de 1c 	call	0x39bc	; 0x39bc <__subsf3>
    16b2:	9b 01       	movw	r18, r22
    16b4:	ac 01       	movw	r20, r24
    16b6:	0e 94 b3 1f 	call	0x3f66	; 0x3f66 <__mulsf3>
    16ba:	7b 01       	movw	r14, r22
    16bc:	8c 01       	movw	r16, r24
    16be:	c2 01       	movw	r24, r4
    16c0:	b1 01       	movw	r22, r2
    16c2:	a4 01       	movw	r20, r8
    16c4:	93 01       	movw	r18, r6
    16c6:	0e 94 df 1c 	call	0x39be	; 0x39be <__addsf3>
    16ca:	a6 01       	movw	r20, r12
    16cc:	95 01       	movw	r18, r10
    16ce:	0e 94 df 1c 	call	0x39be	; 0x39be <__addsf3>
    16d2:	a8 01       	movw	r20, r16
    16d4:	97 01       	movw	r18, r14
    16d6:	0e 94 df 1c 	call	0x39be	; 0x39be <__addsf3>
    16da:	0e 94 3a 20 	call	0x4074	; 0x4074 <sqrt>
    16de:	5b 01       	movw	r10, r22
    16e0:	6c 01       	movw	r12, r24
  
  // Calculate the entry_factor for the current block. 
  if (previous) {
    // Reduce speed so that junction_jerk is within the maximum allowed
    double jerk = junction_jerk(previous, current);
    if (jerk > settings.max_jerk) {
    16e2:	e0 90 96 06 	lds	r14, 0x0696
    16e6:	f0 90 97 06 	lds	r15, 0x0697
    16ea:	00 91 98 06 	lds	r16, 0x0698
    16ee:	10 91 99 06 	lds	r17, 0x0699
    16f2:	a8 01       	movw	r20, r16
    16f4:	97 01       	movw	r18, r14
    16f6:	0e 94 45 1f 	call	0x3e8a	; 0x3e8a <__gesf2>
    16fa:	18 16       	cp	r1, r24
    16fc:	5c f0       	brlt	.+22     	; 0x1714 <planner_reverse_pass_kernel+0x16c>
    16fe:	0f 2e       	mov	r0, r31
    1700:	f0 e0       	ldi	r31, 0x00	; 0
    1702:	6f 2e       	mov	r6, r31
    1704:	f0 e0       	ldi	r31, 0x00	; 0
    1706:	7f 2e       	mov	r7, r31
    1708:	f0 e8       	ldi	r31, 0x80	; 128
    170a:	8f 2e       	mov	r8, r31
    170c:	ff e3       	ldi	r31, 0x3F	; 63
    170e:	9f 2e       	mov	r9, r31
    1710:	f0 2d       	mov	r31, r0
    1712:	08 c0       	rjmp	.+16     	; 0x1724 <planner_reverse_pass_kernel+0x17c>
      entry_factor = (settings.max_jerk/jerk);
    1714:	c8 01       	movw	r24, r16
    1716:	b7 01       	movw	r22, r14
    1718:	a6 01       	movw	r20, r12
    171a:	95 01       	movw	r18, r10
    171c:	0e 94 82 1d 	call	0x3b04	; 0x3b04 <__divsf3>
    1720:	3b 01       	movw	r6, r22
    1722:	4c 01       	movw	r8, r24
    } 
    // If the required deceleration across the block is too rapid, reduce the entry_factor accordingly.
    if (entry_factor > exit_factor) {
    1724:	c4 01       	movw	r24, r8
    1726:	b3 01       	movw	r22, r6
    1728:	29 81       	ldd	r18, Y+1	; 0x01
    172a:	3a 81       	ldd	r19, Y+2	; 0x02
    172c:	4b 81       	ldd	r20, Y+3	; 0x03
    172e:	5c 81       	ldd	r21, Y+4	; 0x04
    1730:	0e 94 45 1f 	call	0x3e8a	; 0x3e8a <__gesf2>
    1734:	18 16       	cp	r1, r24
    1736:	0c f0       	brlt	.+2      	; 0x173a <planner_reverse_pass_kernel+0x192>
    1738:	54 c0       	rjmp	.+168    	; 0x17e2 <planner_reverse_pass_kernel+0x23a>
      double max_entry_speed = max_allowable_speed(-settings.acceleration,current->nominal_speed*exit_factor, 
        current->millimeters);
    173a:	ed 81       	ldd	r30, Y+5	; 0x05
    173c:	fe 81       	ldd	r31, Y+6	; 0x06
    173e:	a1 a4       	ldd	r10, Z+41	; 0x29
    1740:	b2 a4       	ldd	r11, Z+42	; 0x2a
    1742:	c3 a4       	ldd	r12, Z+43	; 0x2b
    1744:	d4 a4       	ldd	r13, Z+44	; 0x2c
    1746:	c6 01       	movw	r24, r12
    1748:	b5 01       	movw	r22, r10
    174a:	29 81       	ldd	r18, Y+1	; 0x01
    174c:	3a 81       	ldd	r19, Y+2	; 0x02
    174e:	4b 81       	ldd	r20, Y+3	; 0x03
    1750:	5c 81       	ldd	r21, Y+4	; 0x04
    1752:	0e 94 b3 1f 	call	0x3f66	; 0x3f66 <__mulsf3>
    1756:	9b 01       	movw	r18, r22
    1758:	ac 01       	movw	r20, r24
}                    

// Calculates the maximum allowable speed at this point when you must be able to reach target_velocity using the 
// acceleration within the allotted distance.
inline double max_allowable_speed(double acceleration, double target_velocity, double distance) {
  return(
    175a:	0e 94 b3 1f 	call	0x3f66	; 0x3f66 <__mulsf3>
    175e:	7b 01       	movw	r14, r22
    1760:	8c 01       	movw	r16, r24
    1762:	20 91 92 06 	lds	r18, 0x0692
    1766:	30 91 93 06 	lds	r19, 0x0693
    176a:	40 91 94 06 	lds	r20, 0x0694
    176e:	50 91 95 06 	lds	r21, 0x0695
    1772:	50 58       	subi	r21, 0x80	; 128
    1774:	ca 01       	movw	r24, r20
    1776:	b9 01       	movw	r22, r18
    1778:	0e 94 df 1c 	call	0x39be	; 0x39be <__addsf3>
    177c:	20 e0       	ldi	r18, 0x00	; 0
    177e:	30 e0       	ldi	r19, 0x00	; 0
    1780:	40 e7       	ldi	r20, 0x70	; 112
    1782:	52 e4       	ldi	r21, 0x42	; 66
    1784:	0e 94 b3 1f 	call	0x3f66	; 0x3f66 <__mulsf3>
    1788:	20 e0       	ldi	r18, 0x00	; 0
    178a:	30 e0       	ldi	r19, 0x00	; 0
    178c:	40 e7       	ldi	r20, 0x70	; 112
    178e:	52 ec       	ldi	r21, 0xC2	; 194
    1790:	0e 94 b3 1f 	call	0x3f66	; 0x3f66 <__mulsf3>
    1794:	ad 81       	ldd	r26, Y+5	; 0x05
    1796:	be 81       	ldd	r27, Y+6	; 0x06
    1798:	9d 96       	adiw	r26, 0x2d	; 45
    179a:	2d 91       	ld	r18, X+
    179c:	3d 91       	ld	r19, X+
    179e:	4d 91       	ld	r20, X+
    17a0:	5c 91       	ld	r21, X
    17a2:	d0 97       	sbiw	r26, 0x30	; 48
    17a4:	0e 94 b3 1f 	call	0x3f66	; 0x3f66 <__mulsf3>
    17a8:	9b 01       	movw	r18, r22
    17aa:	ac 01       	movw	r20, r24
    17ac:	c8 01       	movw	r24, r16
    17ae:	b7 01       	movw	r22, r14
    17b0:	0e 94 df 1c 	call	0x39be	; 0x39be <__addsf3>
    17b4:	0e 94 3a 20 	call	0x4074	; 0x4074 <sqrt>
    } 
    // If the required deceleration across the block is too rapid, reduce the entry_factor accordingly.
    if (entry_factor > exit_factor) {
      double max_entry_speed = max_allowable_speed(-settings.acceleration,current->nominal_speed*exit_factor, 
        current->millimeters);
      double max_entry_factor = max_entry_speed/current->nominal_speed;
    17b8:	a6 01       	movw	r20, r12
    17ba:	95 01       	movw	r18, r10
    17bc:	0e 94 82 1d 	call	0x3b04	; 0x3b04 <__divsf3>
    17c0:	7b 01       	movw	r14, r22
    17c2:	8c 01       	movw	r16, r24
      if (max_entry_factor < entry_factor) {
    17c4:	a4 01       	movw	r20, r8
    17c6:	93 01       	movw	r18, r6
    17c8:	0e 94 7e 1d 	call	0x3afc	; 0x3afc <__cmpsf2>
    17cc:	88 23       	and	r24, r24
    17ce:	4c f4       	brge	.+18     	; 0x17e2 <planner_reverse_pass_kernel+0x23a>
    17d0:	37 01       	movw	r6, r14
    17d2:	48 01       	movw	r8, r16
    17d4:	06 c0       	rjmp	.+12     	; 0x17e2 <planner_reverse_pass_kernel+0x23a>
        entry_factor = max_entry_factor;
      }
    }    
  } else {
    entry_factor = factor_for_safe_speed(current);
    17d6:	8d 81       	ldd	r24, Y+5	; 0x05
    17d8:	9e 81       	ldd	r25, Y+6	; 0x06
    17da:	0e 94 16 09 	call	0x122c	; 0x122c <factor_for_safe_speed>
    17de:	3b 01       	movw	r6, r22
    17e0:	4c 01       	movw	r8, r24
  }
    
  // Store result
  current->entry_factor = entry_factor;
    17e2:	ed 81       	ldd	r30, Y+5	; 0x05
    17e4:	fe 81       	ldd	r31, Y+6	; 0x06
    17e6:	61 aa       	std	Z+49, r6	; 0x31
    17e8:	72 aa       	std	Z+50, r7	; 0x32
    17ea:	83 aa       	std	Z+51, r8	; 0x33
    17ec:	94 aa       	std	Z+52, r9	; 0x34
}
    17ee:	26 96       	adiw	r28, 0x06	; 6
    17f0:	0f b6       	in	r0, 0x3f	; 63
    17f2:	f8 94       	cli
    17f4:	de bf       	out	0x3e, r29	; 62
    17f6:	0f be       	out	0x3f, r0	; 63
    17f8:	cd bf       	out	0x3d, r28	; 61
    17fa:	cf 91       	pop	r28
    17fc:	df 91       	pop	r29
    17fe:	1f 91       	pop	r17
    1800:	0f 91       	pop	r16
    1802:	ff 90       	pop	r15
    1804:	ef 90       	pop	r14
    1806:	df 90       	pop	r13
    1808:	cf 90       	pop	r12
    180a:	bf 90       	pop	r11
    180c:	af 90       	pop	r10
    180e:	9f 90       	pop	r9
    1810:	8f 90       	pop	r8
    1812:	7f 90       	pop	r7
    1814:	6f 90       	pop	r6
    1816:	5f 90       	pop	r5
    1818:	4f 90       	pop	r4
    181a:	3f 90       	pop	r3
    181c:	2f 90       	pop	r2
    181e:	08 95       	ret

00001820 <planner_reverse_pass>:

// planner_recalculate() needs to go over the current plan twice. Once in reverse and once forward. This 
// implements the reverse pass.
void planner_reverse_pass() {
    1820:	ff 92       	push	r15
    1822:	0f 93       	push	r16
    1824:	1f 93       	push	r17
    1826:	cf 93       	push	r28
    1828:	df 93       	push	r29
  auto int8_t block_index = block_buffer_head;
    182a:	80 91 02 05 	lds	r24, 0x0502
    182e:	90 91 03 05 	lds	r25, 0x0503
    1832:	f8 2e       	mov	r15, r24
    1834:	c0 e0       	ldi	r28, 0x00	; 0
    1836:	d0 e0       	ldi	r29, 0x00	; 0
    1838:	40 e0       	ldi	r20, 0x00	; 0
    183a:	50 e0       	ldi	r21, 0x00	; 0
    183c:	12 c0       	rjmp	.+36     	; 0x1862 <planner_reverse_pass+0x42>
  block_t *block[3] = {NULL, NULL, NULL};
  while(block_index != block_buffer_tail) {    
    block_index--;
    183e:	fa 94       	dec	r15
    if(block_index < 0) {
    1840:	f7 fe       	sbrs	r15, 7
    1842:	02 c0       	rjmp	.+4      	; 0x1848 <planner_reverse_pass+0x28>
    1844:	39 e0       	ldi	r19, 0x09	; 9
    1846:	f3 2e       	mov	r15, r19
      block_index = BLOCK_BUFFER_SIZE-1;
    }
    block[2]= block[1];
    block[1]= block[0];
    block[0] = &block_buffer[block_index];
    1848:	8f 2d       	mov	r24, r15
    184a:	99 e4       	ldi	r25, 0x49	; 73
    184c:	89 02       	muls	r24, r25
    184e:	80 01       	movw	r16, r0
    1850:	11 24       	eor	r1, r1
    1852:	08 5d       	subi	r16, 0xD8	; 216
    1854:	1d 4f       	sbci	r17, 0xFD	; 253
    planner_reverse_pass_kernel(block[0], block[1], block[2]);
    1856:	c8 01       	movw	r24, r16
    1858:	be 01       	movw	r22, r28
    185a:	0e 94 d4 0a 	call	0x15a8	; 0x15a8 <planner_reverse_pass_kernel>
    185e:	ae 01       	movw	r20, r28
    1860:	e8 01       	movw	r28, r16
// planner_recalculate() needs to go over the current plan twice. Once in reverse and once forward. This 
// implements the reverse pass.
void planner_reverse_pass() {
  auto int8_t block_index = block_buffer_head;
  block_t *block[3] = {NULL, NULL, NULL};
  while(block_index != block_buffer_tail) {    
    1862:	20 91 04 05 	lds	r18, 0x0504
    1866:	30 91 05 05 	lds	r19, 0x0505
    186a:	8f 2d       	mov	r24, r15
    186c:	99 27       	eor	r25, r25
    186e:	87 fd       	sbrc	r24, 7
    1870:	90 95       	com	r25
    1872:	82 17       	cp	r24, r18
    1874:	93 07       	cpc	r25, r19
    1876:	19 f7       	brne	.-58     	; 0x183e <planner_reverse_pass+0x1e>
    block[2]= block[1];
    block[1]= block[0];
    block[0] = &block_buffer[block_index];
    planner_reverse_pass_kernel(block[0], block[1], block[2]);
  }
  planner_reverse_pass_kernel(NULL, block[0], block[1]);
    1878:	80 e0       	ldi	r24, 0x00	; 0
    187a:	90 e0       	ldi	r25, 0x00	; 0
    187c:	be 01       	movw	r22, r28
    187e:	0e 94 d4 0a 	call	0x15a8	; 0x15a8 <planner_reverse_pass_kernel>
}
    1882:	df 91       	pop	r29
    1884:	cf 91       	pop	r28
    1886:	1f 91       	pop	r17
    1888:	0f 91       	pop	r16
    188a:	ff 90       	pop	r15
    188c:	08 95       	ret

0000188e <calculate_trapezoid_for_block>:
                                   |             + <- nominal_rate*exit_factor  
                                   +-------------+                              
                                       time -->                                 
*/                                                                              

void calculate_trapezoid_for_block(block_t *block, double entry_factor, double exit_factor) {
    188e:	2f 92       	push	r2
    1890:	3f 92       	push	r3
    1892:	4f 92       	push	r4
    1894:	5f 92       	push	r5
    1896:	6f 92       	push	r6
    1898:	7f 92       	push	r7
    189a:	8f 92       	push	r8
    189c:	9f 92       	push	r9
    189e:	af 92       	push	r10
    18a0:	bf 92       	push	r11
    18a2:	cf 92       	push	r12
    18a4:	df 92       	push	r13
    18a6:	ef 92       	push	r14
    18a8:	ff 92       	push	r15
    18aa:	0f 93       	push	r16
    18ac:	1f 93       	push	r17
    18ae:	df 93       	push	r29
    18b0:	cf 93       	push	r28
    18b2:	cd b7       	in	r28, 0x3d	; 61
    18b4:	de b7       	in	r29, 0x3e	; 62
    18b6:	62 97       	sbiw	r28, 0x12	; 18
    18b8:	0f b6       	in	r0, 0x3f	; 63
    18ba:	f8 94       	cli
    18bc:	de bf       	out	0x3e, r29	; 62
    18be:	0f be       	out	0x3f, r0	; 63
    18c0:	cd bf       	out	0x3d, r28	; 61
    18c2:	9a 8b       	std	Y+18, r25	; 0x12
    18c4:	89 8b       	std	Y+17, r24	; 0x11
    18c6:	6a 01       	movw	r12, r20
    18c8:	7b 01       	movw	r14, r22
    18ca:	18 01       	movw	r2, r16
    18cc:	29 01       	movw	r4, r18
  block->initial_rate = ceil(block->nominal_rate*entry_factor);
    18ce:	fc 01       	movw	r30, r24
    18d0:	65 89       	ldd	r22, Z+21	; 0x15
    18d2:	76 89       	ldd	r23, Z+22	; 0x16
    18d4:	87 89       	ldd	r24, Z+23	; 0x17
    18d6:	90 8d       	ldd	r25, Z+24	; 0x18
    18d8:	0e 94 1b 1e 	call	0x3c36	; 0x3c36 <__floatunsisf>
    18dc:	3b 01       	movw	r6, r22
    18de:	4c 01       	movw	r8, r24
    18e0:	a7 01       	movw	r20, r14
    18e2:	96 01       	movw	r18, r12
    18e4:	0e 94 b3 1f 	call	0x3f66	; 0x3f66 <__mulsf3>
    18e8:	0e 94 6b 1d 	call	0x3ad6	; 0x3ad6 <ceil>
    18ec:	0e 94 ef 1d 	call	0x3bde	; 0x3bde <__fixunssfsi>
    18f0:	7b 01       	movw	r14, r22
    18f2:	8c 01       	movw	r16, r24
    18f4:	e9 89       	ldd	r30, Y+17	; 0x11
    18f6:	fa 89       	ldd	r31, Y+18	; 0x12
    18f8:	65 ab       	std	Z+53, r22	; 0x35
    18fa:	76 ab       	std	Z+54, r23	; 0x36
    18fc:	87 ab       	std	Z+55, r24	; 0x37
    18fe:	90 af       	std	Z+56, r25	; 0x38
  block->final_rate = ceil(block->nominal_rate*exit_factor);
    1900:	c4 01       	movw	r24, r8
    1902:	b3 01       	movw	r22, r6
    1904:	a2 01       	movw	r20, r4
    1906:	91 01       	movw	r18, r2
    1908:	0e 94 b3 1f 	call	0x3f66	; 0x3f66 <__mulsf3>
    190c:	0e 94 6b 1d 	call	0x3ad6	; 0x3ad6 <ceil>
    1910:	0e 94 ef 1d 	call	0x3bde	; 0x3bde <__fixunssfsi>
    1914:	1b 01       	movw	r2, r22
    1916:	2c 01       	movw	r4, r24
    1918:	e9 89       	ldd	r30, Y+17	; 0x11
    191a:	fa 89       	ldd	r31, Y+18	; 0x12
    191c:	61 af       	std	Z+57, r22	; 0x39
    191e:	72 af       	std	Z+58, r23	; 0x3a
    1920:	83 af       	std	Z+59, r24	; 0x3b
    1922:	94 af       	std	Z+60, r25	; 0x3c
  int32_t acceleration_per_minute = block->rate_delta*ACCELERATION_TICKS_PER_SECOND*60.0;
    1924:	fd 96       	adiw	r30, 0x3d	; 61
    1926:	60 81       	ld	r22, Z
    1928:	71 81       	ldd	r23, Z+1	; 0x01
    192a:	82 81       	ldd	r24, Z+2	; 0x02
    192c:	93 81       	ldd	r25, Z+3	; 0x03
    192e:	fd 97       	sbiw	r30, 0x3d	; 61
    1930:	fa 8b       	std	Y+18, r31	; 0x12
    1932:	e9 8b       	std	Y+17, r30	; 0x11
    1934:	28 e2       	ldi	r18, 0x28	; 40
    1936:	30 e0       	ldi	r19, 0x00	; 0
    1938:	40 e0       	ldi	r20, 0x00	; 0
    193a:	50 e0       	ldi	r21, 0x00	; 0
    193c:	0e 94 89 20 	call	0x4112	; 0x4112 <__mulsi3>
    1940:	0e 94 1d 1e 	call	0x3c3a	; 0x3c3a <__floatsisf>
    1944:	20 e0       	ldi	r18, 0x00	; 0
    1946:	30 e0       	ldi	r19, 0x00	; 0
    1948:	40 e7       	ldi	r20, 0x70	; 112
    194a:	52 e4       	ldi	r21, 0x42	; 66
    194c:	0e 94 b3 1f 	call	0x3f66	; 0x3f66 <__mulsf3>
    1950:	0e 94 ea 1d 	call	0x3bd4	; 0x3bd4 <__fixsfsi>
    1954:	5b 01       	movw	r10, r22
    1956:	6c 01       	movw	r12, r24
  int32_t accelerate_steps = 
    ceil(estimate_acceleration_distance(block->initial_rate, block->nominal_rate, acceleration_per_minute));
    1958:	c8 01       	movw	r24, r16
    195a:	b7 01       	movw	r22, r14
    195c:	0e 94 1b 1e 	call	0x3c36	; 0x3c36 <__floatunsisf>
    1960:	7b 01       	movw	r14, r22
    1962:	8c 01       	movw	r16, r24
    1964:	c6 01       	movw	r24, r12
    1966:	b5 01       	movw	r22, r10
    1968:	0e 94 1d 1e 	call	0x3c3a	; 0x3c3a <__floatsisf>
    196c:	6d 83       	std	Y+5, r22	; 0x05
    196e:	7e 83       	std	Y+6, r23	; 0x06
    1970:	8f 83       	std	Y+7, r24	; 0x07
    1972:	98 87       	std	Y+8, r25	; 0x08
#define ONE_MINUTE_OF_MICROSECONDS 60000000.0

// Calculates the distance (not time) it takes to accelerate from initial_rate to target_rate using the 
// given acceleration:
inline double estimate_acceleration_distance(double initial_rate, double target_rate, double acceleration) {
  return(
    1974:	c4 01       	movw	r24, r8
    1976:	b3 01       	movw	r22, r6
    1978:	a4 01       	movw	r20, r8
    197a:	93 01       	movw	r18, r6
    197c:	0e 94 b3 1f 	call	0x3f66	; 0x3f66 <__mulsf3>
    1980:	3b 01       	movw	r6, r22
    1982:	4c 01       	movw	r8, r24
    1984:	c8 01       	movw	r24, r16
    1986:	b7 01       	movw	r22, r14
    1988:	a8 01       	movw	r20, r16
    198a:	97 01       	movw	r18, r14
    198c:	0e 94 b3 1f 	call	0x3f66	; 0x3f66 <__mulsf3>
    1990:	69 87       	std	Y+9, r22	; 0x09
    1992:	7a 87       	std	Y+10, r23	; 0x0a
    1994:	8b 87       	std	Y+11, r24	; 0x0b
    1996:	9c 87       	std	Y+12, r25	; 0x0c
    1998:	6d 81       	ldd	r22, Y+5	; 0x05
    199a:	7e 81       	ldd	r23, Y+6	; 0x06
    199c:	8f 81       	ldd	r24, Y+7	; 0x07
    199e:	98 85       	ldd	r25, Y+8	; 0x08
    19a0:	9b 01       	movw	r18, r22
    19a2:	ac 01       	movw	r20, r24
    19a4:	0e 94 df 1c 	call	0x39be	; 0x39be <__addsf3>
    19a8:	6d 87       	std	Y+13, r22	; 0x0d
    19aa:	7e 87       	std	Y+14, r23	; 0x0e
    19ac:	8f 87       	std	Y+15, r24	; 0x0f
    19ae:	98 8b       	std	Y+16, r25	; 0x10
void calculate_trapezoid_for_block(block_t *block, double entry_factor, double exit_factor) {
  block->initial_rate = ceil(block->nominal_rate*entry_factor);
  block->final_rate = ceil(block->nominal_rate*exit_factor);
  int32_t acceleration_per_minute = block->rate_delta*ACCELERATION_TICKS_PER_SECOND*60.0;
  int32_t accelerate_steps = 
    ceil(estimate_acceleration_distance(block->initial_rate, block->nominal_rate, acceleration_per_minute));
    19b0:	c4 01       	movw	r24, r8
    19b2:	b3 01       	movw	r22, r6
    19b4:	29 85       	ldd	r18, Y+9	; 0x09
    19b6:	3a 85       	ldd	r19, Y+10	; 0x0a
    19b8:	4b 85       	ldd	r20, Y+11	; 0x0b
    19ba:	5c 85       	ldd	r21, Y+12	; 0x0c
    19bc:	0e 94 de 1c 	call	0x39bc	; 0x39bc <__subsf3>
    19c0:	2d 85       	ldd	r18, Y+13	; 0x0d
    19c2:	3e 85       	ldd	r19, Y+14	; 0x0e
    19c4:	4f 85       	ldd	r20, Y+15	; 0x0f
    19c6:	58 89       	ldd	r21, Y+16	; 0x10
    19c8:	0e 94 82 1d 	call	0x3b04	; 0x3b04 <__divsf3>
    19cc:	0e 94 6b 1d 	call	0x3ad6	; 0x3ad6 <ceil>
    19d0:	0e 94 ea 1d 	call	0x3bd4	; 0x3bd4 <__fixsfsi>
    19d4:	69 83       	std	Y+1, r22	; 0x01
    19d6:	7a 83       	std	Y+2, r23	; 0x02
    19d8:	8b 83       	std	Y+3, r24	; 0x03
    19da:	9c 83       	std	Y+4, r25	; 0x04
  int32_t decelerate_steps = 
    floor(estimate_acceleration_distance(block->nominal_rate, block->final_rate, -acceleration_per_minute));
    19dc:	c2 01       	movw	r24, r4
    19de:	b1 01       	movw	r22, r2
    19e0:	0e 94 1b 1e 	call	0x3c36	; 0x3c36 <__floatunsisf>
    19e4:	9b 01       	movw	r18, r22
    19e6:	ac 01       	movw	r20, r24
#define ONE_MINUTE_OF_MICROSECONDS 60000000.0

// Calculates the distance (not time) it takes to accelerate from initial_rate to target_rate using the 
// given acceleration:
inline double estimate_acceleration_distance(double initial_rate, double target_rate, double acceleration) {
  return(
    19e8:	0e 94 b3 1f 	call	0x3f66	; 0x3f66 <__mulsf3>
    19ec:	1b 01       	movw	r2, r22
    19ee:	2c 01       	movw	r4, r24
  block->final_rate = ceil(block->nominal_rate*exit_factor);
  int32_t acceleration_per_minute = block->rate_delta*ACCELERATION_TICKS_PER_SECOND*60.0;
  int32_t accelerate_steps = 
    ceil(estimate_acceleration_distance(block->initial_rate, block->nominal_rate, acceleration_per_minute));
  int32_t decelerate_steps = 
    floor(estimate_acceleration_distance(block->nominal_rate, block->final_rate, -acceleration_per_minute));
    19f0:	a4 01       	movw	r20, r8
    19f2:	93 01       	movw	r18, r6
    19f4:	0e 94 de 1c 	call	0x39bc	; 0x39bc <__subsf3>
    19f8:	7b 01       	movw	r14, r22
    19fa:	8c 01       	movw	r16, r24
    19fc:	d0 94       	com	r13
    19fe:	c0 94       	com	r12
    1a00:	b0 94       	com	r11
    1a02:	a0 94       	com	r10
    1a04:	a1 1c       	adc	r10, r1
    1a06:	b1 1c       	adc	r11, r1
    1a08:	c1 1c       	adc	r12, r1
    1a0a:	d1 1c       	adc	r13, r1
    1a0c:	c6 01       	movw	r24, r12
    1a0e:	b5 01       	movw	r22, r10
    1a10:	0e 94 1d 1e 	call	0x3c3a	; 0x3c3a <__floatsisf>
    1a14:	9b 01       	movw	r18, r22
    1a16:	ac 01       	movw	r20, r24
    1a18:	0e 94 df 1c 	call	0x39be	; 0x39be <__addsf3>
    1a1c:	9b 01       	movw	r18, r22
    1a1e:	ac 01       	movw	r20, r24
    1a20:	c8 01       	movw	r24, r16
    1a22:	b7 01       	movw	r22, r14
    1a24:	0e 94 82 1d 	call	0x3b04	; 0x3b04 <__divsf3>
    1a28:	0e 94 58 1e 	call	0x3cb0	; 0x3cb0 <floor>

  // Calculate the size of Plateau of Nominal Rate. 
  int32_t plateau_steps = block->step_event_count-accelerate_steps-decelerate_steps;
    1a2c:	e9 89       	ldd	r30, Y+17	; 0x11
    1a2e:	fa 89       	ldd	r31, Y+18	; 0x12
    1a30:	a1 88       	ldd	r10, Z+17	; 0x11
    1a32:	b2 88       	ldd	r11, Z+18	; 0x12
    1a34:	c3 88       	ldd	r12, Z+19	; 0x13
    1a36:	d4 88       	ldd	r13, Z+20	; 0x14
    1a38:	86 01       	movw	r16, r12
    1a3a:	75 01       	movw	r14, r10
    1a3c:	29 81       	ldd	r18, Y+1	; 0x01
    1a3e:	3a 81       	ldd	r19, Y+2	; 0x02
    1a40:	4b 81       	ldd	r20, Y+3	; 0x03
    1a42:	5c 81       	ldd	r21, Y+4	; 0x04
    1a44:	e2 1a       	sub	r14, r18
    1a46:	f3 0a       	sbc	r15, r19
    1a48:	04 0b       	sbc	r16, r20
    1a4a:	15 0b       	sbc	r17, r21
    1a4c:	0e 94 ea 1d 	call	0x3bd4	; 0x3bd4 <__fixsfsi>
    1a50:	a8 01       	movw	r20, r16
    1a52:	97 01       	movw	r18, r14
    1a54:	26 1b       	sub	r18, r22
    1a56:	37 0b       	sbc	r19, r23
    1a58:	48 0b       	sbc	r20, r24
    1a5a:	59 0b       	sbc	r21, r25
    1a5c:	da 01       	movw	r26, r20
    1a5e:	c9 01       	movw	r24, r18
  
  // Is the Plateau of Nominal Rate smaller than nothing? That means no cruising, and we will
  // have to use intersection_distance() to calculate when to abort acceleration and start braking 
  // in order to reach the final_rate exactly at the end of this block.
  if (plateau_steps < 0) {  
    1a60:	57 ff       	sbrs	r21, 7
    1a62:	34 c0       	rjmp	.+104    	; 0x1acc <calculate_trapezoid_for_block+0x23e>
    accelerate_steps = ceil(
    1a64:	c6 01       	movw	r24, r12
    1a66:	b5 01       	movw	r22, r10
    1a68:	0e 94 1d 1e 	call	0x3c3a	; 0x3c3a <__floatsisf>
    1a6c:	9b 01       	movw	r18, r22
    1a6e:	ac 01       	movw	r20, r24
    1a70:	6d 85       	ldd	r22, Y+13	; 0x0d
    1a72:	7e 85       	ldd	r23, Y+14	; 0x0e
    1a74:	8f 85       	ldd	r24, Y+15	; 0x0f
    1a76:	98 89       	ldd	r25, Y+16	; 0x10
    1a78:	0e 94 b3 1f 	call	0x3f66	; 0x3f66 <__mulsf3>
    1a7c:	29 85       	ldd	r18, Y+9	; 0x09
    1a7e:	3a 85       	ldd	r19, Y+10	; 0x0a
    1a80:	4b 85       	ldd	r20, Y+11	; 0x0b
    1a82:	5c 85       	ldd	r21, Y+12	; 0x0c
    1a84:	0e 94 de 1c 	call	0x39bc	; 0x39bc <__subsf3>
    1a88:	a2 01       	movw	r20, r4
    1a8a:	91 01       	movw	r18, r2
    1a8c:	0e 94 df 1c 	call	0x39be	; 0x39be <__addsf3>
    1a90:	7b 01       	movw	r14, r22
    1a92:	8c 01       	movw	r16, r24
    1a94:	6d 81       	ldd	r22, Y+5	; 0x05
    1a96:	7e 81       	ldd	r23, Y+6	; 0x06
    1a98:	8f 81       	ldd	r24, Y+7	; 0x07
    1a9a:	98 85       	ldd	r25, Y+8	; 0x08
    1a9c:	20 e0       	ldi	r18, 0x00	; 0
    1a9e:	30 e0       	ldi	r19, 0x00	; 0
    1aa0:	40 e8       	ldi	r20, 0x80	; 128
    1aa2:	50 e4       	ldi	r21, 0x40	; 64
    1aa4:	0e 94 b3 1f 	call	0x3f66	; 0x3f66 <__mulsf3>
    1aa8:	9b 01       	movw	r18, r22
    1aaa:	ac 01       	movw	r20, r24
    1aac:	c8 01       	movw	r24, r16
    1aae:	b7 01       	movw	r22, r14
    1ab0:	0e 94 82 1d 	call	0x3b04	; 0x3b04 <__divsf3>
    1ab4:	0e 94 6b 1d 	call	0x3ad6	; 0x3ad6 <ceil>
    1ab8:	0e 94 ea 1d 	call	0x3bd4	; 0x3bd4 <__fixsfsi>
    1abc:	69 83       	std	Y+1, r22	; 0x01
    1abe:	7a 83       	std	Y+2, r23	; 0x02
    1ac0:	8b 83       	std	Y+3, r24	; 0x03
    1ac2:	9c 83       	std	Y+4, r25	; 0x04
    1ac4:	80 e0       	ldi	r24, 0x00	; 0
    1ac6:	90 e0       	ldi	r25, 0x00	; 0
    1ac8:	a0 e0       	ldi	r26, 0x00	; 0
    1aca:	b0 e0       	ldi	r27, 0x00	; 0
      intersection_distance(block->initial_rate, block->final_rate, acceleration_per_minute, block->step_event_count));
    plateau_steps = 0;
  }  
  
  block->accelerate_until = accelerate_steps;
    1acc:	49 89       	ldd	r20, Y+17	; 0x11
    1ace:	5a 89       	ldd	r21, Y+18	; 0x12
    1ad0:	4f 5b       	subi	r20, 0xBF	; 191
    1ad2:	5f 4f       	sbci	r21, 0xFF	; 255
    1ad4:	fa 01       	movw	r30, r20
    1ad6:	29 81       	ldd	r18, Y+1	; 0x01
    1ad8:	3a 81       	ldd	r19, Y+2	; 0x02
    1ada:	4b 81       	ldd	r20, Y+3	; 0x03
    1adc:	5c 81       	ldd	r21, Y+4	; 0x04
    1ade:	21 93       	st	Z+, r18
    1ae0:	31 93       	st	Z+, r19
    1ae2:	41 93       	st	Z+, r20
    1ae4:	51 93       	st	Z+, r21
    1ae6:	fa 8b       	std	Y+18, r31	; 0x12
    1ae8:	e9 8b       	std	Y+17, r30	; 0x11
  block->decelerate_after = accelerate_steps+plateau_steps;
    1aea:	82 0f       	add	r24, r18
    1aec:	93 1f       	adc	r25, r19
    1aee:	a4 1f       	adc	r26, r20
    1af0:	b5 1f       	adc	r27, r21
    1af2:	80 83       	st	Z, r24
    1af4:	91 83       	std	Z+1, r25	; 0x01
    1af6:	a2 83       	std	Z+2, r26	; 0x02
    1af8:	b3 83       	std	Z+3, r27	; 0x03
}                    
    1afa:	62 96       	adiw	r28, 0x12	; 18
    1afc:	0f b6       	in	r0, 0x3f	; 63
    1afe:	f8 94       	cli
    1b00:	de bf       	out	0x3e, r29	; 62
    1b02:	0f be       	out	0x3f, r0	; 63
    1b04:	cd bf       	out	0x3d, r28	; 61
    1b06:	cf 91       	pop	r28
    1b08:	df 91       	pop	r29
    1b0a:	1f 91       	pop	r17
    1b0c:	0f 91       	pop	r16
    1b0e:	ff 90       	pop	r15
    1b10:	ef 90       	pop	r14
    1b12:	df 90       	pop	r13
    1b14:	cf 90       	pop	r12
    1b16:	bf 90       	pop	r11
    1b18:	af 90       	pop	r10
    1b1a:	9f 90       	pop	r9
    1b1c:	8f 90       	pop	r8
    1b1e:	7f 90       	pop	r7
    1b20:	6f 90       	pop	r6
    1b22:	5f 90       	pop	r5
    1b24:	4f 90       	pop	r4
    1b26:	3f 90       	pop	r3
    1b28:	2f 90       	pop	r2
    1b2a:	08 95       	ret

00001b2c <planner_recalculate_trapezoids>:
}

// Recalculates the trapezoid speed profiles for all blocks in the plan according to the 
// entry_factor for each junction. Must be called by planner_recalculate() after 
// updating the blocks.
void planner_recalculate_trapezoids() {
    1b2c:	cf 92       	push	r12
    1b2e:	df 92       	push	r13
    1b30:	ef 92       	push	r14
    1b32:	ff 92       	push	r15
    1b34:	0f 93       	push	r16
    1b36:	1f 93       	push	r17
    1b38:	cf 93       	push	r28
    1b3a:	df 93       	push	r29
  int8_t block_index = block_buffer_tail;
    1b3c:	80 91 04 05 	lds	r24, 0x0504
    1b40:	90 91 05 05 	lds	r25, 0x0505
    1b44:	28 2f       	mov	r18, r24
    1b46:	c0 e0       	ldi	r28, 0x00	; 0
    1b48:	d0 e0       	ldi	r29, 0x00	; 0
    1b4a:	1e c0       	rjmp	.+60     	; 0x1b88 <planner_recalculate_trapezoids+0x5c>
  block_t *current;
  block_t *next = NULL;
  
  while(block_index != block_buffer_head) {
    current = next;
    next = &block_buffer[block_index];
    1b4c:	89 e4       	ldi	r24, 0x49	; 73
    1b4e:	28 02       	muls	r18, r24
    1b50:	70 01       	movw	r14, r0
    1b52:	11 24       	eor	r1, r1
    1b54:	e8 e2       	ldi	r30, 0x28	; 40
    1b56:	f2 e0       	ldi	r31, 0x02	; 2
    1b58:	ee 0e       	add	r14, r30
    1b5a:	ff 1e       	adc	r15, r31
    if (current) {
    1b5c:	20 97       	sbiw	r28, 0x00	; 0
    1b5e:	61 f0       	breq	.+24     	; 0x1b78 <planner_recalculate_trapezoids+0x4c>
      calculate_trapezoid_for_block(current, current->entry_factor, next->entry_factor);      
    1b60:	49 a9       	ldd	r20, Y+49	; 0x31
    1b62:	5a a9       	ldd	r21, Y+50	; 0x32
    1b64:	6b a9       	ldd	r22, Y+51	; 0x33
    1b66:	7c a9       	ldd	r23, Y+52	; 0x34
    1b68:	f7 01       	movw	r30, r14
    1b6a:	01 a9       	ldd	r16, Z+49	; 0x31
    1b6c:	12 a9       	ldd	r17, Z+50	; 0x32
    1b6e:	23 a9       	ldd	r18, Z+51	; 0x33
    1b70:	34 a9       	ldd	r19, Z+52	; 0x34
    1b72:	ce 01       	movw	r24, r28
    1b74:	0e 94 47 0c 	call	0x188e	; 0x188e <calculate_trapezoid_for_block>
    }
    block_index = (block_index+1) % BLOCK_BUFFER_SIZE;
    1b78:	c6 01       	movw	r24, r12
    1b7a:	01 96       	adiw	r24, 0x01	; 1
    1b7c:	6a e0       	ldi	r22, 0x0A	; 10
    1b7e:	70 e0       	ldi	r23, 0x00	; 0
    1b80:	0e 94 a8 20 	call	0x4150	; 0x4150 <__divmodhi4>
    1b84:	28 2f       	mov	r18, r24
    1b86:	e7 01       	movw	r28, r14
void planner_recalculate_trapezoids() {
  int8_t block_index = block_buffer_tail;
  block_t *current;
  block_t *next = NULL;
  
  while(block_index != block_buffer_head) {
    1b88:	c2 2e       	mov	r12, r18
    1b8a:	dd 24       	eor	r13, r13
    1b8c:	c7 fc       	sbrc	r12, 7
    1b8e:	d0 94       	com	r13
    1b90:	80 91 02 05 	lds	r24, 0x0502
    1b94:	90 91 03 05 	lds	r25, 0x0503
    1b98:	c8 16       	cp	r12, r24
    1b9a:	d9 06       	cpc	r13, r25
    1b9c:	b9 f6       	brne	.-82     	; 0x1b4c <planner_recalculate_trapezoids+0x20>
    if (current) {
      calculate_trapezoid_for_block(current, current->entry_factor, next->entry_factor);      
    }
    block_index = (block_index+1) % BLOCK_BUFFER_SIZE;
  }
  calculate_trapezoid_for_block(next, next->entry_factor, factor_for_safe_speed(next));
    1b9e:	ce 01       	movw	r24, r28
    1ba0:	0e 94 16 09 	call	0x122c	; 0x122c <factor_for_safe_speed>
    1ba4:	8b 01       	movw	r16, r22
    1ba6:	9c 01       	movw	r18, r24
    1ba8:	49 a9       	ldd	r20, Y+49	; 0x31
    1baa:	5a a9       	ldd	r21, Y+50	; 0x32
    1bac:	6b a9       	ldd	r22, Y+51	; 0x33
    1bae:	7c a9       	ldd	r23, Y+52	; 0x34
    1bb0:	ce 01       	movw	r24, r28
    1bb2:	0e 94 47 0c 	call	0x188e	; 0x188e <calculate_trapezoid_for_block>
}
    1bb6:	df 91       	pop	r29
    1bb8:	cf 91       	pop	r28
    1bba:	1f 91       	pop	r17
    1bbc:	0f 91       	pop	r16
    1bbe:	ff 90       	pop	r15
    1bc0:	ef 90       	pop	r14
    1bc2:	df 90       	pop	r13
    1bc4:	cf 90       	pop	r12
    1bc6:	08 95       	ret

00001bc8 <planner_recalculate>:
// the set limit. Finally it will:
//
//   3. Recalculate trapezoids for all blocks.

void planner_recalculate() {     
  planner_reverse_pass();
    1bc8:	0e 94 10 0c 	call	0x1820	; 0x1820 <planner_reverse_pass>
  planner_forward_pass();
    1bcc:	0e 94 e7 09 	call	0x13ce	; 0x13ce <planner_forward_pass>
  planner_recalculate_trapezoids();
    1bd0:	0e 94 96 0d 	call	0x1b2c	; 0x1b2c <planner_recalculate_trapezoids>
}
    1bd4:	08 95       	ret

00001bd6 <plan_buffer_line>:


// Add a new linear movement to the buffer. steps_x, _y, _z and _c is the absolute position in 
// mm. Microseconds specify how many microseconds the move should take to perform. To aid acceleration
// calculation the caller must also provide the physical length of the line in millimeters.
void plan_buffer_line(double x, double y, double z, double c, double feed_rate, int invert_feed_rate) {
    1bd6:	2f 92       	push	r2
    1bd8:	3f 92       	push	r3
    1bda:	4f 92       	push	r4
    1bdc:	5f 92       	push	r5
    1bde:	6f 92       	push	r6
    1be0:	7f 92       	push	r7
    1be2:	8f 92       	push	r8
    1be4:	9f 92       	push	r9
    1be6:	af 92       	push	r10
    1be8:	bf 92       	push	r11
    1bea:	cf 92       	push	r12
    1bec:	df 92       	push	r13
    1bee:	ef 92       	push	r14
    1bf0:	ff 92       	push	r15
    1bf2:	0f 93       	push	r16
    1bf4:	1f 93       	push	r17
    1bf6:	df 93       	push	r29
    1bf8:	cf 93       	push	r28
    1bfa:	cd b7       	in	r28, 0x3d	; 61
    1bfc:	de b7       	in	r29, 0x3e	; 62
    1bfe:	e4 97       	sbiw	r28, 0x34	; 52
    1c00:	0f b6       	in	r0, 0x3f	; 63
    1c02:	f8 94       	cli
    1c04:	de bf       	out	0x3e, r29	; 62
    1c06:	0f be       	out	0x3f, r0	; 63
    1c08:	cd bf       	out	0x3d, r28	; 61
    1c0a:	3b 01       	movw	r6, r22
    1c0c:	4c 01       	movw	r8, r24
    1c0e:	2f a3       	std	Y+39, r18	; 0x27
    1c10:	38 a7       	std	Y+40, r19	; 0x28
    1c12:	49 a7       	std	Y+41, r20	; 0x29
    1c14:	5a a7       	std	Y+42, r21	; 0x2a
    1c16:	eb a6       	std	Y+43, r14	; 0x2b
    1c18:	fc a6       	std	Y+44, r15	; 0x2c
    1c1a:	0d a7       	std	Y+45, r16	; 0x2d
    1c1c:	1e a7       	std	Y+46, r17	; 0x2e
    1c1e:	af a6       	std	Y+47, r10	; 0x2f
    1c20:	b8 aa       	std	Y+48, r11	; 0x30
    1c22:	c9 aa       	std	Y+49, r12	; 0x31
    1c24:	da aa       	std	Y+50, r13	; 0x32
  
  
  if( gHomed == FALSE ) 
    1c26:	80 91 4a 05 	lds	r24, 0x054A
    1c2a:	88 23       	and	r24, r24
    1c2c:	09 f4       	brne	.+2      	; 0x1c30 <plan_buffer_line+0x5a>
    1c2e:	72 c3       	rjmp	.+1764   	; 0x2314 <__stack+0x115>
	  
  // The target position of the tool in absolute steps
  
  // Calculate target position in absolute steps
  int32_t target[4];
  target[X_AXIS] = lround(x*settings.steps_per_mm[X_AXIS]);
    1c30:	c4 01       	movw	r24, r8
    1c32:	b3 01       	movw	r22, r6
    1c34:	20 91 74 06 	lds	r18, 0x0674
    1c38:	30 91 75 06 	lds	r19, 0x0675
    1c3c:	40 91 76 06 	lds	r20, 0x0676
    1c40:	50 91 77 06 	lds	r21, 0x0677
    1c44:	0e 94 b3 1f 	call	0x3f66	; 0x3f66 <__mulsf3>
    1c48:	0e 94 50 1f 	call	0x3ea0	; 0x3ea0 <lround>
    1c4c:	7b 01       	movw	r14, r22
    1c4e:	8c 01       	movw	r16, r24
  target[Y_AXIS] = lround(y*settings.steps_per_mm[Y_AXIS]);
    1c50:	20 91 78 06 	lds	r18, 0x0678
    1c54:	30 91 79 06 	lds	r19, 0x0679
    1c58:	40 91 7a 06 	lds	r20, 0x067A
    1c5c:	50 91 7b 06 	lds	r21, 0x067B
    1c60:	2b a3       	std	Y+35, r18	; 0x23
    1c62:	3c a3       	std	Y+36, r19	; 0x24
    1c64:	4d a3       	std	Y+37, r20	; 0x25
    1c66:	5e a3       	std	Y+38, r21	; 0x26
  target[Z_AXIS] = lround(z*settings.steps_per_mm[Z_AXIS]);     
    1c68:	20 90 7c 06 	lds	r2, 0x067C
    1c6c:	30 90 7d 06 	lds	r3, 0x067D
    1c70:	40 90 7e 06 	lds	r4, 0x067E
    1c74:	50 90 7f 06 	lds	r5, 0x067F
  target[C_AXIS] = lround(c*settings.steps_per_mm[C_AXIS]);     
    1c78:	a0 90 80 06 	lds	r10, 0x0680
    1c7c:	b0 90 81 06 	lds	r11, 0x0681
    1c80:	c0 90 82 06 	lds	r12, 0x0682
    1c84:	d0 90 83 06 	lds	r13, 0x0683
  
  // Calculate the buffer head after we push this byte
	int next_buffer_head = (block_buffer_head + 1) % BLOCK_BUFFER_SIZE;	
    1c88:	80 91 02 05 	lds	r24, 0x0502
    1c8c:	90 91 03 05 	lds	r25, 0x0503
    1c90:	01 96       	adiw	r24, 0x01	; 1
    1c92:	6a e0       	ldi	r22, 0x0A	; 10
    1c94:	70 e0       	ldi	r23, 0x00	; 0
    1c96:	0e 94 a8 20 	call	0x4150	; 0x4150 <__divmodhi4>
    1c9a:	8b ab       	std	Y+51, r24	; 0x33
    1c9c:	9c ab       	std	Y+52, r25	; 0x34
    1c9e:	07 c0       	rjmp	.+14     	; 0x1cae <plan_buffer_line+0xd8>
	// If the buffer is full: good! That means we are well ahead of the robot. 
	// Rest here until there is room in the buffer.
  while(block_buffer_tail == next_buffer_head) { sleep_mode(); }
    1ca0:	83 b7       	in	r24, 0x33	; 51
    1ca2:	81 60       	ori	r24, 0x01	; 1
    1ca4:	83 bf       	out	0x33, r24	; 51
    1ca6:	88 95       	sleep
    1ca8:	83 b7       	in	r24, 0x33	; 51
    1caa:	8e 7f       	andi	r24, 0xFE	; 254
    1cac:	83 bf       	out	0x33, r24	; 51
    1cae:	80 91 04 05 	lds	r24, 0x0504
    1cb2:	90 91 05 05 	lds	r25, 0x0505
    1cb6:	4b a9       	ldd	r20, Y+51	; 0x33
    1cb8:	5c a9       	ldd	r21, Y+52	; 0x34
    1cba:	84 17       	cp	r24, r20
    1cbc:	95 07       	cpc	r25, r21
    1cbe:	81 f3       	breq	.-32     	; 0x1ca0 <plan_buffer_line+0xca>
  // Prepare to set up new block
  block_t *block = &block_buffer[block_buffer_head];
    1cc0:	20 91 02 05 	lds	r18, 0x0502
    1cc4:	30 91 03 05 	lds	r19, 0x0503
    1cc8:	89 e4       	ldi	r24, 0x49	; 73
    1cca:	90 e0       	ldi	r25, 0x00	; 0
    1ccc:	28 9f       	mul	r18, r24
    1cce:	d0 01       	movw	r26, r0
    1cd0:	29 9f       	mul	r18, r25
    1cd2:	b0 0d       	add	r27, r0
    1cd4:	38 9f       	mul	r19, r24
    1cd6:	b0 0d       	add	r27, r0
    1cd8:	11 24       	eor	r1, r1
    1cda:	a8 5d       	subi	r26, 0xD8	; 216
    1cdc:	bd 4f       	sbci	r27, 0xFD	; 253
    1cde:	ba a3       	std	Y+34, r27	; 0x22
    1ce0:	a9 a3       	std	Y+33, r26	; 0x21
  // Number of steps for each axis
  block->steps_x = labs(target[X_AXIS]-position[X_AXIS]);
    1ce2:	80 91 06 05 	lds	r24, 0x0506
    1ce6:	90 91 07 05 	lds	r25, 0x0507
    1cea:	a0 91 08 05 	lds	r26, 0x0508
    1cee:	b0 91 09 05 	lds	r27, 0x0509
    1cf2:	37 01       	movw	r6, r14
    1cf4:	48 01       	movw	r8, r16
    1cf6:	68 1a       	sub	r6, r24
    1cf8:	79 0a       	sbc	r7, r25
    1cfa:	8a 0a       	sbc	r8, r26
    1cfc:	9b 0a       	sbc	r9, r27
    1cfe:	97 fe       	sbrs	r9, 7
    1d00:	08 c0       	rjmp	.+16     	; 0x1d12 <plan_buffer_line+0x13c>
    1d02:	90 94       	com	r9
    1d04:	80 94       	com	r8
    1d06:	70 94       	com	r7
    1d08:	60 94       	com	r6
    1d0a:	61 1c       	adc	r6, r1
    1d0c:	71 1c       	adc	r7, r1
    1d0e:	81 1c       	adc	r8, r1
    1d10:	91 1c       	adc	r9, r1
  // Calculate target position in absolute steps
  int32_t target[4];
  target[X_AXIS] = lround(x*settings.steps_per_mm[X_AXIS]);
  target[Y_AXIS] = lround(y*settings.steps_per_mm[Y_AXIS]);
  target[Z_AXIS] = lround(z*settings.steps_per_mm[Z_AXIS]);     
  target[C_AXIS] = lround(c*settings.steps_per_mm[C_AXIS]);     
    1d12:	6f a5       	ldd	r22, Y+47	; 0x2f
    1d14:	78 a9       	ldd	r23, Y+48	; 0x30
    1d16:	89 a9       	ldd	r24, Y+49	; 0x31
    1d18:	9a a9       	ldd	r25, Y+50	; 0x32
    1d1a:	a6 01       	movw	r20, r12
    1d1c:	95 01       	movw	r18, r10
    1d1e:	0e 94 b3 1f 	call	0x3f66	; 0x3f66 <__mulsf3>
    1d22:	0e 94 50 1f 	call	0x3ea0	; 0x3ea0 <lround>
    1d26:	6d 87       	std	Y+13, r22	; 0x0d
    1d28:	7e 87       	std	Y+14, r23	; 0x0e
    1d2a:	8f 87       	std	Y+15, r24	; 0x0f
    1d2c:	98 8b       	std	Y+16, r25	; 0x10
  
  // Calculate target position in absolute steps
  int32_t target[4];
  target[X_AXIS] = lround(x*settings.steps_per_mm[X_AXIS]);
  target[Y_AXIS] = lround(y*settings.steps_per_mm[Y_AXIS]);
  target[Z_AXIS] = lround(z*settings.steps_per_mm[Z_AXIS]);     
    1d2e:	6b a5       	ldd	r22, Y+43	; 0x2b
    1d30:	7c a5       	ldd	r23, Y+44	; 0x2c
    1d32:	8d a5       	ldd	r24, Y+45	; 0x2d
    1d34:	9e a5       	ldd	r25, Y+46	; 0x2e
    1d36:	a2 01       	movw	r20, r4
    1d38:	91 01       	movw	r18, r2
    1d3a:	0e 94 b3 1f 	call	0x3f66	; 0x3f66 <__mulsf3>
    1d3e:	0e 94 50 1f 	call	0x3ea0	; 0x3ea0 <lround>
    1d42:	69 87       	std	Y+9, r22	; 0x09
    1d44:	7a 87       	std	Y+10, r23	; 0x0a
    1d46:	8b 87       	std	Y+11, r24	; 0x0b
    1d48:	9c 87       	std	Y+12, r25	; 0x0c
  // The target position of the tool in absolute steps
  
  // Calculate target position in absolute steps
  int32_t target[4];
  target[X_AXIS] = lround(x*settings.steps_per_mm[X_AXIS]);
  target[Y_AXIS] = lround(y*settings.steps_per_mm[Y_AXIS]);
    1d4a:	6f a1       	ldd	r22, Y+39	; 0x27
    1d4c:	78 a5       	ldd	r23, Y+40	; 0x28
    1d4e:	89 a5       	ldd	r24, Y+41	; 0x29
    1d50:	9a a5       	ldd	r25, Y+42	; 0x2a
    1d52:	2b a1       	ldd	r18, Y+35	; 0x23
    1d54:	3c a1       	ldd	r19, Y+36	; 0x24
    1d56:	4d a1       	ldd	r20, Y+37	; 0x25
    1d58:	5e a1       	ldd	r21, Y+38	; 0x26
    1d5a:	0e 94 b3 1f 	call	0x3f66	; 0x3f66 <__mulsf3>
    1d5e:	0e 94 50 1f 	call	0x3ea0	; 0x3ea0 <lround>
    1d62:	6d 83       	std	Y+5, r22	; 0x05
    1d64:	7e 83       	std	Y+6, r23	; 0x06
    1d66:	8f 83       	std	Y+7, r24	; 0x07
    1d68:	98 87       	std	Y+8, r25	; 0x08
	  
  // The target position of the tool in absolute steps
  
  // Calculate target position in absolute steps
  int32_t target[4];
  target[X_AXIS] = lround(x*settings.steps_per_mm[X_AXIS]);
    1d6a:	e9 82       	std	Y+1, r14	; 0x01
    1d6c:	fa 82       	std	Y+2, r15	; 0x02
    1d6e:	0b 83       	std	Y+3, r16	; 0x03
    1d70:	1c 83       	std	Y+4, r17	; 0x04
	// Rest here until there is room in the buffer.
  while(block_buffer_tail == next_buffer_head) { sleep_mode(); }
  // Prepare to set up new block
  block_t *block = &block_buffer[block_buffer_head];
  // Number of steps for each axis
  block->steps_x = labs(target[X_AXIS]-position[X_AXIS]);
    1d72:	e9 a1       	ldd	r30, Y+33	; 0x21
    1d74:	fa a1       	ldd	r31, Y+34	; 0x22
    1d76:	60 82       	st	Z, r6
    1d78:	71 82       	std	Z+1, r7	; 0x01
    1d7a:	82 82       	std	Z+2, r8	; 0x02
    1d7c:	93 82       	std	Z+3, r9	; 0x03
  block->steps_y = labs(target[Y_AXIS]-position[Y_AXIS]);
    1d7e:	2d 81       	ldd	r18, Y+5	; 0x05
    1d80:	3e 81       	ldd	r19, Y+6	; 0x06
    1d82:	4f 81       	ldd	r20, Y+7	; 0x07
    1d84:	58 85       	ldd	r21, Y+8	; 0x08
    1d86:	80 91 0a 05 	lds	r24, 0x050A
    1d8a:	90 91 0b 05 	lds	r25, 0x050B
    1d8e:	a0 91 0c 05 	lds	r26, 0x050C
    1d92:	b0 91 0d 05 	lds	r27, 0x050D
    1d96:	28 1b       	sub	r18, r24
    1d98:	39 0b       	sbc	r19, r25
    1d9a:	4a 0b       	sbc	r20, r26
    1d9c:	5b 0b       	sbc	r21, r27
    1d9e:	57 ff       	sbrs	r21, 7
    1da0:	07 c0       	rjmp	.+14     	; 0x1db0 <plan_buffer_line+0x1da>
    1da2:	50 95       	com	r21
    1da4:	40 95       	com	r20
    1da6:	30 95       	com	r19
    1da8:	21 95       	neg	r18
    1daa:	3f 4f       	sbci	r19, 0xFF	; 255
    1dac:	4f 4f       	sbci	r20, 0xFF	; 255
    1dae:	5f 4f       	sbci	r21, 0xFF	; 255
    1db0:	a9 a1       	ldd	r26, Y+33	; 0x21
    1db2:	ba a1       	ldd	r27, Y+34	; 0x22
    1db4:	14 96       	adiw	r26, 0x04	; 4
    1db6:	2d 93       	st	X+, r18
    1db8:	3d 93       	st	X+, r19
    1dba:	4d 93       	st	X+, r20
    1dbc:	5c 93       	st	X, r21
    1dbe:	17 97       	sbiw	r26, 0x07	; 7
  block->steps_z = labs(target[Z_AXIS]-position[Z_AXIS]);
    1dc0:	29 85       	ldd	r18, Y+9	; 0x09
    1dc2:	3a 85       	ldd	r19, Y+10	; 0x0a
    1dc4:	4b 85       	ldd	r20, Y+11	; 0x0b
    1dc6:	5c 85       	ldd	r21, Y+12	; 0x0c
    1dc8:	80 91 0e 05 	lds	r24, 0x050E
    1dcc:	90 91 0f 05 	lds	r25, 0x050F
    1dd0:	a0 91 10 05 	lds	r26, 0x0510
    1dd4:	b0 91 11 05 	lds	r27, 0x0511
    1dd8:	28 1b       	sub	r18, r24
    1dda:	39 0b       	sbc	r19, r25
    1ddc:	4a 0b       	sbc	r20, r26
    1dde:	5b 0b       	sbc	r21, r27
    1de0:	57 ff       	sbrs	r21, 7
    1de2:	07 c0       	rjmp	.+14     	; 0x1df2 <plan_buffer_line+0x21c>
    1de4:	50 95       	com	r21
    1de6:	40 95       	com	r20
    1de8:	30 95       	com	r19
    1dea:	21 95       	neg	r18
    1dec:	3f 4f       	sbci	r19, 0xFF	; 255
    1dee:	4f 4f       	sbci	r20, 0xFF	; 255
    1df0:	5f 4f       	sbci	r21, 0xFF	; 255
    1df2:	e9 a1       	ldd	r30, Y+33	; 0x21
    1df4:	fa a1       	ldd	r31, Y+34	; 0x22
    1df6:	20 87       	std	Z+8, r18	; 0x08
    1df8:	31 87       	std	Z+9, r19	; 0x09
    1dfa:	42 87       	std	Z+10, r20	; 0x0a
    1dfc:	53 87       	std	Z+11, r21	; 0x0b
  block->steps_c = labs(target[C_AXIS]-position[C_AXIS]);
    1dfe:	a0 90 12 05 	lds	r10, 0x0512
    1e02:	b0 90 13 05 	lds	r11, 0x0513
    1e06:	c0 90 14 05 	lds	r12, 0x0514
    1e0a:	d0 90 15 05 	lds	r13, 0x0515
    1e0e:	2d 85       	ldd	r18, Y+13	; 0x0d
    1e10:	3e 85       	ldd	r19, Y+14	; 0x0e
    1e12:	4f 85       	ldd	r20, Y+15	; 0x0f
    1e14:	58 89       	ldd	r21, Y+16	; 0x10
    1e16:	2a 19       	sub	r18, r10
    1e18:	3b 09       	sbc	r19, r11
    1e1a:	4c 09       	sbc	r20, r12
    1e1c:	5d 09       	sbc	r21, r13
    1e1e:	57 ff       	sbrs	r21, 7
    1e20:	07 c0       	rjmp	.+14     	; 0x1e30 <plan_buffer_line+0x25a>
    1e22:	50 95       	com	r21
    1e24:	40 95       	com	r20
    1e26:	30 95       	com	r19
    1e28:	21 95       	neg	r18
    1e2a:	3f 4f       	sbci	r19, 0xFF	; 255
    1e2c:	4f 4f       	sbci	r20, 0xFF	; 255
    1e2e:	5f 4f       	sbci	r21, 0xFF	; 255
    1e30:	a9 a1       	ldd	r26, Y+33	; 0x21
    1e32:	ba a1       	ldd	r27, Y+34	; 0x22
    1e34:	1c 96       	adiw	r26, 0x0c	; 12
    1e36:	2d 93       	st	X+, r18
    1e38:	3d 93       	st	X+, r19
    1e3a:	4d 93       	st	X+, r20
    1e3c:	5c 93       	st	X, r21
    1e3e:	1f 97       	sbiw	r26, 0x0f	; 15
  block->step_event_count = max(block->steps_x, max(block->steps_y, max(block->steps_z, block->steps_c)));  
    1e40:	18 96       	adiw	r26, 0x08	; 8
    1e42:	ed 90       	ld	r14, X+
    1e44:	fd 90       	ld	r15, X+
    1e46:	0d 91       	ld	r16, X+
    1e48:	1c 91       	ld	r17, X
    1e4a:	1b 97       	sbiw	r26, 0x0b	; 11
    1e4c:	fd 01       	movw	r30, r26
    1e4e:	84 81       	ldd	r24, Z+4	; 0x04
    1e50:	95 81       	ldd	r25, Z+5	; 0x05
    1e52:	a6 81       	ldd	r26, Z+6	; 0x06
    1e54:	b7 81       	ldd	r27, Z+7	; 0x07
    1e56:	8e 15       	cp	r24, r14
    1e58:	9f 05       	cpc	r25, r15
    1e5a:	a0 07       	cpc	r26, r16
    1e5c:	b1 07       	cpc	r27, r17
    1e5e:	10 f4       	brcc	.+4      	; 0x1e64 <plan_buffer_line+0x28e>
    1e60:	d8 01       	movw	r26, r16
    1e62:	c7 01       	movw	r24, r14
    1e64:	e9 a1       	ldd	r30, Y+33	; 0x21
    1e66:	fa a1       	ldd	r31, Y+34	; 0x22
    1e68:	e0 80       	ld	r14, Z
    1e6a:	f1 80       	ldd	r15, Z+1	; 0x01
    1e6c:	02 81       	ldd	r16, Z+2	; 0x02
    1e6e:	13 81       	ldd	r17, Z+3	; 0x03
    1e70:	8e 15       	cp	r24, r14
    1e72:	9f 05       	cpc	r25, r15
    1e74:	a0 07       	cpc	r26, r16
    1e76:	b1 07       	cpc	r27, r17
    1e78:	10 f4       	brcc	.+4      	; 0x1e7e <plan_buffer_line+0x2a8>
    1e7a:	d8 01       	movw	r26, r16
    1e7c:	c7 01       	movw	r24, r14
    1e7e:	82 17       	cp	r24, r18
    1e80:	93 07       	cpc	r25, r19
    1e82:	a4 07       	cpc	r26, r20
    1e84:	b5 07       	cpc	r27, r21
    1e86:	10 f4       	brcc	.+4      	; 0x1e8c <plan_buffer_line+0x2b6>
    1e88:	da 01       	movw	r26, r20
    1e8a:	c9 01       	movw	r24, r18
    1e8c:	e9 a1       	ldd	r30, Y+33	; 0x21
    1e8e:	fa a1       	ldd	r31, Y+34	; 0x22
    1e90:	81 8b       	std	Z+17, r24	; 0x11
    1e92:	92 8b       	std	Z+18, r25	; 0x12
    1e94:	a3 8b       	std	Z+19, r26	; 0x13
    1e96:	b4 8b       	std	Z+20, r27	; 0x14
  // Bail if this is a zero-length block
  if (block->step_event_count == 0) { return; };
    1e98:	00 97       	sbiw	r24, 0x00	; 0
    1e9a:	a1 05       	cpc	r26, r1
    1e9c:	b1 05       	cpc	r27, r1
    1e9e:	09 f4       	brne	.+2      	; 0x1ea2 <plan_buffer_line+0x2cc>
    1ea0:	39 c2       	rjmp	.+1138   	; 0x2314 <__stack+0x115>
  
  double delta_x_mm = (target[X_AXIS]-position[X_AXIS])/settings.steps_per_mm[X_AXIS];
    1ea2:	69 81       	ldd	r22, Y+1	; 0x01
    1ea4:	7a 81       	ldd	r23, Y+2	; 0x02
    1ea6:	8b 81       	ldd	r24, Y+3	; 0x03
    1ea8:	9c 81       	ldd	r25, Y+4	; 0x04
    1eaa:	20 91 06 05 	lds	r18, 0x0506
    1eae:	30 91 07 05 	lds	r19, 0x0507
    1eb2:	40 91 08 05 	lds	r20, 0x0508
    1eb6:	50 91 09 05 	lds	r21, 0x0509
    1eba:	62 1b       	sub	r22, r18
    1ebc:	73 0b       	sbc	r23, r19
    1ebe:	84 0b       	sbc	r24, r20
    1ec0:	95 0b       	sbc	r25, r21
    1ec2:	0e 94 1d 1e 	call	0x3c3a	; 0x3c3a <__floatsisf>
    1ec6:	20 91 74 06 	lds	r18, 0x0674
    1eca:	30 91 75 06 	lds	r19, 0x0675
    1ece:	40 91 76 06 	lds	r20, 0x0676
    1ed2:	50 91 77 06 	lds	r21, 0x0677
    1ed6:	0e 94 82 1d 	call	0x3b04	; 0x3b04 <__divsf3>
    1eda:	6d 8f       	std	Y+29, r22	; 0x1d
    1edc:	7e 8f       	std	Y+30, r23	; 0x1e
    1ede:	8f 8f       	std	Y+31, r24	; 0x1f
    1ee0:	98 a3       	std	Y+32, r25	; 0x20
  double delta_y_mm = (target[Y_AXIS]-position[Y_AXIS])/settings.steps_per_mm[Y_AXIS];
    1ee2:	6d 81       	ldd	r22, Y+5	; 0x05
    1ee4:	7e 81       	ldd	r23, Y+6	; 0x06
    1ee6:	8f 81       	ldd	r24, Y+7	; 0x07
    1ee8:	98 85       	ldd	r25, Y+8	; 0x08
    1eea:	20 91 0a 05 	lds	r18, 0x050A
    1eee:	30 91 0b 05 	lds	r19, 0x050B
    1ef2:	40 91 0c 05 	lds	r20, 0x050C
    1ef6:	50 91 0d 05 	lds	r21, 0x050D
    1efa:	62 1b       	sub	r22, r18
    1efc:	73 0b       	sbc	r23, r19
    1efe:	84 0b       	sbc	r24, r20
    1f00:	95 0b       	sbc	r25, r21
    1f02:	0e 94 1d 1e 	call	0x3c3a	; 0x3c3a <__floatsisf>
    1f06:	20 91 78 06 	lds	r18, 0x0678
    1f0a:	30 91 79 06 	lds	r19, 0x0679
    1f0e:	40 91 7a 06 	lds	r20, 0x067A
    1f12:	50 91 7b 06 	lds	r21, 0x067B
    1f16:	0e 94 82 1d 	call	0x3b04	; 0x3b04 <__divsf3>
    1f1a:	69 8f       	std	Y+25, r22	; 0x19
    1f1c:	7a 8f       	std	Y+26, r23	; 0x1a
    1f1e:	8b 8f       	std	Y+27, r24	; 0x1b
    1f20:	9c 8f       	std	Y+28, r25	; 0x1c
  double delta_z_mm = (target[Z_AXIS]-position[Z_AXIS])/settings.steps_per_mm[Z_AXIS];
    1f22:	69 85       	ldd	r22, Y+9	; 0x09
    1f24:	7a 85       	ldd	r23, Y+10	; 0x0a
    1f26:	8b 85       	ldd	r24, Y+11	; 0x0b
    1f28:	9c 85       	ldd	r25, Y+12	; 0x0c
    1f2a:	20 91 0e 05 	lds	r18, 0x050E
    1f2e:	30 91 0f 05 	lds	r19, 0x050F
    1f32:	40 91 10 05 	lds	r20, 0x0510
    1f36:	50 91 11 05 	lds	r21, 0x0511
    1f3a:	62 1b       	sub	r22, r18
    1f3c:	73 0b       	sbc	r23, r19
    1f3e:	84 0b       	sbc	r24, r20
    1f40:	95 0b       	sbc	r25, r21
    1f42:	0e 94 1d 1e 	call	0x3c3a	; 0x3c3a <__floatsisf>
    1f46:	20 91 7c 06 	lds	r18, 0x067C
    1f4a:	30 91 7d 06 	lds	r19, 0x067D
    1f4e:	40 91 7e 06 	lds	r20, 0x067E
    1f52:	50 91 7f 06 	lds	r21, 0x067F
    1f56:	0e 94 82 1d 	call	0x3b04	; 0x3b04 <__divsf3>
    1f5a:	6d 8b       	std	Y+21, r22	; 0x15
    1f5c:	7e 8b       	std	Y+22, r23	; 0x16
    1f5e:	8f 8b       	std	Y+23, r24	; 0x17
    1f60:	98 8f       	std	Y+24, r25	; 0x18
  // G: Treat rotational C axis as if linear (in mm). In settings.h, set steps_per_mm[C_AXIS] 
  //    such that 360.0mm = 1 revolution (360 degrees). In other words, 1mm = 1 degree of rotation.
  //    The C axis feedrate will then be in units of, "degrees per minute" and the coordinates in 
  //    angular degrees.
  double delta_c_mm = (target[C_AXIS]-position[C_AXIS])/settings.steps_per_mm[C_AXIS];
    1f62:	6d 85       	ldd	r22, Y+13	; 0x0d
    1f64:	7e 85       	ldd	r23, Y+14	; 0x0e
    1f66:	8f 85       	ldd	r24, Y+15	; 0x0f
    1f68:	98 89       	ldd	r25, Y+16	; 0x10
    1f6a:	6a 19       	sub	r22, r10
    1f6c:	7b 09       	sbc	r23, r11
    1f6e:	8c 09       	sbc	r24, r12
    1f70:	9d 09       	sbc	r25, r13
    1f72:	0e 94 1d 1e 	call	0x3c3a	; 0x3c3a <__floatsisf>
    1f76:	20 91 80 06 	lds	r18, 0x0680
    1f7a:	30 91 81 06 	lds	r19, 0x0681
    1f7e:	40 91 82 06 	lds	r20, 0x0682
    1f82:	50 91 83 06 	lds	r21, 0x0683
    1f86:	0e 94 82 1d 	call	0x3b04	; 0x3b04 <__divsf3>
    1f8a:	69 8b       	std	Y+17, r22	; 0x11
    1f8c:	7a 8b       	std	Y+18, r23	; 0x12
    1f8e:	8b 8b       	std	Y+19, r24	; 0x13
    1f90:	9c 8b       	std	Y+20, r25	; 0x14
  block->millimeters = sqrt(square(delta_x_mm) + square(delta_y_mm) + square(delta_z_mm) + square(delta_c_mm));	
    1f92:	6d 8d       	ldd	r22, Y+29	; 0x1d
    1f94:	7e 8d       	ldd	r23, Y+30	; 0x1e
    1f96:	8f 8d       	ldd	r24, Y+31	; 0x1f
    1f98:	98 a1       	ldd	r25, Y+32	; 0x20
    1f9a:	0e 94 78 20 	call	0x40f0	; 0x40f0 <square>
    1f9e:	3b 01       	movw	r6, r22
    1fa0:	4c 01       	movw	r8, r24
    1fa2:	69 8d       	ldd	r22, Y+25	; 0x19
    1fa4:	7a 8d       	ldd	r23, Y+26	; 0x1a
    1fa6:	8b 8d       	ldd	r24, Y+27	; 0x1b
    1fa8:	9c 8d       	ldd	r25, Y+28	; 0x1c
    1faa:	0e 94 78 20 	call	0x40f0	; 0x40f0 <square>
    1fae:	7b 01       	movw	r14, r22
    1fb0:	8c 01       	movw	r16, r24
    1fb2:	6d 89       	ldd	r22, Y+21	; 0x15
    1fb4:	7e 89       	ldd	r23, Y+22	; 0x16
    1fb6:	8f 89       	ldd	r24, Y+23	; 0x17
    1fb8:	98 8d       	ldd	r25, Y+24	; 0x18
    1fba:	0e 94 78 20 	call	0x40f0	; 0x40f0 <square>
    1fbe:	5b 01       	movw	r10, r22
    1fc0:	6c 01       	movw	r12, r24
    1fc2:	69 89       	ldd	r22, Y+17	; 0x11
    1fc4:	7a 89       	ldd	r23, Y+18	; 0x12
    1fc6:	8b 89       	ldd	r24, Y+19	; 0x13
    1fc8:	9c 89       	ldd	r25, Y+20	; 0x14
    1fca:	0e 94 78 20 	call	0x40f0	; 0x40f0 <square>
    1fce:	1b 01       	movw	r2, r22
    1fd0:	2c 01       	movw	r4, r24
    1fd2:	c4 01       	movw	r24, r8
    1fd4:	b3 01       	movw	r22, r6
    1fd6:	a8 01       	movw	r20, r16
    1fd8:	97 01       	movw	r18, r14
    1fda:	0e 94 df 1c 	call	0x39be	; 0x39be <__addsf3>
    1fde:	a6 01       	movw	r20, r12
    1fe0:	95 01       	movw	r18, r10
    1fe2:	0e 94 df 1c 	call	0x39be	; 0x39be <__addsf3>
    1fe6:	a2 01       	movw	r20, r4
    1fe8:	91 01       	movw	r18, r2
    1fea:	0e 94 df 1c 	call	0x39be	; 0x39be <__addsf3>
    1fee:	0e 94 3a 20 	call	0x4074	; 0x4074 <sqrt>
    1ff2:	9b 01       	movw	r18, r22
    1ff4:	ac 01       	movw	r20, r24
    1ff6:	a9 a1       	ldd	r26, Y+33	; 0x21
    1ff8:	ba a1       	ldd	r27, Y+34	; 0x22
    1ffa:	9d 96       	adiw	r26, 0x2d	; 45
    1ffc:	6d 93       	st	X+, r22
    1ffe:	7d 93       	st	X+, r23
    2000:	8d 93       	st	X+, r24
    2002:	9c 93       	st	X, r25
    2004:	d0 97       	sbiw	r26, 0x30	; 48
  
  uint32_t microseconds;
  if (!invert_feed_rate) {
    2006:	60 96       	adiw	r28, 0x10	; 16
    2008:	8e ad       	ldd	r24, Y+62	; 0x3e
    200a:	9f ad       	ldd	r25, Y+63	; 0x3f
    200c:	60 97       	sbiw	r28, 0x10	; 16
    200e:	89 2b       	or	r24, r25
    2010:	89 f4       	brne	.+34     	; 0x2034 <plan_buffer_line+0x45e>
    microseconds = lround((block->millimeters/feed_rate)*1000000);
    2012:	ca 01       	movw	r24, r20
    2014:	b9 01       	movw	r22, r18
    2016:	2e 96       	adiw	r28, 0x0e	; 14
    2018:	2c ad       	ldd	r18, Y+60	; 0x3c
    201a:	3d ad       	ldd	r19, Y+61	; 0x3d
    201c:	4e ad       	ldd	r20, Y+62	; 0x3e
    201e:	5f ad       	ldd	r21, Y+63	; 0x3f
    2020:	2e 97       	sbiw	r28, 0x0e	; 14
    2022:	0e 94 82 1d 	call	0x3b04	; 0x3b04 <__divsf3>
    2026:	20 e0       	ldi	r18, 0x00	; 0
    2028:	34 e2       	ldi	r19, 0x24	; 36
    202a:	44 e7       	ldi	r20, 0x74	; 116
    202c:	59 e4       	ldi	r21, 0x49	; 73
    202e:	0e 94 b3 1f 	call	0x3f66	; 0x3f66 <__mulsf3>
    2032:	0c c0       	rjmp	.+24     	; 0x204c <plan_buffer_line+0x476>
  } else {
    microseconds = lround(ONE_MINUTE_OF_MICROSECONDS/feed_rate);
    2034:	60 ec       	ldi	r22, 0xC0	; 192
    2036:	71 ee       	ldi	r23, 0xE1	; 225
    2038:	84 e6       	ldi	r24, 0x64	; 100
    203a:	9c e4       	ldi	r25, 0x4C	; 76
    203c:	2e 96       	adiw	r28, 0x0e	; 14
    203e:	2c ad       	ldd	r18, Y+60	; 0x3c
    2040:	3d ad       	ldd	r19, Y+61	; 0x3d
    2042:	4e ad       	ldd	r20, Y+62	; 0x3e
    2044:	5f ad       	ldd	r21, Y+63	; 0x3f
    2046:	2e 97       	sbiw	r28, 0x0e	; 14
    2048:	0e 94 82 1d 	call	0x3b04	; 0x3b04 <__divsf3>
    204c:	0e 94 50 1f 	call	0x3ea0	; 0x3ea0 <lround>
    2050:	ac 01       	movw	r20, r24
    2052:	cb 01       	movw	r24, r22
    2054:	da 01       	movw	r26, r20
    2056:	bc 01       	movw	r22, r24
    2058:	cd 01       	movw	r24, r26
  }
  
  // Calculate speed in mm/minute for each axis
  double multiplier = 60.0*1000000.0/microseconds;
    205a:	0e 94 1b 1e 	call	0x3c36	; 0x3c36 <__floatunsisf>
    205e:	9b 01       	movw	r18, r22
    2060:	ac 01       	movw	r20, r24
    2062:	60 ec       	ldi	r22, 0xC0	; 192
    2064:	71 ee       	ldi	r23, 0xE1	; 225
    2066:	84 e6       	ldi	r24, 0x64	; 100
    2068:	9c e4       	ldi	r25, 0x4C	; 76
    206a:	0e 94 82 1d 	call	0x3b04	; 0x3b04 <__divsf3>
    206e:	7b 01       	movw	r14, r22
    2070:	8c 01       	movw	r16, r24
  block->speed_x = delta_x_mm * multiplier;
    2072:	6d 8d       	ldd	r22, Y+29	; 0x1d
    2074:	7e 8d       	ldd	r23, Y+30	; 0x1e
    2076:	8f 8d       	ldd	r24, Y+31	; 0x1f
    2078:	98 a1       	ldd	r25, Y+32	; 0x20
    207a:	a8 01       	movw	r20, r16
    207c:	97 01       	movw	r18, r14
    207e:	0e 94 b3 1f 	call	0x3f66	; 0x3f66 <__mulsf3>
    2082:	e9 a1       	ldd	r30, Y+33	; 0x21
    2084:	fa a1       	ldd	r31, Y+34	; 0x22
    2086:	61 8f       	std	Z+25, r22	; 0x19
    2088:	72 8f       	std	Z+26, r23	; 0x1a
    208a:	83 8f       	std	Z+27, r24	; 0x1b
    208c:	94 8f       	std	Z+28, r25	; 0x1c
  block->speed_y = delta_y_mm * multiplier;
    208e:	69 8d       	ldd	r22, Y+25	; 0x19
    2090:	7a 8d       	ldd	r23, Y+26	; 0x1a
    2092:	8b 8d       	ldd	r24, Y+27	; 0x1b
    2094:	9c 8d       	ldd	r25, Y+28	; 0x1c
    2096:	a8 01       	movw	r20, r16
    2098:	97 01       	movw	r18, r14
    209a:	0e 94 b3 1f 	call	0x3f66	; 0x3f66 <__mulsf3>
    209e:	a9 a1       	ldd	r26, Y+33	; 0x21
    20a0:	ba a1       	ldd	r27, Y+34	; 0x22
    20a2:	5d 96       	adiw	r26, 0x1d	; 29
    20a4:	6d 93       	st	X+, r22
    20a6:	7d 93       	st	X+, r23
    20a8:	8d 93       	st	X+, r24
    20aa:	9c 93       	st	X, r25
    20ac:	90 97       	sbiw	r26, 0x20	; 32
  block->speed_z = delta_z_mm * multiplier;
    20ae:	6d 89       	ldd	r22, Y+21	; 0x15
    20b0:	7e 89       	ldd	r23, Y+22	; 0x16
    20b2:	8f 89       	ldd	r24, Y+23	; 0x17
    20b4:	98 8d       	ldd	r25, Y+24	; 0x18
    20b6:	a8 01       	movw	r20, r16
    20b8:	97 01       	movw	r18, r14
    20ba:	0e 94 b3 1f 	call	0x3f66	; 0x3f66 <__mulsf3>
    20be:	e9 a1       	ldd	r30, Y+33	; 0x21
    20c0:	fa a1       	ldd	r31, Y+34	; 0x22
    20c2:	61 a3       	std	Z+33, r22	; 0x21
    20c4:	72 a3       	std	Z+34, r23	; 0x22
    20c6:	83 a3       	std	Z+35, r24	; 0x23
    20c8:	94 a3       	std	Z+36, r25	; 0x24
  block->speed_c = delta_c_mm * multiplier;
    20ca:	69 89       	ldd	r22, Y+17	; 0x11
    20cc:	7a 89       	ldd	r23, Y+18	; 0x12
    20ce:	8b 89       	ldd	r24, Y+19	; 0x13
    20d0:	9c 89       	ldd	r25, Y+20	; 0x14
    20d2:	a8 01       	movw	r20, r16
    20d4:	97 01       	movw	r18, r14
    20d6:	0e 94 b3 1f 	call	0x3f66	; 0x3f66 <__mulsf3>
    20da:	a9 a1       	ldd	r26, Y+33	; 0x21
    20dc:	ba a1       	ldd	r27, Y+34	; 0x22
    20de:	95 96       	adiw	r26, 0x25	; 37
    20e0:	6d 93       	st	X+, r22
    20e2:	7d 93       	st	X+, r23
    20e4:	8d 93       	st	X+, r24
    20e6:	9c 93       	st	X, r25
    20e8:	98 97       	sbiw	r26, 0x28	; 40
  block->nominal_speed = block->millimeters * multiplier;
    20ea:	9d 96       	adiw	r26, 0x2d	; 45
    20ec:	6d 91       	ld	r22, X+
    20ee:	7d 91       	ld	r23, X+
    20f0:	8d 91       	ld	r24, X+
    20f2:	9c 91       	ld	r25, X
    20f4:	d0 97       	sbiw	r26, 0x30	; 48
    20f6:	a8 01       	movw	r20, r16
    20f8:	97 01       	movw	r18, r14
    20fa:	0e 94 b3 1f 	call	0x3f66	; 0x3f66 <__mulsf3>
    20fe:	e9 a1       	ldd	r30, Y+33	; 0x21
    2100:	fa a1       	ldd	r31, Y+34	; 0x22
    2102:	61 a7       	std	Z+41, r22	; 0x29
    2104:	72 a7       	std	Z+42, r23	; 0x2a
    2106:	83 a7       	std	Z+43, r24	; 0x2b
    2108:	94 a7       	std	Z+44, r25	; 0x2c
  block->nominal_rate = ceil(block->step_event_count * multiplier);  
    210a:	61 89       	ldd	r22, Z+17	; 0x11
    210c:	72 89       	ldd	r23, Z+18	; 0x12
    210e:	83 89       	ldd	r24, Z+19	; 0x13
    2110:	94 89       	ldd	r25, Z+20	; 0x14
    2112:	0e 94 1d 1e 	call	0x3c3a	; 0x3c3a <__floatsisf>
    2116:	5b 01       	movw	r10, r22
    2118:	6c 01       	movw	r12, r24
    211a:	a8 01       	movw	r20, r16
    211c:	97 01       	movw	r18, r14
    211e:	0e 94 b3 1f 	call	0x3f66	; 0x3f66 <__mulsf3>
    2122:	0e 94 6b 1d 	call	0x3ad6	; 0x3ad6 <ceil>
    2126:	0e 94 ef 1d 	call	0x3bde	; 0x3bde <__fixunssfsi>
    212a:	3b 01       	movw	r6, r22
    212c:	4c 01       	movw	r8, r24
    212e:	a9 a1       	ldd	r26, Y+33	; 0x21
    2130:	ba a1       	ldd	r27, Y+34	; 0x22
    2132:	55 96       	adiw	r26, 0x15	; 21
    2134:	6d 93       	st	X+, r22
    2136:	7d 93       	st	X+, r23
    2138:	8d 93       	st	X+, r24
    213a:	9c 93       	st	X, r25
    213c:	58 97       	sbiw	r26, 0x18	; 24
  block->entry_factor = 0.0;
    213e:	80 e0       	ldi	r24, 0x00	; 0
    2140:	90 e0       	ldi	r25, 0x00	; 0
    2142:	a0 e0       	ldi	r26, 0x00	; 0
    2144:	b0 e0       	ldi	r27, 0x00	; 0
    2146:	e9 a1       	ldd	r30, Y+33	; 0x21
    2148:	fa a1       	ldd	r31, Y+34	; 0x22
    214a:	81 ab       	std	Z+49, r24	; 0x31
    214c:	92 ab       	std	Z+50, r25	; 0x32
    214e:	a3 ab       	std	Z+51, r26	; 0x33
    2150:	b4 ab       	std	Z+52, r27	; 0x34
  // is equal to the travel/step in the particular axis. For a 45 degree line the steppers of both
  // axes might step for every step event. Travel per step event is then sqrt(travel_x^2+travel_y^2).
  // To generate trapezoids with contant acceleration between blocks the rate_delta must be computed 
  // specifically for each line to compensate for this phenomenon:
  double travel_per_step = block->millimeters/block->step_event_count;
  block->rate_delta = ceil(
    2152:	60 91 92 06 	lds	r22, 0x0692
    2156:	70 91 93 06 	lds	r23, 0x0693
    215a:	80 91 94 06 	lds	r24, 0x0694
    215e:	90 91 95 06 	lds	r25, 0x0695
    2162:	20 e0       	ldi	r18, 0x00	; 0
    2164:	30 e0       	ldi	r19, 0x00	; 0
    2166:	40 e7       	ldi	r20, 0x70	; 112
    2168:	52 e4       	ldi	r21, 0x42	; 66
    216a:	0e 94 b3 1f 	call	0x3f66	; 0x3f66 <__mulsf3>
    216e:	20 e0       	ldi	r18, 0x00	; 0
    2170:	30 e0       	ldi	r19, 0x00	; 0
    2172:	40 e2       	ldi	r20, 0x20	; 32
    2174:	52 e4       	ldi	r21, 0x42	; 66
    2176:	0e 94 82 1d 	call	0x3b04	; 0x3b04 <__divsf3>
    217a:	7b 01       	movw	r14, r22
    217c:	8c 01       	movw	r16, r24
    217e:	a9 a1       	ldd	r26, Y+33	; 0x21
    2180:	ba a1       	ldd	r27, Y+34	; 0x22
    2182:	9d 96       	adiw	r26, 0x2d	; 45
    2184:	6d 91       	ld	r22, X+
    2186:	7d 91       	ld	r23, X+
    2188:	8d 91       	ld	r24, X+
    218a:	9c 91       	ld	r25, X
    218c:	d0 97       	sbiw	r26, 0x30	; 48
    218e:	a6 01       	movw	r20, r12
    2190:	95 01       	movw	r18, r10
    2192:	0e 94 82 1d 	call	0x3b04	; 0x3b04 <__divsf3>
    2196:	9b 01       	movw	r18, r22
    2198:	ac 01       	movw	r20, r24
    219a:	c8 01       	movw	r24, r16
    219c:	b7 01       	movw	r22, r14
    219e:	0e 94 82 1d 	call	0x3b04	; 0x3b04 <__divsf3>
    21a2:	0e 94 6b 1d 	call	0x3ad6	; 0x3ad6 <ceil>
    21a6:	09 a1       	ldd	r16, Y+33	; 0x21
    21a8:	1a a1       	ldd	r17, Y+34	; 0x22
    21aa:	03 5c       	subi	r16, 0xC3	; 195
    21ac:	1f 4f       	sbci	r17, 0xFF	; 255
    21ae:	0e 94 ea 1d 	call	0x3bd4	; 0x3bd4 <__fixsfsi>
    21b2:	f8 01       	movw	r30, r16
    21b4:	60 83       	st	Z, r22
    21b6:	71 83       	std	Z+1, r23	; 0x01
    21b8:	82 83       	std	Z+2, r24	; 0x02
    21ba:	93 83       	std	Z+3, r25	; 0x03
    ((settings.acceleration*60.0)/(ACCELERATION_TICKS_PER_SECOND))/ // acceleration mm/sec/sec per acceleration_tick
    travel_per_step);                                               // convert to: acceleration steps/min/acceleration_tick    
  if (acceleration_manager_enabled) {
    21bc:	80 91 16 05 	lds	r24, 0x0516
    21c0:	88 23       	and	r24, r24
    21c2:	69 f0       	breq	.+26     	; 0x21de <plan_buffer_line+0x608>
    // compute a preliminary conservative acceleration trapezoid
    double safe_speed_factor = factor_for_safe_speed(block);
    21c4:	89 a1       	ldd	r24, Y+33	; 0x21
    21c6:	9a a1       	ldd	r25, Y+34	; 0x22
    21c8:	0e 94 16 09 	call	0x122c	; 0x122c <factor_for_safe_speed>
    21cc:	8b 01       	movw	r16, r22
    21ce:	9c 01       	movw	r18, r24
    calculate_trapezoid_for_block(block, safe_speed_factor, safe_speed_factor); 
    21d0:	89 a1       	ldd	r24, Y+33	; 0x21
    21d2:	9a a1       	ldd	r25, Y+34	; 0x22
    21d4:	b9 01       	movw	r22, r18
    21d6:	a8 01       	movw	r20, r16
    21d8:	0e 94 47 0c 	call	0x188e	; 0x188e <calculate_trapezoid_for_block>
    21dc:	26 c0       	rjmp	.+76     	; 0x222a <__stack+0x2b>
  } else {
    block->initial_rate = block->nominal_rate;
    21de:	a9 a1       	ldd	r26, Y+33	; 0x21
    21e0:	ba a1       	ldd	r27, Y+34	; 0x22
    21e2:	d5 96       	adiw	r26, 0x35	; 53
    21e4:	6d 92       	st	X+, r6
    21e6:	7d 92       	st	X+, r7
    21e8:	8d 92       	st	X+, r8
    21ea:	9c 92       	st	X, r9
    21ec:	d8 97       	sbiw	r26, 0x38	; 56
    block->final_rate = block->nominal_rate;
    21ee:	fd 01       	movw	r30, r26
    21f0:	61 ae       	std	Z+57, r6	; 0x39
    21f2:	72 ae       	std	Z+58, r7	; 0x3a
    21f4:	83 ae       	std	Z+59, r8	; 0x3b
    21f6:	94 ae       	std	Z+60, r9	; 0x3c
    block->accelerate_until = 0;
    21f8:	ef 5b       	subi	r30, 0xBF	; 191
    21fa:	ff 4f       	sbci	r31, 0xFF	; 255
    21fc:	10 82       	st	Z, r1
    21fe:	11 82       	std	Z+1, r1	; 0x01
    2200:	12 82       	std	Z+2, r1	; 0x02
    2202:	13 82       	std	Z+3, r1	; 0x03
    block->decelerate_after = block->step_event_count;
    2204:	9d 01       	movw	r18, r26
    2206:	2b 5b       	subi	r18, 0xBB	; 187
    2208:	3f 4f       	sbci	r19, 0xFF	; 255
    220a:	fd 01       	movw	r30, r26
    220c:	81 89       	ldd	r24, Z+17	; 0x11
    220e:	92 89       	ldd	r25, Z+18	; 0x12
    2210:	a3 89       	ldd	r26, Z+19	; 0x13
    2212:	b4 89       	ldd	r27, Z+20	; 0x14
    2214:	f9 01       	movw	r30, r18
    2216:	80 83       	st	Z, r24
    2218:	91 83       	std	Z+1, r25	; 0x01
    221a:	a2 83       	std	Z+2, r26	; 0x02
    221c:	b3 83       	std	Z+3, r27	; 0x03
    block->rate_delta = 0;
    221e:	d8 01       	movw	r26, r16
    2220:	1d 92       	st	X+, r1
    2222:	1d 92       	st	X+, r1
    2224:	1d 92       	st	X+, r1
    2226:	1c 92       	st	X, r1
    2228:	13 97       	sbiw	r26, 0x03	; 3
  }
  
  // Compute direction bits for this block
  block->direction_bits = 0;
    222a:	e9 a1       	ldd	r30, Y+33	; 0x21
    222c:	fa a1       	ldd	r31, Y+34	; 0x22
    222e:	10 8a       	std	Z+16, r1	; 0x10
  if (target[X_AXIS] < position[X_AXIS]) { block->direction_bits |= (1<<X_DIRECTION_BIT); }
    2230:	29 81       	ldd	r18, Y+1	; 0x01
    2232:	3a 81       	ldd	r19, Y+2	; 0x02
    2234:	4b 81       	ldd	r20, Y+3	; 0x03
    2236:	5c 81       	ldd	r21, Y+4	; 0x04
    2238:	80 91 06 05 	lds	r24, 0x0506
    223c:	90 91 07 05 	lds	r25, 0x0507
    2240:	a0 91 08 05 	lds	r26, 0x0508
    2244:	b0 91 09 05 	lds	r27, 0x0509
    2248:	28 17       	cp	r18, r24
    224a:	39 07       	cpc	r19, r25
    224c:	4a 07       	cpc	r20, r26
    224e:	5b 07       	cpc	r21, r27
    2250:	14 f4       	brge	.+4      	; 0x2256 <__stack+0x57>
    2252:	82 e0       	ldi	r24, 0x02	; 2
    2254:	80 8b       	std	Z+16, r24	; 0x10
  if (target[Y_AXIS] < position[Y_AXIS]) { block->direction_bits |= (1<<Y_DIRECTION_BIT); }
    2256:	2d 81       	ldd	r18, Y+5	; 0x05
    2258:	3e 81       	ldd	r19, Y+6	; 0x06
    225a:	4f 81       	ldd	r20, Y+7	; 0x07
    225c:	58 85       	ldd	r21, Y+8	; 0x08
    225e:	80 91 0a 05 	lds	r24, 0x050A
    2262:	90 91 0b 05 	lds	r25, 0x050B
    2266:	a0 91 0c 05 	lds	r26, 0x050C
    226a:	b0 91 0d 05 	lds	r27, 0x050D
    226e:	28 17       	cp	r18, r24
    2270:	39 07       	cpc	r19, r25
    2272:	4a 07       	cpc	r20, r26
    2274:	5b 07       	cpc	r21, r27
    2276:	44 f4       	brge	.+16     	; 0x2288 <__stack+0x89>
    2278:	a9 a1       	ldd	r26, Y+33	; 0x21
    227a:	ba a1       	ldd	r27, Y+34	; 0x22
    227c:	50 96       	adiw	r26, 0x10	; 16
    227e:	8c 91       	ld	r24, X
    2280:	50 97       	sbiw	r26, 0x10	; 16
    2282:	88 60       	ori	r24, 0x08	; 8
    2284:	50 96       	adiw	r26, 0x10	; 16
    2286:	8c 93       	st	X, r24
  if (target[Z_AXIS] < position[Z_AXIS]) { block->direction_bits |= (1<<Z_DIRECTION_BIT); }
    2288:	29 85       	ldd	r18, Y+9	; 0x09
    228a:	3a 85       	ldd	r19, Y+10	; 0x0a
    228c:	4b 85       	ldd	r20, Y+11	; 0x0b
    228e:	5c 85       	ldd	r21, Y+12	; 0x0c
    2290:	80 91 0e 05 	lds	r24, 0x050E
    2294:	90 91 0f 05 	lds	r25, 0x050F
    2298:	a0 91 10 05 	lds	r26, 0x0510
    229c:	b0 91 11 05 	lds	r27, 0x0511
    22a0:	28 17       	cp	r18, r24
    22a2:	39 07       	cpc	r19, r25
    22a4:	4a 07       	cpc	r20, r26
    22a6:	5b 07       	cpc	r21, r27
    22a8:	2c f4       	brge	.+10     	; 0x22b4 <__stack+0xb5>
    22aa:	e9 a1       	ldd	r30, Y+33	; 0x21
    22ac:	fa a1       	ldd	r31, Y+34	; 0x22
    22ae:	80 89       	ldd	r24, Z+16	; 0x10
    22b0:	80 64       	ori	r24, 0x40	; 64
    22b2:	80 8b       	std	Z+16, r24	; 0x10
  if (target[C_AXIS] < position[C_AXIS]) { block->direction_bits |= (1<<C_DIRECTION_BIT); }
    22b4:	2d 85       	ldd	r18, Y+13	; 0x0d
    22b6:	3e 85       	ldd	r19, Y+14	; 0x0e
    22b8:	4f 85       	ldd	r20, Y+15	; 0x0f
    22ba:	58 89       	ldd	r21, Y+16	; 0x10
    22bc:	80 91 12 05 	lds	r24, 0x0512
    22c0:	90 91 13 05 	lds	r25, 0x0513
    22c4:	a0 91 14 05 	lds	r26, 0x0514
    22c8:	b0 91 15 05 	lds	r27, 0x0515
    22cc:	28 17       	cp	r18, r24
    22ce:	39 07       	cpc	r19, r25
    22d0:	4a 07       	cpc	r20, r26
    22d2:	5b 07       	cpc	r21, r27
    22d4:	44 f4       	brge	.+16     	; 0x22e6 <__stack+0xe7>
    22d6:	a9 a1       	ldd	r26, Y+33	; 0x21
    22d8:	ba a1       	ldd	r27, Y+34	; 0x22
    22da:	50 96       	adiw	r26, 0x10	; 16
    22dc:	8c 91       	ld	r24, X
    22de:	50 97       	sbiw	r26, 0x10	; 16
    22e0:	80 68       	ori	r24, 0x80	; 128
    22e2:	50 96       	adiw	r26, 0x10	; 16
    22e4:	8c 93       	st	X, r24
  
  // Move buffer head
  block_buffer_head = next_buffer_head;     
    22e6:	eb a9       	ldd	r30, Y+51	; 0x33
    22e8:	fc a9       	ldd	r31, Y+52	; 0x34
    22ea:	f0 93 03 05 	sts	0x0503, r31
    22ee:	e0 93 02 05 	sts	0x0502, r30
  // Update position 
  memcpy(position, target, sizeof(target)); // position[] = target[]
    22f2:	a6 e0       	ldi	r26, 0x06	; 6
    22f4:	b5 e0       	ldi	r27, 0x05	; 5
    22f6:	fe 01       	movw	r30, r28
    22f8:	31 96       	adiw	r30, 0x01	; 1
    22fa:	80 e1       	ldi	r24, 0x10	; 16
    22fc:	01 90       	ld	r0, Z+
    22fe:	0d 92       	st	X+, r0
    2300:	81 50       	subi	r24, 0x01	; 1
    2302:	e1 f7       	brne	.-8      	; 0x22fc <__stack+0xfd>
  
  if (acceleration_manager_enabled) { planner_recalculate(); }  
    2304:	80 91 16 05 	lds	r24, 0x0516
    2308:	88 23       	and	r24, r24
    230a:	11 f0       	breq	.+4      	; 0x2310 <__stack+0x111>
    230c:	0e 94 e4 0d 	call	0x1bc8	; 0x1bc8 <planner_recalculate>
  st_wake_up();
    2310:	0e 94 41 14 	call	0x2882	; 0x2882 <st_wake_up>
}
    2314:	e4 96       	adiw	r28, 0x34	; 52
    2316:	0f b6       	in	r0, 0x3f	; 63
    2318:	f8 94       	cli
    231a:	de bf       	out	0x3e, r29	; 62
    231c:	0f be       	out	0x3f, r0	; 63
    231e:	cd bf       	out	0x3d, r28	; 61
    2320:	cf 91       	pop	r28
    2322:	df 91       	pop	r29
    2324:	1f 91       	pop	r17
    2326:	0f 91       	pop	r16
    2328:	ff 90       	pop	r15
    232a:	ef 90       	pop	r14
    232c:	df 90       	pop	r13
    232e:	cf 90       	pop	r12
    2330:	bf 90       	pop	r11
    2332:	af 90       	pop	r10
    2334:	9f 90       	pop	r9
    2336:	8f 90       	pop	r8
    2338:	7f 90       	pop	r7
    233a:	6f 90       	pop	r6
    233c:	5f 90       	pop	r5
    233e:	4f 90       	pop	r4
    2340:	3f 90       	pop	r3
    2342:	2f 90       	pop	r2
    2344:	08 95       	ret

00002346 <sp_process>:
//  printPgmString(PSTR("\r\nOpenPnP/Grbl " GRBL_VERSION));
//  printPgmString(PSTR("\r\n"));  
}

void sp_process(void)
{
    2346:	cf 93       	push	r28
    2348:	df 93       	push	r29
    234a:	61 c0       	rjmp	.+194    	; 0x240e <sp_process+0xc8>
  // force signed
  signed char c;
  while((c = serialRead()) != -1) 
  {
      if((char_counter > 0) && ((c == '\n') || (c == '\r'))) {  // Line is complete. Then execute!
    234c:	e0 91 49 05 	lds	r30, 0x0549
    2350:	ee 23       	and	r30, r30
    2352:	09 f4       	brne	.+2      	; 0x2356 <sp_process+0x10>
    2354:	4a c0       	rjmp	.+148    	; 0x23ea <sp_process+0xa4>
    2356:	9a 30       	cpi	r25, 0x0A	; 10
    2358:	19 f0       	breq	.+6      	; 0x2360 <sp_process+0x1a>
    235a:	9d 30       	cpi	r25, 0x0D	; 13
    235c:	09 f0       	breq	.+2      	; 0x2360 <sp_process+0x1a>
    235e:	45 c0       	rjmp	.+138    	; 0x23ea <sp_process+0xa4>
      line[char_counter] = 0; // terminate string
    2360:	f0 e0       	ldi	r31, 0x00	; 0
    2362:	e9 5e       	subi	r30, 0xE9	; 233
    2364:	fa 4f       	sbci	r31, 0xFA	; 250
    2366:	10 82       	st	Z, r1
      status_message(gc_execute_line(line));
    2368:	87 e1       	ldi	r24, 0x17	; 23
    236a:	95 e0       	ldi	r25, 0x05	; 5
    236c:	0e 94 17 04 	call	0x82e	; 0x82e <gc_execute_line>
    2370:	68 2f       	mov	r22, r24
static char line[LINE_BUFFER_SIZE];
static uint8_t char_counter;

static void status_message(int status_code)
{
	if( gHomed == FALSE ) {
    2372:	80 91 4a 05 	lds	r24, 0x054A
    2376:	88 23       	and	r24, r24
    2378:	39 f4       	brne	.+14     	; 0x2388 <sp_process+0x42>
    	printPgmString(PSTR("\r\nNot homed\n\r"));status_code = 99;
    237a:	8b ea       	ldi	r24, 0xAB	; 171
    237c:	92 e0       	ldi	r25, 0x02	; 2
    237e:	0e 94 01 1a 	call	0x3402	; 0x3402 <printPgmString>
    2382:	c3 e6       	ldi	r28, 0x63	; 99
    2384:	d0 e0       	ldi	r29, 0x00	; 0
    2386:	1f c0       	rjmp	.+62     	; 0x23c6 <sp_process+0x80>
	}

  switch(status_code) {          
    2388:	62 30       	cpi	r22, 0x02	; 2
    238a:	91 f0       	breq	.+36     	; 0x23b0 <sp_process+0x6a>
    238c:	63 30       	cpi	r22, 0x03	; 3
    238e:	28 f4       	brcc	.+10     	; 0x239a <sp_process+0x54>
    2390:	66 23       	and	r22, r22
    2392:	41 f0       	breq	.+16     	; 0x23a4 <sp_process+0x5e>
    2394:	61 30       	cpi	r22, 0x01	; 1
    2396:	a9 f4       	brne	.+42     	; 0x23c2 <sp_process+0x7c>
    2398:	08 c0       	rjmp	.+16     	; 0x23aa <sp_process+0x64>
    239a:	63 30       	cpi	r22, 0x03	; 3
    239c:	61 f0       	breq	.+24     	; 0x23b6 <sp_process+0x70>
    239e:	64 30       	cpi	r22, 0x04	; 4
    23a0:	81 f4       	brne	.+32     	; 0x23c2 <sp_process+0x7c>
    23a2:	0c c0       	rjmp	.+24     	; 0x23bc <sp_process+0x76>
    case GCSTATUS_OK:
    	printPgmString(PSTR("ok\n\r")); 
    23a4:	86 ea       	ldi	r24, 0xA6	; 166
    23a6:	92 e0       	ldi	r25, 0x02	; 2
    23a8:	1b c0       	rjmp	.+54     	; 0x23e0 <sp_process+0x9a>
		break;
    case GCSTATUS_BAD_NUMBER_FORMAT:
    	printPgmString(PSTR("error: Bad number format\n\r")); 
    23aa:	8b e8       	ldi	r24, 0x8B	; 139
    23ac:	92 e0       	ldi	r25, 0x02	; 2
    23ae:	18 c0       	rjmp	.+48     	; 0x23e0 <sp_process+0x9a>
		break;
    case GCSTATUS_EXPECTED_COMMAND_LETTER:
    	printPgmString(PSTR("error: Expected command letter\n\r")); 
    23b0:	8a e6       	ldi	r24, 0x6A	; 106
    23b2:	92 e0       	ldi	r25, 0x02	; 2
    23b4:	15 c0       	rjmp	.+42     	; 0x23e0 <sp_process+0x9a>
		break;
    case GCSTATUS_UNSUPPORTED_STATEMENT:
    	printPgmString(PSTR("error: Unsupported statement\n\r")); 
    23b6:	8b e4       	ldi	r24, 0x4B	; 75
    23b8:	92 e0       	ldi	r25, 0x02	; 2
    23ba:	12 c0       	rjmp	.+36     	; 0x23e0 <sp_process+0x9a>
		break;
    case GCSTATUS_FLOATING_POINT_ERROR:
   		printPgmString(PSTR("error: Floating point error\n\r")); 
    23bc:	8d e2       	ldi	r24, 0x2D	; 45
    23be:	92 e0       	ldi	r25, 0x02	; 2
    23c0:	0f c0       	rjmp	.+30     	; 0x23e0 <sp_process+0x9a>
  signed char c;
  while((c = serialRead()) != -1) 
  {
      if((char_counter > 0) && ((c == '\n') || (c == '\r'))) {  // Line is complete. Then execute!
      line[char_counter] = 0; // terminate string
      status_message(gc_execute_line(line));
    23c2:	c6 2f       	mov	r28, r22
    23c4:	d0 e0       	ldi	r29, 0x00	; 0
		break;
    case GCSTATUS_FLOATING_POINT_ERROR:
   		printPgmString(PSTR("error: Floating point error\n\r")); 
		break;
    default:
    	printPgmString(PSTR("error: "));
    23c6:	85 e2       	ldi	r24, 0x25	; 37
    23c8:	92 e0       	ldi	r25, 0x02	; 2
    23ca:	0e 94 01 1a 	call	0x3402	; 0x3402 <printPgmString>
    	printInteger(status_code);
    23ce:	be 01       	movw	r22, r28
    23d0:	88 27       	eor	r24, r24
    23d2:	77 fd       	sbrc	r23, 7
    23d4:	80 95       	com	r24
    23d6:	98 2f       	mov	r25, r24
    23d8:	0e 94 9d 1a 	call	0x353a	; 0x353a <printInteger>
    	printPgmString(PSTR("\n\r"));
    23dc:	82 e2       	ldi	r24, 0x22	; 34
    23de:	92 e0       	ldi	r25, 0x02	; 2
    23e0:	0e 94 01 1a 	call	0x3402	; 0x3402 <printPgmString>
  while((c = serialRead()) != -1) 
  {
      if((char_counter > 0) && ((c == '\n') || (c == '\r'))) {  // Line is complete. Then execute!
      line[char_counter] = 0; // terminate string
      status_message(gc_execute_line(line));
      char_counter = 0; // reset line buffer index
    23e4:	10 92 49 05 	sts	0x0549, r1
    23e8:	12 c0       	rjmp	.+36     	; 0x240e <sp_process+0xc8>
    } else if (c <= ' ') { // Throw away whitespace and control characters
    23ea:	91 32       	cpi	r25, 0x21	; 33
    23ec:	84 f0       	brlt	.+32     	; 0x240e <sp_process+0xc8>
    } else if (c >= 'a' && c <= 'z') { // Uppercase lowercase
    23ee:	89 2f       	mov	r24, r25
    23f0:	81 56       	subi	r24, 0x61	; 97
    23f2:	ae 2f       	mov	r26, r30
    23f4:	b0 e0       	ldi	r27, 0x00	; 0
    23f6:	ef 5f       	subi	r30, 0xFF	; 255
    23f8:	8a 31       	cpi	r24, 0x1A	; 26
    23fa:	20 f4       	brcc	.+8      	; 0x2404 <sp_process+0xbe>
      line[char_counter++] = c-'a'+'A';
    23fc:	a9 5e       	subi	r26, 0xE9	; 233
    23fe:	ba 4f       	sbci	r27, 0xFA	; 250
    2400:	90 52       	subi	r25, 0x20	; 32
    2402:	02 c0       	rjmp	.+4      	; 0x2408 <sp_process+0xc2>
    } else {
      line[char_counter++] = c;
    2404:	a9 5e       	subi	r26, 0xE9	; 233
    2406:	ba 4f       	sbci	r27, 0xFA	; 250
    2408:	9c 93       	st	X, r25
    240a:	e0 93 49 05 	sts	0x0549, r30

void sp_process(void)
{
  // force signed
  signed char c;
  while((c = serialRead()) != -1) 
    240e:	0e 94 83 19 	call	0x3306	; 0x3306 <serialRead>
    2412:	98 2f       	mov	r25, r24
    2414:	8f 3f       	cpi	r24, 0xFF	; 255
    2416:	09 f0       	breq	.+2      	; 0x241a <sp_process+0xd4>
    2418:	99 cf       	rjmp	.-206    	; 0x234c <sp_process+0x6>
      line[char_counter++] = c-'a'+'A';
    } else {
      line[char_counter++] = c;
    }
  }
}
    241a:	df 91       	pop	r29
    241c:	cf 91       	pop	r28
    241e:	08 95       	ret

00002420 <sp_init>:
  }
}

void sp_init() 
{
  beginSerial(BAUD_RATE);  
    2420:	60 e0       	ldi	r22, 0x00	; 0
    2422:	76 e9       	ldi	r23, 0x96	; 150
    2424:	80 e0       	ldi	r24, 0x00	; 0
    2426:	90 e0       	ldi	r25, 0x00	; 0
    2428:	0e 94 2e 19 	call	0x325c	; 0x325c <beginSerial>
//  printPgmString(PSTR("\r\nOpenPnP/Grbl " GRBL_VERSION));
//  printPgmString(PSTR("\r\n"));  
}
    242c:	08 95       	ret

0000242e <settings_reset>:
  double mm_per_arc_segment;
} settings_v1_t;


void settings_reset() {
  settings.steps_per_mm[X_AXIS] = DEFAULT_X_STEPS_PER_MM;
    242e:	80 e0       	ldi	r24, 0x00	; 0
    2430:	90 e0       	ldi	r25, 0x00	; 0
    2432:	ae e7       	ldi	r26, 0x7E	; 126
    2434:	b4 e4       	ldi	r27, 0x44	; 68
    2436:	80 93 74 06 	sts	0x0674, r24
    243a:	90 93 75 06 	sts	0x0675, r25
    243e:	a0 93 76 06 	sts	0x0676, r26
    2442:	b0 93 77 06 	sts	0x0677, r27
  settings.steps_per_mm[Y_AXIS] = DEFAULT_Y_STEPS_PER_MM;
    2446:	80 93 78 06 	sts	0x0678, r24
    244a:	90 93 79 06 	sts	0x0679, r25
    244e:	a0 93 7a 06 	sts	0x067A, r26
    2452:	b0 93 7b 06 	sts	0x067B, r27
  settings.steps_per_mm[Z_AXIS] = DEFAULT_Z_STEPS_PER_MM;
    2456:	84 ef       	ldi	r24, 0xF4	; 244
    2458:	99 ef       	ldi	r25, 0xF9	; 249
    245a:	ac e3       	ldi	r26, 0x3C	; 60
    245c:	b4 e4       	ldi	r27, 0x44	; 68
    245e:	80 93 7c 06 	sts	0x067C, r24
    2462:	90 93 7d 06 	sts	0x067D, r25
    2466:	a0 93 7e 06 	sts	0x067E, r26
    246a:	b0 93 7f 06 	sts	0x067F, r27
  settings.steps_per_mm[C_AXIS] = DEFAULT_C_STEPS_PER_MM;
    246e:	81 ec       	ldi	r24, 0xC1	; 193
    2470:	9a ec       	ldi	r25, 0xCA	; 202
    2472:	a1 e3       	ldi	r26, 0x31	; 49
    2474:	b2 e4       	ldi	r27, 0x42	; 66
    2476:	80 93 80 06 	sts	0x0680, r24
    247a:	90 93 81 06 	sts	0x0681, r25
    247e:	a0 93 82 06 	sts	0x0682, r26
    2482:	b0 93 83 06 	sts	0x0683, r27
  settings.pulse_microseconds = DEFAULT_STEP_PULSE_MICROSECONDS;
    2486:	88 e0       	ldi	r24, 0x08	; 8
    2488:	80 93 85 06 	sts	0x0685, r24
  settings.default_feed_rate = DEFAULT_FEEDRATE;
    248c:	80 e0       	ldi	r24, 0x00	; 0
    248e:	90 e0       	ldi	r25, 0x00	; 0
    2490:	a0 ef       	ldi	r26, 0xF0	; 240
    2492:	b3 e4       	ldi	r27, 0x43	; 67
    2494:	80 93 86 06 	sts	0x0686, r24
    2498:	90 93 87 06 	sts	0x0687, r25
    249c:	a0 93 88 06 	sts	0x0688, r26
    24a0:	b0 93 89 06 	sts	0x0689, r27
  settings.default_seek_rate = DEFAULT_RAPID_FEEDRATE;
    24a4:	80 93 8a 06 	sts	0x068A, r24
    24a8:	90 93 8b 06 	sts	0x068B, r25
    24ac:	a0 93 8c 06 	sts	0x068C, r26
    24b0:	b0 93 8d 06 	sts	0x068D, r27
  settings.acceleration = DEFAULT_ACCELERATION;
    24b4:	8a e9       	ldi	r24, 0x9A	; 154
    24b6:	99 e9       	ldi	r25, 0x99	; 153
    24b8:	a9 e9       	ldi	r26, 0x99	; 153
    24ba:	b0 e4       	ldi	r27, 0x40	; 64
    24bc:	80 93 92 06 	sts	0x0692, r24
    24c0:	90 93 93 06 	sts	0x0693, r25
    24c4:	a0 93 94 06 	sts	0x0694, r26
    24c8:	b0 93 95 06 	sts	0x0695, r27
  settings.mm_per_arc_segment = DEFAULT_MM_PER_ARC_SEGMENT;
    24cc:	8d ec       	ldi	r24, 0xCD	; 205
    24ce:	9c ec       	ldi	r25, 0xCC	; 204
    24d0:	ac ec       	ldi	r26, 0xCC	; 204
    24d2:	bd e3       	ldi	r27, 0x3D	; 61
    24d4:	80 93 8e 06 	sts	0x068E, r24
    24d8:	90 93 8f 06 	sts	0x068F, r25
    24dc:	a0 93 90 06 	sts	0x0690, r26
    24e0:	b0 93 91 06 	sts	0x0691, r27
  settings.max_jerk = DEFAULT_MAX_JERK;
    24e4:	80 e0       	ldi	r24, 0x00	; 0
    24e6:	90 e0       	ldi	r25, 0x00	; 0
    24e8:	a8 e4       	ldi	r26, 0x48	; 72
    24ea:	b2 e4       	ldi	r27, 0x42	; 66
    24ec:	80 93 96 06 	sts	0x0696, r24
    24f0:	90 93 97 06 	sts	0x0697, r25
    24f4:	a0 93 98 06 	sts	0x0698, r26
    24f8:	b0 93 99 06 	sts	0x0699, r27
}
    24fc:	08 95       	ret

000024fe <read_settings>:
  memcpy_to_eeprom_with_checksum(1, (char*)&settings, sizeof(settings_t));
}

int read_settings() {
  // Check version-byte of eeprom
  uint8_t version = eeprom_get_char(0);
    24fe:	80 e0       	ldi	r24, 0x00	; 0
    2500:	90 e0       	ldi	r25, 0x00	; 0
    2502:	0e 94 be 02 	call	0x57c	; 0x57c <eeprom_get_char>
  
  if (version == SETTINGS_VERSION) {
    2506:	87 36       	cpi	r24, 0x67	; 103
    2508:	81 f4       	brne	.+32     	; 0x252a <read_settings+0x2c>
    // Read settings-record and check checksum
    if (!(memcpy_from_eeprom_with_checksum((char*)&settings, 1, sizeof(settings_t)))) {
    250a:	84 e7       	ldi	r24, 0x74	; 116
    250c:	96 e0       	ldi	r25, 0x06	; 6
    250e:	61 e0       	ldi	r22, 0x01	; 1
    2510:	70 e0       	ldi	r23, 0x00	; 0
    2512:	46 e2       	ldi	r20, 0x26	; 38
    2514:	50 e0       	ldi	r21, 0x00	; 0
    2516:	0e 94 2b 03 	call	0x656	; 0x656 <memcpy_from_eeprom_with_checksum>
    251a:	20 e0       	ldi	r18, 0x00	; 0
    251c:	89 2b       	or	r24, r25
    251e:	09 f4       	brne	.+2      	; 0x2522 <read_settings+0x24>
    2520:	21 e0       	ldi	r18, 0x01	; 1
    2522:	81 e0       	ldi	r24, 0x01	; 1
    2524:	28 27       	eor	r18, r24
    2526:	30 e0       	ldi	r19, 0x00	; 0
    2528:	29 c0       	rjmp	.+82     	; 0x257c <read_settings+0x7e>
      return(FALSE);
    }
  } 
  else if (version == 1) {
    252a:	81 30       	cpi	r24, 0x01	; 1
    252c:	29 f5       	brne	.+74     	; 0x2578 <read_settings+0x7a>
    // Migrate from old settings version
    if (!(memcpy_from_eeprom_with_checksum((char*)&settings, 1, sizeof(settings_v1_t)))) {
    252e:	84 e7       	ldi	r24, 0x74	; 116
    2530:	96 e0       	ldi	r25, 0x06	; 6
    2532:	61 e0       	ldi	r22, 0x01	; 1
    2534:	70 e0       	ldi	r23, 0x00	; 0
    2536:	4b e1       	ldi	r20, 0x1B	; 27
    2538:	50 e0       	ldi	r21, 0x00	; 0
    253a:	0e 94 2b 03 	call	0x656	; 0x656 <memcpy_from_eeprom_with_checksum>
    253e:	89 2b       	or	r24, r25
    2540:	d9 f0       	breq	.+54     	; 0x2578 <read_settings+0x7a>
      return(FALSE);
    }
    settings.acceleration = DEFAULT_ACCELERATION;
    2542:	8a e9       	ldi	r24, 0x9A	; 154
    2544:	99 e9       	ldi	r25, 0x99	; 153
    2546:	a9 e9       	ldi	r26, 0x99	; 153
    2548:	b0 e4       	ldi	r27, 0x40	; 64
    254a:	80 93 92 06 	sts	0x0692, r24
    254e:	90 93 93 06 	sts	0x0693, r25
    2552:	a0 93 94 06 	sts	0x0694, r26
    2556:	b0 93 95 06 	sts	0x0695, r27
    settings.max_jerk = DEFAULT_MAX_JERK;
    255a:	80 e0       	ldi	r24, 0x00	; 0
    255c:	90 e0       	ldi	r25, 0x00	; 0
    255e:	a8 e4       	ldi	r26, 0x48	; 72
    2560:	b2 e4       	ldi	r27, 0x42	; 66
    2562:	80 93 96 06 	sts	0x0696, r24
    2566:	90 93 97 06 	sts	0x0697, r25
    256a:	a0 93 98 06 	sts	0x0698, r26
    256e:	b0 93 99 06 	sts	0x0699, r27
    2572:	21 e0       	ldi	r18, 0x01	; 1
    2574:	30 e0       	ldi	r19, 0x00	; 0
    2576:	02 c0       	rjmp	.+4      	; 0x257c <read_settings+0x7e>
    2578:	20 e0       	ldi	r18, 0x00	; 0
    257a:	30 e0       	ldi	r19, 0x00	; 0
  }
  else {      
    return(FALSE);
  }
  return(TRUE);
}
    257c:	c9 01       	movw	r24, r18
    257e:	08 95       	ret

00002580 <write_settings>:
	
  printPgmString(PSTR("'$x=value' to set parameter or just '$' to dump current settings\r\n"));
}

void write_settings() {
  eeprom_put_char(0, SETTINGS_VERSION);
    2580:	80 e0       	ldi	r24, 0x00	; 0
    2582:	90 e0       	ldi	r25, 0x00	; 0
    2584:	67 e6       	ldi	r22, 0x67	; 103
    2586:	0e 94 c6 02 	call	0x58c	; 0x58c <eeprom_put_char>
  memcpy_to_eeprom_with_checksum(1, (char*)&settings, sizeof(settings_t));
    258a:	81 e0       	ldi	r24, 0x01	; 1
    258c:	90 e0       	ldi	r25, 0x00	; 0
    258e:	64 e7       	ldi	r22, 0x74	; 116
    2590:	76 e0       	ldi	r23, 0x06	; 6
    2592:	46 e2       	ldi	r20, 0x26	; 38
    2594:	50 e0       	ldi	r21, 0x00	; 0
    2596:	0e 94 e1 02 	call	0x5c2	; 0x5c2 <memcpy_to_eeprom_with_checksum>
}
    259a:	08 95       	ret

0000259c <settings_store_setting>:
  }
  return(TRUE);
}

// A helper method to set settings from command line
void settings_store_setting(int parameter, double value) {
    259c:	fc 01       	movw	r30, r24
  switch(parameter) {
    259e:	86 30       	cpi	r24, 0x06	; 6
    25a0:	91 05       	cpc	r25, r1
    25a2:	b9 f1       	breq	.+110    	; 0x2612 <settings_store_setting+0x76>
    25a4:	87 30       	cpi	r24, 0x07	; 7
    25a6:	91 05       	cpc	r25, r1
    25a8:	4c f4       	brge	.+18     	; 0x25bc <settings_store_setting+0x20>
    25aa:	84 30       	cpi	r24, 0x04	; 4
    25ac:	91 05       	cpc	r25, r1
    25ae:	f9 f0       	breq	.+62     	; 0x25ee <settings_store_setting+0x52>
    25b0:	85 30       	cpi	r24, 0x05	; 5
    25b2:	91 05       	cpc	r25, r1
    25b4:	2c f5       	brge	.+74     	; 0x2600 <settings_store_setting+0x64>
    25b6:	97 ff       	sbrs	r25, 7
    25b8:	0f c0       	rjmp	.+30     	; 0x25d8 <settings_store_setting+0x3c>
    25ba:	62 c0       	rjmp	.+196    	; 0x2680 <settings_store_setting+0xe4>
    25bc:	88 30       	cpi	r24, 0x08	; 8
    25be:	91 05       	cpc	r25, r1
    25c0:	d1 f1       	breq	.+116    	; 0x2636 <settings_store_setting+0x9a>
    25c2:	88 30       	cpi	r24, 0x08	; 8
    25c4:	91 05       	cpc	r25, r1
    25c6:	74 f1       	brlt	.+92     	; 0x2624 <settings_store_setting+0x88>
    25c8:	89 30       	cpi	r24, 0x09	; 9
    25ca:	91 05       	cpc	r25, r1
    25cc:	e9 f1       	breq	.+122    	; 0x2648 <settings_store_setting+0xac>
    25ce:	e8 5e       	subi	r30, 0xE8	; 232
    25d0:	f3 40       	sbci	r31, 0x03	; 3
    25d2:	09 f0       	breq	.+2      	; 0x25d6 <settings_store_setting+0x3a>
    25d4:	55 c0       	rjmp	.+170    	; 0x2680 <settings_store_setting+0xe4>
    25d6:	44 c0       	rjmp	.+136    	; 0x2660 <settings_store_setting+0xc4>
    case 0: case 1: case 2: case 3:
    settings.steps_per_mm[parameter] = value; break;
    25d8:	ee 0f       	add	r30, r30
    25da:	ff 1f       	adc	r31, r31
    25dc:	ee 0f       	add	r30, r30
    25de:	ff 1f       	adc	r31, r31
    25e0:	ec 58       	subi	r30, 0x8C	; 140
    25e2:	f9 4f       	sbci	r31, 0xF9	; 249
    25e4:	40 83       	st	Z, r20
    25e6:	51 83       	std	Z+1, r21	; 0x01
    25e8:	62 83       	std	Z+2, r22	; 0x02
    25ea:	73 83       	std	Z+3, r23	; 0x03
    25ec:	4c c0       	rjmp	.+152    	; 0x2686 <settings_store_setting+0xea>
    case 4: settings.pulse_microseconds = round(value); break;
    25ee:	cb 01       	movw	r24, r22
    25f0:	ba 01       	movw	r22, r20
    25f2:	0e 94 16 20 	call	0x402c	; 0x402c <round>
    25f6:	0e 94 ef 1d 	call	0x3bde	; 0x3bde <__fixunssfsi>
    25fa:	60 93 85 06 	sts	0x0685, r22
    25fe:	43 c0       	rjmp	.+134    	; 0x2686 <settings_store_setting+0xea>
    case 5: settings.default_feed_rate = value; break;
    2600:	40 93 86 06 	sts	0x0686, r20
    2604:	50 93 87 06 	sts	0x0687, r21
    2608:	60 93 88 06 	sts	0x0688, r22
    260c:	70 93 89 06 	sts	0x0689, r23
    2610:	3a c0       	rjmp	.+116    	; 0x2686 <settings_store_setting+0xea>
    case 6: settings.default_seek_rate = value; break;
    2612:	40 93 8a 06 	sts	0x068A, r20
    2616:	50 93 8b 06 	sts	0x068B, r21
    261a:	60 93 8c 06 	sts	0x068C, r22
    261e:	70 93 8d 06 	sts	0x068D, r23
    2622:	31 c0       	rjmp	.+98     	; 0x2686 <settings_store_setting+0xea>
    case 7: settings.mm_per_arc_segment = value; break;
    2624:	40 93 8e 06 	sts	0x068E, r20
    2628:	50 93 8f 06 	sts	0x068F, r21
    262c:	60 93 90 06 	sts	0x0690, r22
    2630:	70 93 91 06 	sts	0x0691, r23
    2634:	28 c0       	rjmp	.+80     	; 0x2686 <settings_store_setting+0xea>
    case 8: settings.acceleration = value; break;
    2636:	40 93 92 06 	sts	0x0692, r20
    263a:	50 93 93 06 	sts	0x0693, r21
    263e:	60 93 94 06 	sts	0x0694, r22
    2642:	70 93 95 06 	sts	0x0695, r23
    2646:	1f c0       	rjmp	.+62     	; 0x2686 <settings_store_setting+0xea>
    case 9: settings.max_jerk = fabs(value); break;
    2648:	db 01       	movw	r26, r22
    264a:	ca 01       	movw	r24, r20
    264c:	bf 77       	andi	r27, 0x7F	; 127
    264e:	80 93 96 06 	sts	0x0696, r24
    2652:	90 93 97 06 	sts	0x0697, r25
    2656:	a0 93 98 06 	sts	0x0698, r26
    265a:	b0 93 99 06 	sts	0x0699, r27
    265e:	13 c0       	rjmp	.+38     	; 0x2686 <settings_store_setting+0xea>
    case 1000:
	  if (!!value) st_enable();
    2660:	cb 01       	movw	r24, r22
    2662:	ba 01       	movw	r22, r20
    2664:	20 e0       	ldi	r18, 0x00	; 0
    2666:	30 e0       	ldi	r19, 0x00	; 0
    2668:	40 e0       	ldi	r20, 0x00	; 0
    266a:	50 e0       	ldi	r21, 0x00	; 0
    266c:	0e 94 7e 1d 	call	0x3afc	; 0x3afc <__cmpsf2>
    2670:	88 23       	and	r24, r24
    2672:	19 f0       	breq	.+6      	; 0x267a <settings_store_setting+0xde>
    2674:	0e 94 5c 14 	call	0x28b8	; 0x28b8 <st_enable>
    2678:	08 95       	ret
      else st_disable();
    267a:	0e 94 5e 14 	call	0x28bc	; 0x28bc <st_disable>
    267e:	08 95       	ret
      return;
    default: 
      printPgmString(PSTR("Unknown parameter\r\n"));
    2680:	8e ec       	ldi	r24, 0xCE	; 206
    2682:	92 e0       	ldi	r25, 0x02	; 2
    2684:	04 c0       	rjmp	.+8      	; 0x268e <settings_store_setting+0xf2>
      return;
  }
  write_settings();
    2686:	0e 94 c0 12 	call	0x2580	; 0x2580 <write_settings>
  printPgmString(PSTR("Stored new setting\r\n"));
    268a:	89 eb       	ldi	r24, 0xB9	; 185
    268c:	92 e0       	ldi	r25, 0x02	; 2
    268e:	0e 94 01 1a 	call	0x3402	; 0x3402 <printPgmString>
    2692:	08 95       	ret

00002694 <settings_dump>:
  settings.mm_per_arc_segment = DEFAULT_MM_PER_ARC_SEGMENT;
  settings.max_jerk = DEFAULT_MAX_JERK;
}

void settings_dump() {
  printPgmString(PSTR("$VERSION = "));
    2694:	82 ea       	ldi	r24, 0xA2	; 162
    2696:	94 e0       	ldi	r25, 0x04	; 4
    2698:	0e 94 01 1a 	call	0x3402	; 0x3402 <printPgmString>
  printPgmString(PSTR(GRBL_VERSION));
    269c:	8b e9       	ldi	r24, 0x9B	; 155
    269e:	94 e0       	ldi	r25, 0x04	; 4
    26a0:	0e 94 01 1a 	call	0x3402	; 0x3402 <printPgmString>
  printPgmString(PSTR("\r\n"));
    26a4:	88 e9       	ldi	r24, 0x98	; 152
    26a6:	94 e0       	ldi	r25, 0x04	; 4
    26a8:	0e 94 01 1a 	call	0x3402	; 0x3402 <printPgmString>
  
  printPgmString(PSTR("$0 = ")); 
    26ac:	82 e9       	ldi	r24, 0x92	; 146
    26ae:	94 e0       	ldi	r25, 0x04	; 4
    26b0:	0e 94 01 1a 	call	0x3402	; 0x3402 <printPgmString>
  printFloat(settings.steps_per_mm[X_AXIS]);
    26b4:	60 91 74 06 	lds	r22, 0x0674
    26b8:	70 91 75 06 	lds	r23, 0x0675
    26bc:	80 91 76 06 	lds	r24, 0x0676
    26c0:	90 91 77 06 	lds	r25, 0x0677
    26c4:	0e 94 bf 1a 	call	0x357e	; 0x357e <printFloat>
  printPgmString(PSTR(" (steps/mm x)\r\n"));
    26c8:	82 e8       	ldi	r24, 0x82	; 130
    26ca:	94 e0       	ldi	r25, 0x04	; 4
    26cc:	0e 94 01 1a 	call	0x3402	; 0x3402 <printPgmString>
  
  printPgmString(PSTR("$1 = ")); 
    26d0:	8c e7       	ldi	r24, 0x7C	; 124
    26d2:	94 e0       	ldi	r25, 0x04	; 4
    26d4:	0e 94 01 1a 	call	0x3402	; 0x3402 <printPgmString>
  printFloat(settings.steps_per_mm[Y_AXIS]);
    26d8:	60 91 78 06 	lds	r22, 0x0678
    26dc:	70 91 79 06 	lds	r23, 0x0679
    26e0:	80 91 7a 06 	lds	r24, 0x067A
    26e4:	90 91 7b 06 	lds	r25, 0x067B
    26e8:	0e 94 bf 1a 	call	0x357e	; 0x357e <printFloat>
  printPgmString(PSTR(" (steps/mm y)\r\n"));
    26ec:	8c e6       	ldi	r24, 0x6C	; 108
    26ee:	94 e0       	ldi	r25, 0x04	; 4
    26f0:	0e 94 01 1a 	call	0x3402	; 0x3402 <printPgmString>
  
  printPgmString(PSTR("$2 = ")); 
    26f4:	86 e6       	ldi	r24, 0x66	; 102
    26f6:	94 e0       	ldi	r25, 0x04	; 4
    26f8:	0e 94 01 1a 	call	0x3402	; 0x3402 <printPgmString>
  printFloat(settings.steps_per_mm[Z_AXIS]);
    26fc:	60 91 7c 06 	lds	r22, 0x067C
    2700:	70 91 7d 06 	lds	r23, 0x067D
    2704:	80 91 7e 06 	lds	r24, 0x067E
    2708:	90 91 7f 06 	lds	r25, 0x067F
    270c:	0e 94 bf 1a 	call	0x357e	; 0x357e <printFloat>
  printPgmString(PSTR(" (steps/mm z)\r\n"));
    2710:	86 e5       	ldi	r24, 0x56	; 86
    2712:	94 e0       	ldi	r25, 0x04	; 4
    2714:	0e 94 01 1a 	call	0x3402	; 0x3402 <printPgmString>
  
  printPgmString(PSTR("$3 = ")); 
    2718:	80 e5       	ldi	r24, 0x50	; 80
    271a:	94 e0       	ldi	r25, 0x04	; 4
    271c:	0e 94 01 1a 	call	0x3402	; 0x3402 <printPgmString>
  printFloat(settings.steps_per_mm[C_AXIS]);
    2720:	60 91 80 06 	lds	r22, 0x0680
    2724:	70 91 81 06 	lds	r23, 0x0681
    2728:	80 91 82 06 	lds	r24, 0x0682
    272c:	90 91 83 06 	lds	r25, 0x0683
    2730:	0e 94 bf 1a 	call	0x357e	; 0x357e <printFloat>
  printPgmString(PSTR(" (steps/deg. c)\r\n"));
    2734:	8e e3       	ldi	r24, 0x3E	; 62
    2736:	94 e0       	ldi	r25, 0x04	; 4
    2738:	0e 94 01 1a 	call	0x3402	; 0x3402 <printPgmString>
    
  printPgmString(PSTR("$4 = ")); 
    273c:	88 e3       	ldi	r24, 0x38	; 56
    273e:	94 e0       	ldi	r25, 0x04	; 4
    2740:	0e 94 01 1a 	call	0x3402	; 0x3402 <printPgmString>
  printInteger(settings.pulse_microseconds);
    2744:	60 91 85 06 	lds	r22, 0x0685
    2748:	70 e0       	ldi	r23, 0x00	; 0
    274a:	80 e0       	ldi	r24, 0x00	; 0
    274c:	90 e0       	ldi	r25, 0x00	; 0
    274e:	0e 94 9d 1a 	call	0x353a	; 0x353a <printInteger>
  printPgmString(PSTR(" (microseconds step pulse)\r\n"));
    2752:	8b e1       	ldi	r24, 0x1B	; 27
    2754:	94 e0       	ldi	r25, 0x04	; 4
    2756:	0e 94 01 1a 	call	0x3402	; 0x3402 <printPgmString>
  
  printPgmString(PSTR("$5 = ")); 
    275a:	85 e1       	ldi	r24, 0x15	; 21
    275c:	94 e0       	ldi	r25, 0x04	; 4
    275e:	0e 94 01 1a 	call	0x3402	; 0x3402 <printPgmString>
  printFloat(settings.default_feed_rate);
    2762:	60 91 86 06 	lds	r22, 0x0686
    2766:	70 91 87 06 	lds	r23, 0x0687
    276a:	80 91 88 06 	lds	r24, 0x0688
    276e:	90 91 89 06 	lds	r25, 0x0689
    2772:	0e 94 bf 1a 	call	0x357e	; 0x357e <printFloat>
  printPgmString(PSTR(" (mm/min default feed rate)\r\n"));
    2776:	87 ef       	ldi	r24, 0xF7	; 247
    2778:	93 e0       	ldi	r25, 0x03	; 3
    277a:	0e 94 01 1a 	call	0x3402	; 0x3402 <printPgmString>

  printPgmString(PSTR("$6 = ")); 
    277e:	81 ef       	ldi	r24, 0xF1	; 241
    2780:	93 e0       	ldi	r25, 0x03	; 3
    2782:	0e 94 01 1a 	call	0x3402	; 0x3402 <printPgmString>
  printFloat(settings.default_seek_rate);
    2786:	60 91 8a 06 	lds	r22, 0x068A
    278a:	70 91 8b 06 	lds	r23, 0x068B
    278e:	80 91 8c 06 	lds	r24, 0x068C
    2792:	90 91 8d 06 	lds	r25, 0x068D
    2796:	0e 94 bf 1a 	call	0x357e	; 0x357e <printFloat>
  printPgmString(PSTR(" (mm/min default seek rate)\r\n"));
    279a:	83 ed       	ldi	r24, 0xD3	; 211
    279c:	93 e0       	ldi	r25, 0x03	; 3
    279e:	0e 94 01 1a 	call	0x3402	; 0x3402 <printPgmString>
  
  printPgmString(PSTR("$7 = ")); 
    27a2:	8d ec       	ldi	r24, 0xCD	; 205
    27a4:	93 e0       	ldi	r25, 0x03	; 3
    27a6:	0e 94 01 1a 	call	0x3402	; 0x3402 <printPgmString>
  printFloat(settings.mm_per_arc_segment);
    27aa:	60 91 8e 06 	lds	r22, 0x068E
    27ae:	70 91 8f 06 	lds	r23, 0x068F
    27b2:	80 91 90 06 	lds	r24, 0x0690
    27b6:	90 91 91 06 	lds	r25, 0x0691
    27ba:	0e 94 bf 1a 	call	0x357e	; 0x357e <printFloat>
  printPgmString(PSTR(" (mm/arc segment)\r\n"));
    27be:	89 eb       	ldi	r24, 0xB9	; 185
    27c0:	93 e0       	ldi	r25, 0x03	; 3
    27c2:	0e 94 01 1a 	call	0x3402	; 0x3402 <printPgmString>
  
  printPgmString(PSTR("$8 = ")); 
    27c6:	83 eb       	ldi	r24, 0xB3	; 179
    27c8:	93 e0       	ldi	r25, 0x03	; 3
    27ca:	0e 94 01 1a 	call	0x3402	; 0x3402 <printPgmString>
  printFloat(settings.acceleration);
    27ce:	60 91 92 06 	lds	r22, 0x0692
    27d2:	70 91 93 06 	lds	r23, 0x0693
    27d6:	80 91 94 06 	lds	r24, 0x0694
    27da:	90 91 95 06 	lds	r25, 0x0695
    27de:	0e 94 bf 1a 	call	0x357e	; 0x357e <printFloat>
  printPgmString(PSTR(" (acceleration in mm/sec^2)\r\n"));
    27e2:	85 e9       	ldi	r24, 0x95	; 149
    27e4:	93 e0       	ldi	r25, 0x03	; 3
    27e6:	0e 94 01 1a 	call	0x3402	; 0x3402 <printPgmString>
  
  printPgmString(PSTR("$9 = ")); 
    27ea:	8f e8       	ldi	r24, 0x8F	; 143
    27ec:	93 e0       	ldi	r25, 0x03	; 3
    27ee:	0e 94 01 1a 	call	0x3402	; 0x3402 <printPgmString>
  printFloat(settings.max_jerk);
    27f2:	60 91 96 06 	lds	r22, 0x0696
    27f6:	70 91 97 06 	lds	r23, 0x0697
    27fa:	80 91 98 06 	lds	r24, 0x0698
    27fe:	90 91 99 06 	lds	r25, 0x0699
    2802:	0e 94 bf 1a 	call	0x357e	; 0x357e <printFloat>
  printPgmString(PSTR(" (max instant cornering speed change in delta mm/min)\r\n"));
    2806:	87 e5       	ldi	r24, 0x57	; 87
    2808:	93 e0       	ldi	r25, 0x03	; 3
    280a:	0e 94 01 1a 	call	0x3402	; 0x3402 <printPgmString>
  
  printPgmString(PSTR("$1000 = "));
    280e:	8e e4       	ldi	r24, 0x4E	; 78
    2810:	93 e0       	ldi	r25, 0x03	; 3
    2812:	0e 94 01 1a 	call	0x3402	; 0x3402 <printPgmString>
  printInteger(st_is_enabled());
    2816:	0e 94 60 14 	call	0x28c0	; 0x28c0 <st_is_enabled>
    281a:	aa 27       	eor	r26, r26
    281c:	97 fd       	sbrc	r25, 7
    281e:	a0 95       	com	r26
    2820:	ba 2f       	mov	r27, r26
    2822:	bc 01       	movw	r22, r24
    2824:	cd 01       	movw	r24, r26
    2826:	0e 94 9d 1a 	call	0x353a	; 0x353a <printInteger>
  printPgmString(PSTR(" (steppers: 0 = disabled, 1 = enabled)\r\n"));
    282a:	85 e2       	ldi	r24, 0x25	; 37
    282c:	93 e0       	ldi	r25, 0x03	; 3
    282e:	0e 94 01 1a 	call	0x3402	; 0x3402 <printPgmString>
	
  printPgmString(PSTR("'$x=value' to set parameter or just '$' to dump current settings\r\n"));
    2832:	82 ee       	ldi	r24, 0xE2	; 226
    2834:	92 e0       	ldi	r25, 0x02	; 2
    2836:	0e 94 01 1a 	call	0x3402	; 0x3402 <printPgmString>
}
    283a:	08 95       	ret

0000283c <settings_init>:
  printPgmString(PSTR("Stored new setting\r\n"));
}

// Initialize the config subsystem
void settings_init() {
  if(read_settings()) {
    283c:	0e 94 7f 12 	call	0x24fe	; 0x24fe <read_settings>
    2840:	89 2b       	or	r24, r25
    2842:	31 f4       	brne	.+12     	; 0x2850 <settings_init+0x14>
 //   printPgmString(PSTR("'$' to dump current settings\r\n"));
  } else {
   // printPgmString(PSTR("Warning: Failed to read EEPROM settings. Using defaults.\r\n"));
    settings_reset();
    2844:	0e 94 17 12 	call	0x242e	; 0x242e <settings_reset>
    write_settings();
    2848:	0e 94 c0 12 	call	0x2580	; 0x2580 <write_settings>
    settings_dump();
    284c:	0e 94 4a 13 	call	0x2694	; 0x2694 <settings_dump>
    2850:	08 95       	ret

00002852 <spindle_init>:

#include <avr/io.h>

void spindle_init()
{
  SPINDLE_ENABLE_DDR |= 1<<SPINDLE_ENABLE_BIT;
    2852:	e1 e0       	ldi	r30, 0x01	; 1
    2854:	f1 e0       	ldi	r31, 0x01	; 1
    2856:	80 81       	ld	r24, Z
    2858:	80 64       	ori	r24, 0x40	; 64
    285a:	80 83       	st	Z, r24
  SPINDLE_DIRECTION_DDR |= 1<<SPINDLE_DIRECTION_BIT;
    285c:	27 9a       	sbi	0x04, 7	; 4
}
    285e:	08 95       	ret

00002860 <spindle_run>:

void spindle_run(int direction, uint32_t rpm) 
{
  if(direction >= 0) {
    2860:	97 fd       	sbrc	r25, 7
    2862:	02 c0       	rjmp	.+4      	; 0x2868 <spindle_run+0x8>
    SPINDLE_DIRECTION_PORT &= ~(1<<SPINDLE_DIRECTION_BIT);
    2864:	2f 98       	cbi	0x05, 7	; 5
    2866:	01 c0       	rjmp	.+2      	; 0x286a <spindle_run+0xa>
  } else {
    SPINDLE_DIRECTION_PORT |= 1<<SPINDLE_DIRECTION_BIT;
    2868:	2f 9a       	sbi	0x05, 7	; 5
  }
  SPINDLE_ENABLE_PORT |= 1<<SPINDLE_ENABLE_BIT;
    286a:	80 91 02 01 	lds	r24, 0x0102
    286e:	80 64       	ori	r24, 0x40	; 64
    2870:	80 93 02 01 	sts	0x0102, r24
}
    2874:	08 95       	ret

00002876 <spindle_stop>:

void spindle_stop()
{
  SPINDLE_ENABLE_PORT &= ~(1<<SPINDLE_ENABLE_BIT);
    2876:	e2 e0       	ldi	r30, 0x02	; 2
    2878:	f1 e0       	ldi	r31, 0x01	; 1
    287a:	80 81       	ld	r24, Z
    287c:	8f 7b       	andi	r24, 0xBF	; 191
    287e:	80 83       	st	Z, r24
}
    2880:	08 95       	ret

00002882 <st_wake_up>:
//  that is called ACCELERATION_TICKS_PER_SECOND times per second.

void set_step_events_per_minute(uint32_t steps_per_minute);

void st_wake_up() {
  ENABLE_STEPPER_DRIVER_INTERRUPT();  
    2882:	ef e6       	ldi	r30, 0x6F	; 111
    2884:	f0 e0       	ldi	r31, 0x00	; 0
    2886:	80 81       	ld	r24, Z
    2888:	82 60       	ori	r24, 0x02	; 2
    288a:	80 83       	st	Z, r24
}
    288c:	08 95       	ret

0000288e <set_busy>:
}

// need a way to tell the stepers not to move ( cli / sei ? )
void set_busy(unsigned char state ) 
{
	busy = state;
    288e:	90 e0       	ldi	r25, 0x00	; 0
    2890:	90 93 63 05 	sts	0x0563, r25
    2894:	80 93 62 05 	sts	0x0562, r24
}
    2898:	08 95       	ret

0000289a <__vector_15>:
}

// This interrupt is set up by SIG_OUTPUT_COMPARE1A when it sets the motor port bits. It resets
// the motor port after a short period (settings.pulse_microseconds) completing one step cycle.
SIGNAL(TIMER2_OVF_vect)
{
    289a:	1f 92       	push	r1
    289c:	0f 92       	push	r0
    289e:	0f b6       	in	r0, 0x3f	; 63
    28a0:	0f 92       	push	r0
    28a2:	11 24       	eor	r1, r1
    28a4:	8f 93       	push	r24
  // reset stepping pins (leave the direction pins)
  STEPPING_PORT = (STEPPING_PORT & ~STEP_MASK) | (STEP_INVERT_MASK & STEP_MASK); 
    28a6:	81 b3       	in	r24, 0x11	; 17
    28a8:	8a 7c       	andi	r24, 0xCA	; 202
    28aa:	81 bb       	out	0x11, r24	; 17
}
    28ac:	8f 91       	pop	r24
    28ae:	0f 90       	pop	r0
    28b0:	0f be       	out	0x3f, r0	; 63
    28b2:	0f 90       	pop	r0
    28b4:	1f 90       	pop	r1
    28b6:	18 95       	reti

000028b8 <st_enable>:
  
  sei();
}

void st_enable() {
  STEPPERS_ENABLE_PORT = (STEPPERS_ENABLE_PORT & ~(1<<STEPPERS_ENABLE_BIT)) | 
    28b8:	44 98       	cbi	0x08, 4	; 8
  	((1<<STEPPERS_ENABLE_BIT) ^ (STEPPERS_ENABLE_INVERT<<STEPPERS_ENABLE_BIT));
}
    28ba:	08 95       	ret

000028bc <st_disable>:

void st_disable() {
  STEPPERS_ENABLE_PORT = (STEPPERS_ENABLE_PORT & ~(1<<STEPPERS_ENABLE_BIT)) | 
    28bc:	44 9a       	sbi	0x08, 4	; 8
  	(STEPPERS_ENABLE_INVERT<<STEPPERS_ENABLE_BIT);
}
    28be:	08 95       	ret

000028c0 <st_is_enabled>:

int st_is_enabled() {
  return !!((STEPPERS_ENABLE_DDR & (1<<STEPPERS_ENABLE_BIT)) && 
    28c0:	3c 99       	sbic	0x07, 4	; 7
    28c2:	03 c0       	rjmp	.+6      	; 0x28ca <st_is_enabled+0xa>
    28c4:	20 e0       	ldi	r18, 0x00	; 0
    28c6:	30 e0       	ldi	r19, 0x00	; 0
    28c8:	07 c0       	rjmp	.+14     	; 0x28d8 <st_is_enabled+0x18>
    28ca:	88 b1       	in	r24, 0x08	; 8
    28cc:	82 95       	swap	r24
    28ce:	8f 70       	andi	r24, 0x0F	; 15
    28d0:	80 95       	com	r24
    28d2:	81 70       	andi	r24, 0x01	; 1
    28d4:	28 2f       	mov	r18, r24
    28d6:	30 e0       	ldi	r19, 0x00	; 0
    ((STEPPERS_ENABLE_PORT & (1<<STEPPERS_ENABLE_BIT)) ^ (STEPPERS_ENABLE_INVERT<<STEPPERS_ENABLE_BIT)));
}
    28d8:	c9 01       	movw	r24, r18
    28da:	08 95       	ret

000028dc <config_step_timer>:
uint32_t config_step_timer(uint32_t cycles)
{
  uint16_t ceiling;
  uint16_t prescaler;
  uint32_t actual_cycles;
	if (cycles <= 0xffffL) {
    28dc:	60 30       	cpi	r22, 0x00	; 0
    28de:	20 e0       	ldi	r18, 0x00	; 0
    28e0:	72 07       	cpc	r23, r18
    28e2:	21 e0       	ldi	r18, 0x01	; 1
    28e4:	82 07       	cpc	r24, r18
    28e6:	20 e0       	ldi	r18, 0x00	; 0
    28e8:	92 07       	cpc	r25, r18
    28ea:	30 f4       	brcc	.+12     	; 0x28f8 <config_step_timer+0x1c>
		ceiling = cycles;
    prescaler = 0; // prescaler: 0
    actual_cycles = ceiling;
    28ec:	9b 01       	movw	r18, r22
    28ee:	40 e0       	ldi	r20, 0x00	; 0
    28f0:	50 e0       	ldi	r21, 0x00	; 0
    28f2:	e0 e0       	ldi	r30, 0x00	; 0
    28f4:	f0 e0       	ldi	r31, 0x00	; 0
    28f6:	72 c0       	rjmp	.+228    	; 0x29dc <config_step_timer+0x100>
	} else if (cycles <= 0x7ffffL) {
    28f8:	60 30       	cpi	r22, 0x00	; 0
    28fa:	20 e0       	ldi	r18, 0x00	; 0
    28fc:	72 07       	cpc	r23, r18
    28fe:	28 e0       	ldi	r18, 0x08	; 8
    2900:	82 07       	cpc	r24, r18
    2902:	20 e0       	ldi	r18, 0x00	; 0
    2904:	92 07       	cpc	r25, r18
    2906:	a0 f4       	brcc	.+40     	; 0x2930 <config_step_timer+0x54>
    ceiling = cycles >> 3;
    2908:	b3 e0       	ldi	r27, 0x03	; 3
    290a:	96 95       	lsr	r25
    290c:	87 95       	ror	r24
    290e:	77 95       	ror	r23
    2910:	67 95       	ror	r22
    2912:	ba 95       	dec	r27
    2914:	d1 f7       	brne	.-12     	; 0x290a <config_step_timer+0x2e>
    prescaler = 1; // prescaler: 8
    actual_cycles = ceiling * 8L;
    2916:	9b 01       	movw	r18, r22
    2918:	40 e0       	ldi	r20, 0x00	; 0
    291a:	50 e0       	ldi	r21, 0x00	; 0
    291c:	a3 e0       	ldi	r26, 0x03	; 3
    291e:	22 0f       	add	r18, r18
    2920:	33 1f       	adc	r19, r19
    2922:	44 1f       	adc	r20, r20
    2924:	55 1f       	adc	r21, r21
    2926:	aa 95       	dec	r26
    2928:	d1 f7       	brne	.-12     	; 0x291e <config_step_timer+0x42>
    292a:	e1 e0       	ldi	r30, 0x01	; 1
    292c:	f0 e0       	ldi	r31, 0x00	; 0
    292e:	56 c0       	rjmp	.+172    	; 0x29dc <config_step_timer+0x100>
	} else if (cycles <= 0x3fffffL) {
    2930:	60 30       	cpi	r22, 0x00	; 0
    2932:	20 e0       	ldi	r18, 0x00	; 0
    2934:	72 07       	cpc	r23, r18
    2936:	20 e4       	ldi	r18, 0x40	; 64
    2938:	82 07       	cpc	r24, r18
    293a:	20 e0       	ldi	r18, 0x00	; 0
    293c:	92 07       	cpc	r25, r18
    293e:	a0 f4       	brcc	.+40     	; 0x2968 <config_step_timer+0x8c>
		ceiling =  cycles >> 6;
    2940:	f6 e0       	ldi	r31, 0x06	; 6
    2942:	96 95       	lsr	r25
    2944:	87 95       	ror	r24
    2946:	77 95       	ror	r23
    2948:	67 95       	ror	r22
    294a:	fa 95       	dec	r31
    294c:	d1 f7       	brne	.-12     	; 0x2942 <config_step_timer+0x66>
    prescaler = 2; // prescaler: 64
    actual_cycles = ceiling * 64L;
    294e:	9b 01       	movw	r18, r22
    2950:	40 e0       	ldi	r20, 0x00	; 0
    2952:	50 e0       	ldi	r21, 0x00	; 0
    2954:	e6 e0       	ldi	r30, 0x06	; 6
    2956:	22 0f       	add	r18, r18
    2958:	33 1f       	adc	r19, r19
    295a:	44 1f       	adc	r20, r20
    295c:	55 1f       	adc	r21, r21
    295e:	ea 95       	dec	r30
    2960:	d1 f7       	brne	.-12     	; 0x2956 <config_step_timer+0x7a>
    2962:	e2 e0       	ldi	r30, 0x02	; 2
    2964:	f0 e0       	ldi	r31, 0x00	; 0
    2966:	3a c0       	rjmp	.+116    	; 0x29dc <config_step_timer+0x100>
	} else if (cycles <= 0xffffffL) {
    2968:	60 30       	cpi	r22, 0x00	; 0
    296a:	20 e0       	ldi	r18, 0x00	; 0
    296c:	72 07       	cpc	r23, r18
    296e:	20 e0       	ldi	r18, 0x00	; 0
    2970:	82 07       	cpc	r24, r18
    2972:	21 e0       	ldi	r18, 0x01	; 1
    2974:	92 07       	cpc	r25, r18
    2976:	70 f4       	brcc	.+28     	; 0x2994 <config_step_timer+0xb8>
		ceiling =  (cycles >> 8);
    2978:	bb 27       	eor	r27, r27
    297a:	a9 2f       	mov	r26, r25
    297c:	98 2f       	mov	r25, r24
    297e:	87 2f       	mov	r24, r23
    2980:	bc 01       	movw	r22, r24
    prescaler = 3; // prescaler: 256
    actual_cycles = ceiling * 256L;
    2982:	a0 e0       	ldi	r26, 0x00	; 0
    2984:	b0 e0       	ldi	r27, 0x00	; 0
    2986:	22 27       	eor	r18, r18
    2988:	38 2f       	mov	r19, r24
    298a:	49 2f       	mov	r20, r25
    298c:	5a 2f       	mov	r21, r26
    298e:	e3 e0       	ldi	r30, 0x03	; 3
    2990:	f0 e0       	ldi	r31, 0x00	; 0
    2992:	24 c0       	rjmp	.+72     	; 0x29dc <config_step_timer+0x100>
	} else if (cycles <= 0x3ffffffL) {
    2994:	60 30       	cpi	r22, 0x00	; 0
    2996:	20 e0       	ldi	r18, 0x00	; 0
    2998:	72 07       	cpc	r23, r18
    299a:	20 e0       	ldi	r18, 0x00	; 0
    299c:	82 07       	cpc	r24, r18
    299e:	24 e0       	ldi	r18, 0x04	; 4
    29a0:	92 07       	cpc	r25, r18
    29a2:	48 f0       	brcs	.+18     	; 0x29b6 <config_step_timer+0xda>
    29a4:	6f ef       	ldi	r22, 0xFF	; 255
    29a6:	7f ef       	ldi	r23, 0xFF	; 255
    29a8:	e4 e0       	ldi	r30, 0x04	; 4
    29aa:	f0 e0       	ldi	r31, 0x00	; 0
    29ac:	20 e0       	ldi	r18, 0x00	; 0
    29ae:	3c ef       	ldi	r19, 0xFC	; 252
    29b0:	40 e0       	ldi	r20, 0x00	; 0
    29b2:	50 e0       	ldi	r21, 0x00	; 0
    29b4:	13 c0       	rjmp	.+38     	; 0x29dc <config_step_timer+0x100>
		ceiling = (cycles >> 10);
    29b6:	2a e0       	ldi	r18, 0x0A	; 10
    29b8:	96 95       	lsr	r25
    29ba:	87 95       	ror	r24
    29bc:	77 95       	ror	r23
    29be:	67 95       	ror	r22
    29c0:	2a 95       	dec	r18
    29c2:	d1 f7       	brne	.-12     	; 0x29b8 <config_step_timer+0xdc>
    prescaler = 4; // prescaler: 1024
    actual_cycles = ceiling * 1024L;    
    29c4:	9b 01       	movw	r18, r22
    29c6:	40 e0       	ldi	r20, 0x00	; 0
    29c8:	50 e0       	ldi	r21, 0x00	; 0
    29ca:	8a e0       	ldi	r24, 0x0A	; 10
    29cc:	22 0f       	add	r18, r18
    29ce:	33 1f       	adc	r19, r19
    29d0:	44 1f       	adc	r20, r20
    29d2:	55 1f       	adc	r21, r21
    29d4:	8a 95       	dec	r24
    29d6:	d1 f7       	brne	.-12     	; 0x29cc <config_step_timer+0xf0>
    29d8:	e4 e0       	ldi	r30, 0x04	; 4
    29da:	f0 e0       	ldi	r31, 0x00	; 0
		ceiling = 0xffff;
    prescaler = 4;
    actual_cycles = 0xffff * 1024;
	}
	// Set prescaler
  TCCR1B = (TCCR1B & ~(0x07<<CS10)) | ((prescaler+1)<<CS10);
    29dc:	80 91 81 00 	lds	r24, 0x0081
    29e0:	9e 2f       	mov	r25, r30
    29e2:	9f 5f       	subi	r25, 0xFF	; 255
    29e4:	88 7f       	andi	r24, 0xF8	; 248
    29e6:	98 2b       	or	r25, r24
    29e8:	90 93 81 00 	sts	0x0081, r25
  // Set ceiling
  OCR1A = ceiling;
    29ec:	70 93 89 00 	sts	0x0089, r23
    29f0:	60 93 88 00 	sts	0x0088, r22
  return(actual_cycles);
}
    29f4:	b9 01       	movw	r22, r18
    29f6:	ca 01       	movw	r24, r20
    29f8:	08 95       	ret

000029fa <set_step_events_per_minute>:

void set_step_events_per_minute(uint32_t steps_per_minute) {
    29fa:	9b 01       	movw	r18, r22
    29fc:	ac 01       	movw	r20, r24
  if (steps_per_minute < MINIMUM_STEPS_PER_MINUTE) { steps_per_minute = MINIMUM_STEPS_PER_MINUTE; }
    29fe:	20 3b       	cpi	r18, 0xB0	; 176
    2a00:	84 e0       	ldi	r24, 0x04	; 4
    2a02:	38 07       	cpc	r19, r24
    2a04:	80 e0       	ldi	r24, 0x00	; 0
    2a06:	48 07       	cpc	r20, r24
    2a08:	80 e0       	ldi	r24, 0x00	; 0
    2a0a:	58 07       	cpc	r21, r24
    2a0c:	20 f4       	brcc	.+8      	; 0x2a16 <set_step_events_per_minute+0x1c>
    2a0e:	20 eb       	ldi	r18, 0xB0	; 176
    2a10:	34 e0       	ldi	r19, 0x04	; 4
    2a12:	40 e0       	ldi	r20, 0x00	; 0
    2a14:	50 e0       	ldi	r21, 0x00	; 0
  cycles_per_step_event = config_step_timer((TICKS_PER_MICROSECOND*1000000*60)/steps_per_minute);
    2a16:	60 e0       	ldi	r22, 0x00	; 0
    2a18:	70 e7       	ldi	r23, 0x70	; 112
    2a1a:	88 e3       	ldi	r24, 0x38	; 56
    2a1c:	99 e3       	ldi	r25, 0x39	; 57
    2a1e:	0e 94 bb 20 	call	0x4176	; 0x4176 <__udivmodsi4>
    2a22:	ca 01       	movw	r24, r20
    2a24:	b9 01       	movw	r22, r18
    2a26:	0e 94 6e 14 	call	0x28dc	; 0x28dc <config_step_timer>
    2a2a:	60 93 64 05 	sts	0x0564, r22
    2a2e:	70 93 65 05 	sts	0x0565, r23
    2a32:	80 93 66 05 	sts	0x0566, r24
    2a36:	90 93 67 05 	sts	0x0567, r25
}
    2a3a:	08 95       	ret

00002a3c <st_init>:

// Initialize and start the stepper motor subsystem
void st_init()
{
	// Configure directions of interface pins
  STEPPING_DDR |= STEP_MASK;
    2a3c:	80 b3       	in	r24, 0x10	; 16
    2a3e:	85 63       	ori	r24, 0x35	; 53
    2a40:	80 bb       	out	0x10, r24	; 16
  DIRECTION_DDR |= DIRECTION_MASK;
    2a42:	80 b3       	in	r24, 0x10	; 16
    2a44:	8a 6c       	ori	r24, 0xCA	; 202
    2a46:	80 bb       	out	0x10, r24	; 16
  STEPPING_PORT = (STEPPING_PORT & ~STEP_MASK) | STEP_INVERT_MASK;
    2a48:	81 b3       	in	r24, 0x11	; 17
    2a4a:	8a 7c       	andi	r24, 0xCA	; 202
    2a4c:	81 bb       	out	0x11, r24	; 17
 // see limit setup
 // LIMIT_DDR &= ~(LIMIT_MASK);
  STEPPERS_ENABLE_DDR |= 1<<STEPPERS_ENABLE_BIT;
    2a4e:	3c 9a       	sbi	0x07, 4	; 7
  STEPPERS_ENABLE_PORT = (STEPPERS_ENABLE_PORT & ~(1<<STEPPERS_ENABLE_BIT)) | 
  	((1<<STEPPERS_ENABLE_BIT) ^ (STEPPERS_ENABLE_INVERT<<STEPPERS_ENABLE_BIT));
}

void st_disable() {
  STEPPERS_ENABLE_PORT = (STEPPERS_ENABLE_PORT & ~(1<<STEPPERS_ENABLE_BIT)) | 
    2a50:	44 9a       	sbi	0x08, 4	; 8
  STEPPERS_ENABLE_DDR |= 1<<STEPPERS_ENABLE_BIT;
  
  st_disable();
  
	// waveform generation = 0100 = CTC
	TCCR1B &= ~(1<<WGM13);
    2a52:	e1 e8       	ldi	r30, 0x81	; 129
    2a54:	f0 e0       	ldi	r31, 0x00	; 0
    2a56:	80 81       	ld	r24, Z
    2a58:	8f 7e       	andi	r24, 0xEF	; 239
    2a5a:	80 83       	st	Z, r24
	TCCR1B |=  (1<<WGM12);
    2a5c:	80 81       	ld	r24, Z
    2a5e:	88 60       	ori	r24, 0x08	; 8
    2a60:	80 83       	st	Z, r24
	TCCR1A &= ~(1<<WGM11); 
    2a62:	e0 e8       	ldi	r30, 0x80	; 128
    2a64:	f0 e0       	ldi	r31, 0x00	; 0
    2a66:	80 81       	ld	r24, Z
    2a68:	8d 7f       	andi	r24, 0xFD	; 253
    2a6a:	80 83       	st	Z, r24
	TCCR1A &= ~(1<<WGM10);
    2a6c:	80 81       	ld	r24, Z
    2a6e:	8e 7f       	andi	r24, 0xFE	; 254
    2a70:	80 83       	st	Z, r24

	// output mode = 00 (disconnected)
	TCCR1A &= ~(3<<COM1A0); 
    2a72:	80 81       	ld	r24, Z
    2a74:	8f 73       	andi	r24, 0x3F	; 63
    2a76:	80 83       	st	Z, r24
	TCCR1A &= ~(3<<COM1B0); 
    2a78:	80 81       	ld	r24, Z
    2a7a:	8f 7c       	andi	r24, 0xCF	; 207
    2a7c:	80 83       	st	Z, r24
	
	// Configure Timer 2
  TCCR2A = 0;         // Normal operation
    2a7e:	10 92 b0 00 	sts	0x00B0, r1
  TCCR2B = (1<<CS21); // Full speed, 1/8 prescaler
    2a82:	82 e0       	ldi	r24, 0x02	; 2
    2a84:	80 93 b1 00 	sts	0x00B1, r24
  TIMSK2 |= (1<<TOIE2);      
    2a88:	e0 e7       	ldi	r30, 0x70	; 112
    2a8a:	f0 e0       	ldi	r31, 0x00	; 0
    2a8c:	80 81       	ld	r24, Z
    2a8e:	81 60       	ori	r24, 0x01	; 1
    2a90:	80 83       	st	Z, r24
  
  set_step_events_per_minute(6000);
    2a92:	60 e7       	ldi	r22, 0x70	; 112
    2a94:	77 e1       	ldi	r23, 0x17	; 23
    2a96:	80 e0       	ldi	r24, 0x00	; 0
    2a98:	90 e0       	ldi	r25, 0x00	; 0
    2a9a:	0e 94 fd 14 	call	0x29fa	; 0x29fa <set_step_events_per_minute>
  DISABLE_STEPPER_DRIVER_INTERRUPT();  
    2a9e:	ef e6       	ldi	r30, 0x6F	; 111
    2aa0:	f0 e0       	ldi	r31, 0x00	; 0
    2aa2:	80 81       	ld	r24, Z
    2aa4:	8d 7f       	andi	r24, 0xFD	; 253
    2aa6:	80 83       	st	Z, r24
  trapezoid_tick_cycle_counter = 0;
    2aa8:	10 92 68 05 	sts	0x0568, r1
    2aac:	10 92 69 05 	sts	0x0569, r1
    2ab0:	10 92 6a 05 	sts	0x056A, r1
    2ab4:	10 92 6b 05 	sts	0x056B, r1
  
  sei();
    2ab8:	78 94       	sei
}
    2aba:	08 95       	ret

00002abc <moveLeft>:

#define PULSE_LENGTH	( 10 )
#define PULSE_OFF_LENGTH ( 280 )

unsigned char moveLeft( unsigned int distance ) 
{
    2abc:	9c 01       	movw	r18, r24
  // Set the direction pins a couple of nanoseconds before we step the steppers
  DIRECTION_PORT = (DIRECTION_PORT & ~DIRECTION_MASK) | (0 & DIRECTION_MASK);
    2abe:	81 b3       	in	r24, 0x11	; 17
    2ac0:	85 73       	andi	r24, 0x35	; 53
    2ac2:	81 bb       	out	0x11, r24	; 17
    can be achieved.
*/
void
_delay_loop_1(uint8_t __count)
{
	__asm__ volatile (
    2ac4:	95 e3       	ldi	r25, 0x35	; 53
    milliseconds can be achieved.
 */
void
_delay_loop_2(uint16_t __count)
{
	__asm__ volatile (
    2ac6:	40 e6       	ldi	r20, 0x60	; 96
    2ac8:	54 e0       	ldi	r21, 0x04	; 4
    2aca:	13 c0       	rjmp	.+38     	; 0x2af2 <moveLeft+0x36>
  // Then pulse the stepping pins
  while(distance--) {

	//  hit left limit ?
  	if( bit_is_set( LIMIT_PIN, X1_LIMIT_BIT ) ) 
    2acc:	21 50       	subi	r18, 0x01	; 1
    2ace:	30 40       	sbci	r19, 0x00	; 0
    2ad0:	4b 9b       	sbis	0x09, 3	; 9
    2ad2:	02 c0       	rjmp	.+4      	; 0x2ad8 <moveLeft+0x1c>
    2ad4:	80 e0       	ldi	r24, 0x00	; 0
    2ad6:	08 95       	ret
		return 0;

     STEPPING_PORT = (STEPPING_PORT & ~STEP_MASK) | (1<<X_STEP_BIT);	
    2ad8:	81 b3       	in	r24, 0x11	; 17
    2ada:	8a 7c       	andi	r24, 0xCA	; 202
    2adc:	81 60       	ori	r24, 0x01	; 1
    2ade:	81 bb       	out	0x11, r24	; 17
    can be achieved.
*/
void
_delay_loop_1(uint8_t __count)
{
	__asm__ volatile (
    2ae0:	89 2f       	mov	r24, r25
    2ae2:	8a 95       	dec	r24
    2ae4:	f1 f7       	brne	.-4      	; 0x2ae2 <moveLeft+0x26>
	 _delay_us( PULSE_LENGTH ) ;
     STEPPING_PORT = (STEPPING_PORT & ~STEP_MASK);	
    2ae6:	81 b3       	in	r24, 0x11	; 17
    2ae8:	8a 7c       	andi	r24, 0xCA	; 202
    2aea:	81 bb       	out	0x11, r24	; 17
    milliseconds can be achieved.
 */
void
_delay_loop_2(uint16_t __count)
{
	__asm__ volatile (
    2aec:	fa 01       	movw	r30, r20
    2aee:	31 97       	sbiw	r30, 0x01	; 1
    2af0:	f1 f7       	brne	.-4      	; 0x2aee <moveLeft+0x32>
unsigned char moveLeft( unsigned int distance ) 
{
  // Set the direction pins a couple of nanoseconds before we step the steppers
  DIRECTION_PORT = (DIRECTION_PORT & ~DIRECTION_MASK) | (0 & DIRECTION_MASK);
  // Then pulse the stepping pins
  while(distance--) {
    2af2:	21 15       	cp	r18, r1
    2af4:	31 05       	cpc	r19, r1
    2af6:	51 f7       	brne	.-44     	; 0x2acc <moveLeft+0x10>
    2af8:	81 e0       	ldi	r24, 0x01	; 1
     STEPPING_PORT = (STEPPING_PORT & ~STEP_MASK);	
	 _delay_us( PULSE_OFF_LENGTH ) ;
  }

	return TRUE;
}
    2afa:	08 95       	ret

00002afc <moveRight>:

unsigned char moveRight( unsigned int distance ) 
{
    2afc:	9c 01       	movw	r18, r24
  // Set the direction pins a couple of nanoseconds before we step the steppers
  DIRECTION_PORT = (DIRECTION_PORT & ~DIRECTION_MASK) | ((1<<X_DIRECTION_BIT) & DIRECTION_MASK);
    2afe:	81 b3       	in	r24, 0x11	; 17
    2b00:	85 73       	andi	r24, 0x35	; 53
    2b02:	82 60       	ori	r24, 0x02	; 2
    2b04:	81 bb       	out	0x11, r24	; 17
    can be achieved.
*/
void
_delay_loop_1(uint8_t __count)
{
	__asm__ volatile (
    2b06:	95 e3       	ldi	r25, 0x35	; 53
    milliseconds can be achieved.
 */
void
_delay_loop_2(uint16_t __count)
{
	__asm__ volatile (
    2b08:	40 e6       	ldi	r20, 0x60	; 96
    2b0a:	54 e0       	ldi	r21, 0x04	; 4
    2b0c:	13 c0       	rjmp	.+38     	; 0x2b34 <moveRight+0x38>
  // Then pulse the stepping pins
  while(distance--) {

  	if( bit_is_set( LIMIT_PIN, X2_LIMIT_BIT ) ) return 0;
    2b0e:	21 50       	subi	r18, 0x01	; 1
    2b10:	30 40       	sbci	r19, 0x00	; 0
    2b12:	4a 9b       	sbis	0x09, 2	; 9
    2b14:	02 c0       	rjmp	.+4      	; 0x2b1a <moveRight+0x1e>
    2b16:	80 e0       	ldi	r24, 0x00	; 0
    2b18:	08 95       	ret
  	
	STEPPING_PORT = (STEPPING_PORT & ~STEP_MASK) | (1<<X_STEP_BIT);	
    2b1a:	81 b3       	in	r24, 0x11	; 17
    2b1c:	8a 7c       	andi	r24, 0xCA	; 202
    2b1e:	81 60       	ori	r24, 0x01	; 1
    2b20:	81 bb       	out	0x11, r24	; 17
    can be achieved.
*/
void
_delay_loop_1(uint8_t __count)
{
	__asm__ volatile (
    2b22:	89 2f       	mov	r24, r25
    2b24:	8a 95       	dec	r24
    2b26:	f1 f7       	brne	.-4      	; 0x2b24 <moveRight+0x28>
	 _delay_us( PULSE_LENGTH ) ;
  	STEPPING_PORT = (STEPPING_PORT & ~STEP_MASK);
    2b28:	81 b3       	in	r24, 0x11	; 17
    2b2a:	8a 7c       	andi	r24, 0xCA	; 202
    2b2c:	81 bb       	out	0x11, r24	; 17
    milliseconds can be achieved.
 */
void
_delay_loop_2(uint16_t __count)
{
	__asm__ volatile (
    2b2e:	fa 01       	movw	r30, r20
    2b30:	31 97       	sbiw	r30, 0x01	; 1
    2b32:	f1 f7       	brne	.-4      	; 0x2b30 <moveRight+0x34>
unsigned char moveRight( unsigned int distance ) 
{
  // Set the direction pins a couple of nanoseconds before we step the steppers
  DIRECTION_PORT = (DIRECTION_PORT & ~DIRECTION_MASK) | ((1<<X_DIRECTION_BIT) & DIRECTION_MASK);
  // Then pulse the stepping pins
  while(distance--) {
    2b34:	21 15       	cp	r18, r1
    2b36:	31 05       	cpc	r19, r1
    2b38:	51 f7       	brne	.-44     	; 0x2b0e <moveRight+0x12>
    2b3a:	81 e0       	ldi	r24, 0x01	; 1
	 _delay_us( PULSE_LENGTH ) ;
  	STEPPING_PORT = (STEPPING_PORT & ~STEP_MASK);
	 _delay_us( PULSE_OFF_LENGTH ) ;
  }
	return TRUE;
}
    2b3c:	08 95       	ret

00002b3e <moveForward>:

unsigned char moveForward( unsigned int distance ) 
{
    2b3e:	9c 01       	movw	r18, r24


  // Set the direction pins a couple of nanoseconds before we step the steppers
  DIRECTION_PORT = (DIRECTION_PORT & ~DIRECTION_MASK) | (0 & DIRECTION_MASK);
    2b40:	81 b3       	in	r24, 0x11	; 17
    2b42:	85 73       	andi	r24, 0x35	; 53
    2b44:	81 bb       	out	0x11, r24	; 17
    can be achieved.
*/
void
_delay_loop_1(uint8_t __count)
{
	__asm__ volatile (
    2b46:	95 e3       	ldi	r25, 0x35	; 53
    milliseconds can be achieved.
 */
void
_delay_loop_2(uint16_t __count)
{
	__asm__ volatile (
    2b48:	40 e6       	ldi	r20, 0x60	; 96
    2b4a:	54 e0       	ldi	r21, 0x04	; 4
    2b4c:	13 c0       	rjmp	.+38     	; 0x2b74 <moveForward+0x36>
  // Then pulse the stepping pins
  while(distance--) {

	//  hit limit ?
  	if( bit_is_set( LIMIT_PIN, Y1_LIMIT_BIT ) ) 
    2b4e:	21 50       	subi	r18, 0x01	; 1
    2b50:	30 40       	sbci	r19, 0x00	; 0
    2b52:	48 9b       	sbis	0x09, 0	; 9
    2b54:	02 c0       	rjmp	.+4      	; 0x2b5a <moveForward+0x1c>
    2b56:	80 e0       	ldi	r24, 0x00	; 0
    2b58:	08 95       	ret
		return 0;


    STEPPING_PORT = (STEPPING_PORT & ~STEP_MASK) | (1<<Y_STEP_BIT);	
    2b5a:	81 b3       	in	r24, 0x11	; 17
    2b5c:	8a 7c       	andi	r24, 0xCA	; 202
    2b5e:	84 60       	ori	r24, 0x04	; 4
    2b60:	81 bb       	out	0x11, r24	; 17
    can be achieved.
*/
void
_delay_loop_1(uint8_t __count)
{
	__asm__ volatile (
    2b62:	89 2f       	mov	r24, r25
    2b64:	8a 95       	dec	r24
    2b66:	f1 f7       	brne	.-4      	; 0x2b64 <moveForward+0x26>
	 _delay_us( PULSE_LENGTH ) ;
    STEPPING_PORT = (STEPPING_PORT & ~STEP_MASK);	
    2b68:	81 b3       	in	r24, 0x11	; 17
    2b6a:	8a 7c       	andi	r24, 0xCA	; 202
    2b6c:	81 bb       	out	0x11, r24	; 17
    milliseconds can be achieved.
 */
void
_delay_loop_2(uint16_t __count)
{
	__asm__ volatile (
    2b6e:	fa 01       	movw	r30, r20
    2b70:	31 97       	sbiw	r30, 0x01	; 1
    2b72:	f1 f7       	brne	.-4      	; 0x2b70 <moveForward+0x32>


  // Set the direction pins a couple of nanoseconds before we step the steppers
  DIRECTION_PORT = (DIRECTION_PORT & ~DIRECTION_MASK) | (0 & DIRECTION_MASK);
  // Then pulse the stepping pins
  while(distance--) {
    2b74:	21 15       	cp	r18, r1
    2b76:	31 05       	cpc	r19, r1
    2b78:	51 f7       	brne	.-44     	; 0x2b4e <moveForward+0x10>
    2b7a:	81 e0       	ldi	r24, 0x01	; 1
	 _delay_us( PULSE_LENGTH ) ;
    STEPPING_PORT = (STEPPING_PORT & ~STEP_MASK);	
	 _delay_us( PULSE_OFF_LENGTH ) ;
  }
	return TRUE;
}
    2b7c:	08 95       	ret

00002b7e <moveBack>:

unsigned char moveBack( unsigned int distance ) 
{
    2b7e:	9c 01       	movw	r18, r24
  // Set the direction pins a couple of nanoseconds before we step the steppers
  DIRECTION_PORT = (DIRECTION_PORT & ~DIRECTION_MASK) | ((1<<Y_DIRECTION_BIT) & DIRECTION_MASK);
    2b80:	81 b3       	in	r24, 0x11	; 17
    2b82:	85 73       	andi	r24, 0x35	; 53
    2b84:	88 60       	ori	r24, 0x08	; 8
    2b86:	81 bb       	out	0x11, r24	; 17
    can be achieved.
*/
void
_delay_loop_1(uint8_t __count)
{
	__asm__ volatile (
    2b88:	95 e3       	ldi	r25, 0x35	; 53
    milliseconds can be achieved.
 */
void
_delay_loop_2(uint16_t __count)
{
	__asm__ volatile (
    2b8a:	40 e6       	ldi	r20, 0x60	; 96
    2b8c:	54 e0       	ldi	r21, 0x04	; 4
    2b8e:	13 c0       	rjmp	.+38     	; 0x2bb6 <moveBack+0x38>
  // Then pulse the stepping pins
  while(distance--) {

  	if( bit_is_set( LIMIT_PIN, Y2_LIMIT_BIT ) ) 
    2b90:	21 50       	subi	r18, 0x01	; 1
    2b92:	30 40       	sbci	r19, 0x00	; 0
    2b94:	49 9b       	sbis	0x09, 1	; 9
    2b96:	02 c0       	rjmp	.+4      	; 0x2b9c <moveBack+0x1e>
    2b98:	80 e0       	ldi	r24, 0x00	; 0
    2b9a:	08 95       	ret
		return 0;

    STEPPING_PORT = (STEPPING_PORT & ~STEP_MASK) | (1<<Y_STEP_BIT);	
    2b9c:	81 b3       	in	r24, 0x11	; 17
    2b9e:	8a 7c       	andi	r24, 0xCA	; 202
    2ba0:	84 60       	ori	r24, 0x04	; 4
    2ba2:	81 bb       	out	0x11, r24	; 17
    can be achieved.
*/
void
_delay_loop_1(uint8_t __count)
{
	__asm__ volatile (
    2ba4:	89 2f       	mov	r24, r25
    2ba6:	8a 95       	dec	r24
    2ba8:	f1 f7       	brne	.-4      	; 0x2ba6 <moveBack+0x28>
	 _delay_us( PULSE_LENGTH ) ;
    STEPPING_PORT = (STEPPING_PORT & ~STEP_MASK);	
    2baa:	81 b3       	in	r24, 0x11	; 17
    2bac:	8a 7c       	andi	r24, 0xCA	; 202
    2bae:	81 bb       	out	0x11, r24	; 17
    milliseconds can be achieved.
 */
void
_delay_loop_2(uint16_t __count)
{
	__asm__ volatile (
    2bb0:	fa 01       	movw	r30, r20
    2bb2:	31 97       	sbiw	r30, 0x01	; 1
    2bb4:	f1 f7       	brne	.-4      	; 0x2bb2 <moveBack+0x34>
unsigned char moveBack( unsigned int distance ) 
{
  // Set the direction pins a couple of nanoseconds before we step the steppers
  DIRECTION_PORT = (DIRECTION_PORT & ~DIRECTION_MASK) | ((1<<Y_DIRECTION_BIT) & DIRECTION_MASK);
  // Then pulse the stepping pins
  while(distance--) {
    2bb6:	21 15       	cp	r18, r1
    2bb8:	31 05       	cpc	r19, r1
    2bba:	51 f7       	brne	.-44     	; 0x2b90 <moveBack+0x12>
    2bbc:	81 e0       	ldi	r24, 0x01	; 1
	 _delay_us( PULSE_LENGTH ) ;
    STEPPING_PORT = (STEPPING_PORT & ~STEP_MASK);	
	 _delay_us( PULSE_OFF_LENGTH ) ;
  }
  return TRUE;
}
    2bbe:	08 95       	ret

00002bc0 <limits_init>:

void limits_init(void)
{

	//pickobear specific
	DDRA = 0x0;
    2bc0:	11 b8       	out	0x01, r1	; 1
	DDRB = 0x2;
    2bc2:	82 e0       	ldi	r24, 0x02	; 2
    2bc4:	84 b9       	out	0x04, r24	; 4
	DDRC = 0x0;
    2bc6:	17 b8       	out	0x07, r1	; 7
	DDRD = 0x0;
    2bc8:	1a b8       	out	0x0a, r1	; 10
	DDRE = 0x0;
    2bca:	1d b8       	out	0x0d, r1	; 13
	DDRF = 0x8F;
    2bcc:	9f e8       	ldi	r25, 0x8F	; 143
    2bce:	90 bb       	out	0x10, r25	; 16
	DDRG = 0x0;
    2bd0:	13 ba       	out	0x13, r1	; 19
	DDRH = 0x0;
    2bd2:	10 92 01 01 	sts	0x0101, r1
	DDRJ = 0x0;
    2bd6:	10 92 04 01 	sts	0x0104, r1
	DDRK = 0xCF;
    2bda:	3f ec       	ldi	r19, 0xCF	; 207
    2bdc:	30 93 07 01 	sts	0x0107, r19
	DDRL = 0xF0;
    2be0:	20 ef       	ldi	r18, 0xF0	; 240
    2be2:	20 93 0a 01 	sts	0x010A, r18

	PORTA = 0x9C;
    2be6:	8c e9       	ldi	r24, 0x9C	; 156
    2be8:	82 b9       	out	0x02, r24	; 2
	PORTB = 0x22;
    2bea:	82 e2       	ldi	r24, 0x22	; 34
    2bec:	85 b9       	out	0x05, r24	; 5
	PORTC = 0x13;
    2bee:	83 e1       	ldi	r24, 0x13	; 19
    2bf0:	88 b9       	out	0x08, r24	; 8
	PORTD = 0x8F;
    2bf2:	9b b9       	out	0x0b, r25	; 11
	PORTE = 0x30;
    2bf4:	80 e3       	ldi	r24, 0x30	; 48
    2bf6:	8e b9       	out	0x0e, r24	; 14
	PORTF = 0x8F;
    2bf8:	91 bb       	out	0x11, r25	; 17
	PORTG = 0x23;
    2bfa:	83 e2       	ldi	r24, 0x23	; 35
    2bfc:	84 bb       	out	0x14, r24	; 20
	PORTH = 0x3;
    2bfe:	83 e0       	ldi	r24, 0x03	; 3
    2c00:	80 93 02 01 	sts	0x0102, r24
	PORTJ = 0x3;
    2c04:	80 93 05 01 	sts	0x0105, r24
	PORTK = 0xCF;
    2c08:	30 93 08 01 	sts	0x0108, r19
	PORTL = 0xF0;
    2c0c:	20 93 0b 01 	sts	0x010B, r18
}
    2c10:	08 95       	ret

00002c12 <st_go_home>:

	unsigned int counter = 0;


	// not homed
	gHomed = FALSE;
    2c12:	10 92 4a 05 	sts	0x054A, r1

// reset position machine thinks we are at.
	plan_init();
    2c16:	0e 94 c0 0a 	call	0x1580	; 0x1580 <plan_init>
	gc_init();
    2c1a:	0e 94 d9 03 	call	0x7b2	; 0x7b2 <gc_init>

	// no interrupts
	cli();
    2c1e:	f8 94       	cli

	// if head down, set head up
	if( is_head_down() ) {
    2c20:	0e 94 ed 1b 	call	0x37da	; 0x37da <is_head_down>
    2c24:	88 23       	and	r24, r24
    2c26:	69 f0       	breq	.+26     	; 0x2c42 <st_go_home+0x30>
		head_down(0);
    2c28:	80 e0       	ldi	r24, 0x00	; 0
    2c2a:	90 e0       	ldi	r25, 0x00	; 0
    2c2c:	0e 94 f5 1b 	call	0x37ea	; 0x37ea <head_down>
		
		//check again
		if(is_head_down() ){
    2c30:	0e 94 ed 1b 	call	0x37da	; 0x37da <is_head_down>
    2c34:	88 23       	and	r24, r24
    2c36:	29 f0       	breq	.+10     	; 0x2c42 <st_go_home+0x30>
			printPgmString(PSTR("home failed\r\n"));
    2c38:	8e ea       	ldi	r24, 0xAE	; 174
    2c3a:	94 e0       	ldi	r25, 0x04	; 4
    2c3c:	0e 94 01 1a 	call	0x3402	; 0x3402 <printPgmString>
    2c40:	08 95       	ret
		}

	}

	// tool changer off
	atc_change(0);	
    2c42:	80 e0       	ldi	r24, 0x00	; 0
    2c44:	90 e0       	ldi	r25, 0x00	; 0
    2c46:	0e 94 16 1b 	call	0x362c	; 0x362c <atc_change>

static unsigned char xLimit1( void ) 
{
	unsigned char limit = bit_is_set( LIMIT_PIN, X1_LIMIT_BIT );
	
	if( limit ) {
    2c4a:	4b 9b       	sbis	0x09, 3	; 9
    2c4c:	16 c0       	rjmp	.+44     	; 0x2c7a <st_go_home+0x68>
		// no longer homed
		gHomed = FALSE;
    2c4e:	10 92 4a 05 	sts	0x054A, r1
		printPgmString(PSTR("xLimit1\r\n"));
    2c52:	8c eb       	ldi	r24, 0xBC	; 188
    2c54:	94 e0       	ldi	r25, 0x04	; 4
    2c56:	0e 94 01 1a 	call	0x3402	; 0x3402 <printPgmString>

#ifdef VERBOSE_DEBUG
		printPgmString(PSTR("xLimit1\r\n"));
#endif
		// move out far enough that the home and limit switches are passed
		if( moveRight( 1000 ) == 0 ) {
    2c5a:	88 ee       	ldi	r24, 0xE8	; 232
    2c5c:	93 e0       	ldi	r25, 0x03	; 3
    2c5e:	0e 94 7e 15 	call	0x2afc	; 0x2afc <moveRight>
    2c62:	88 23       	and	r24, r24
    2c64:	09 f4       	brne	.+2      	; 0x2c68 <st_go_home+0x56>
    2c66:	44 c0       	rjmp	.+136    	; 0x2cf0 <st_go_home+0xde>
			return;
    2c68:	80 ed       	ldi	r24, 0xD0	; 208
    2c6a:	97 e0       	ldi	r25, 0x07	; 7
    2c6c:	20 e9       	ldi	r18, 0x90	; 144
    2c6e:	31 e0       	ldi	r19, 0x01	; 1
    2c70:	f9 01       	movw	r30, r18
    2c72:	31 97       	sbiw	r30, 0x01	; 1
    2c74:	f1 f7       	brne	.-4      	; 0x2c72 <st_go_home+0x60>
		__ticks = (uint16_t) (__ms * 10.0);
		while(__ticks)
		{
			// wait 1/10 ms
			_delay_loop_2(((F_CPU) / 4e3) / 10);
			__ticks --;
    2c76:	01 97       	sbiw	r24, 0x01	; 1
		__ticks = 1;
	else if (__tmp > 65535)
	{
		//	__ticks = requested delay in 1/10 ms
		__ticks = (uint16_t) (__ms * 10.0);
		while(__ticks)
    2c78:	d9 f7       	brne	.-10     	; 0x2c70 <st_go_home+0x5e>
}
static unsigned char yLimit1( void ) 
{
	unsigned char limit = bit_is_set( LIMIT_PIN, Y1_LIMIT_BIT );
	
	if( limit ) {
    2c7a:	48 9b       	sbis	0x09, 0	; 9
    2c7c:	15 c0       	rjmp	.+42     	; 0x2ca8 <st_go_home+0x96>
		// no longer homed
		gHomed = FALSE;
    2c7e:	10 92 4a 05 	sts	0x054A, r1
		printPgmString(PSTR("yLimit1\r\n"));
    2c82:	86 ec       	ldi	r24, 0xC6	; 198
    2c84:	94 e0       	ldi	r25, 0x04	; 4
    2c86:	0e 94 01 1a 	call	0x3402	; 0x3402 <printPgmString>

#ifdef VERBOSE_DEBUG
		printPgmString(PSTR("yLimit1\r\n"));
#endif
		// move out far enough that the home and limit switches are passed
		if( moveBack( 1000 ) == 0 ) {
    2c8a:	88 ee       	ldi	r24, 0xE8	; 232
    2c8c:	93 e0       	ldi	r25, 0x03	; 3
    2c8e:	0e 94 bf 15 	call	0x2b7e	; 0x2b7e <moveBack>
    2c92:	88 23       	and	r24, r24
    2c94:	69 f1       	breq	.+90     	; 0x2cf0 <st_go_home+0xde>
			return;
    2c96:	80 ed       	ldi	r24, 0xD0	; 208
    2c98:	97 e0       	ldi	r25, 0x07	; 7
    2c9a:	20 e9       	ldi	r18, 0x90	; 144
    2c9c:	31 e0       	ldi	r19, 0x01	; 1
    2c9e:	f9 01       	movw	r30, r18
    2ca0:	31 97       	sbiw	r30, 0x01	; 1
    2ca2:	f1 f7       	brne	.-4      	; 0x2ca0 <st_go_home+0x8e>
		{
			// wait 1/10 ms
			_delay_loop_2(((F_CPU) / 4e3) / 10);
			__ticks --;
    2ca4:	01 97       	sbiw	r24, 0x01	; 1
		__ticks = 1;
	else if (__tmp > 65535)
	{
		//	__ticks = requested delay in 1/10 ms
		__ticks = (uint16_t) (__ms * 10.0);
		while(__ticks)
    2ca6:	d9 f7       	brne	.-10     	; 0x2c9e <st_go_home+0x8c>

#ifdef VERBOSE_DEBUG
		printPgmString(PSTR("."));
#endif
		// are we homed ?	
		if( bit_is_set( XHM_PIN, X_HOME ) ) {
    2ca8:	04 99       	sbic	0x00, 4	; 0
    2caa:	07 c0       	rjmp	.+14     	; 0x2cba <st_go_home+0xa8>
			
		}

		// no, crawl to home
		if ( xDir == LEFT) {
			if( moveLeft(1) == 0 ) 
    2cac:	81 e0       	ldi	r24, 0x01	; 1
    2cae:	90 e0       	ldi	r25, 0x00	; 0
    2cb0:	0e 94 5e 15 	call	0x2abc	; 0x2abc <moveLeft>
    2cb4:	88 23       	and	r24, r24
    2cb6:	c1 f7       	brne	.-16     	; 0x2ca8 <st_go_home+0x96>
    2cb8:	11 c0       	rjmp	.+34     	; 0x2cdc <st_go_home+0xca>
    2cba:	80 ed       	ldi	r24, 0xD0	; 208
    2cbc:	97 e0       	ldi	r25, 0x07	; 7
    2cbe:	20 e9       	ldi	r18, 0x90	; 144
    2cc0:	31 e0       	ldi	r19, 0x01	; 1
    2cc2:	f9 01       	movw	r30, r18
    2cc4:	31 97       	sbiw	r30, 0x01	; 1
    2cc6:	f1 f7       	brne	.-4      	; 0x2cc4 <st_go_home+0xb2>
		{
			// wait 1/10 ms
			_delay_loop_2(((F_CPU) / 4e3) / 10);
			__ticks --;
    2cc8:	01 97       	sbiw	r24, 0x01	; 1
		__ticks = 1;
	else if (__tmp > 65535)
	{
		//	__ticks = requested delay in 1/10 ms
		__ticks = (uint16_t) (__ms * 10.0);
		while(__ticks)
    2cca:	d9 f7       	brne	.-10     	; 0x2cc2 <st_go_home+0xb0>
		int counter = 0;

#ifdef VERBOSE_DEBUG
		printPgmString(PSTR("."));
#endif
		if( bit_is_set( YHM_PIN, Y_HOME ) ) {
    2ccc:	90 99       	sbic	0x12, 0	; 18
    2cce:	06 c0       	rjmp	.+12     	; 0x2cdc <st_go_home+0xca>
			yDir = STOP;
			
		}

		if ( yDir == FORWARD ) {
			if( moveForward(1) ==  0 ) {
    2cd0:	81 e0       	ldi	r24, 0x01	; 1
    2cd2:	90 e0       	ldi	r25, 0x00	; 0
    2cd4:	0e 94 9f 15 	call	0x2b3e	; 0x2b3e <moveForward>
    2cd8:	88 23       	and	r24, r24
    2cda:	c1 f7       	brne	.-16     	; 0x2ccc <st_go_home+0xba>

error:;



	sei();
    2cdc:	78 94       	sei


  if( ( LIMIT_PIN & 0xf) == 0x0 )  {
    2cde:	89 b1       	in	r24, 0x09	; 9
    2ce0:	90 e0       	ldi	r25, 0x00	; 0
    2ce2:	8f 70       	andi	r24, 0x0F	; 15
    2ce4:	90 70       	andi	r25, 0x00	; 0
    2ce6:	89 2b       	or	r24, r25
    2ce8:	19 f4       	brne	.+6      	; 0x2cf0 <st_go_home+0xde>
		gHomed = TRUE ;
    2cea:	81 e0       	ldi	r24, 0x01	; 1
    2cec:	80 93 4a 05 	sts	0x054A, r24
    2cf0:	08 95       	ret

00002cf2 <st_synchronize>:
    ((STEPPERS_ENABLE_PORT & (1<<STEPPERS_ENABLE_BIT)) ^ (STEPPERS_ENABLE_INVERT<<STEPPERS_ENABLE_BIT)));
}

// Block until all buffered steps are executed
void st_synchronize()
{
    2cf2:	07 c0       	rjmp	.+14     	; 0x2d02 <st_synchronize+0x10>
  while(plan_get_current_block()) { sleep_mode(); }    
    2cf4:	83 b7       	in	r24, 0x33	; 51
    2cf6:	81 60       	ori	r24, 0x01	; 1
    2cf8:	83 bf       	out	0x33, r24	; 51
    2cfa:	88 95       	sleep
    2cfc:	83 b7       	in	r24, 0x33	; 51
    2cfe:	8e 7f       	andi	r24, 0xFE	; 254
    2d00:	83 bf       	out	0x33, r24	; 51
    2d02:	0e 94 43 09 	call	0x1286	; 0x1286 <plan_get_current_block>
    2d06:	89 2b       	or	r24, r25
    2d08:	a9 f7       	brne	.-22     	; 0x2cf4 <st_synchronize+0x2>
}
    2d0a:	08 95       	ret

00002d0c <__vector_17>:

// "The Stepper Driver Interrupt" - This timer interrupt is the workhorse of Grbl. It is  executed at the rate set with
// config_step_timer. It pops blocks from the block_buffer and executes them by pulsing the stepper pins appropriately. 
// It is supported by The Stepper Port Reset Interrupt which it uses to reset the stepper port after each pulse.
SIGNAL(TIMER1_COMPA_vect)
{        
    2d0c:	1f 92       	push	r1
    2d0e:	0f 92       	push	r0
    2d10:	0f b6       	in	r0, 0x3f	; 63
    2d12:	0f 92       	push	r0
    2d14:	0b b6       	in	r0, 0x3b	; 59
    2d16:	0f 92       	push	r0
    2d18:	11 24       	eor	r1, r1
    2d1a:	ef 92       	push	r14
    2d1c:	ff 92       	push	r15
    2d1e:	0f 93       	push	r16
    2d20:	1f 93       	push	r17
    2d22:	2f 93       	push	r18
    2d24:	3f 93       	push	r19
    2d26:	4f 93       	push	r20
    2d28:	5f 93       	push	r21
    2d2a:	6f 93       	push	r22
    2d2c:	7f 93       	push	r23
    2d2e:	8f 93       	push	r24
    2d30:	9f 93       	push	r25
    2d32:	af 93       	push	r26
    2d34:	bf 93       	push	r27
    2d36:	cf 93       	push	r28
    2d38:	df 93       	push	r29
    2d3a:	ef 93       	push	r30
    2d3c:	ff 93       	push	r31
  // TODO: Check if the busy-flag can be eliminated by just disabling this interrupt while we are in it

	if ( gHomed == FALSE ) 
    2d3e:	80 91 4a 05 	lds	r24, 0x054A
    2d42:	88 23       	and	r24, r24
    2d44:	09 f4       	brne	.+2      	; 0x2d48 <__vector_17+0x3c>
    2d46:	71 c2       	rjmp	.+1250   	; 0x322a <__vector_17+0x51e>
		return;

// don't move if the head is down  
  if( is_head_down() )
    2d48:	0e 94 ed 1b 	call	0x37da	; 0x37da <is_head_down>
    2d4c:	88 23       	and	r24, r24
    2d4e:	09 f0       	breq	.+2      	; 0x2d52 <__vector_17+0x46>
    2d50:	6c c2       	rjmp	.+1240   	; 0x322a <__vector_17+0x51e>
  	return;

  if(busy){ return; } // The busy-flag is used to avoid reentering this interrupt
    2d52:	80 91 62 05 	lds	r24, 0x0562
    2d56:	90 91 63 05 	lds	r25, 0x0563
    2d5a:	89 2b       	or	r24, r25
    2d5c:	09 f0       	breq	.+2      	; 0x2d60 <__vector_17+0x54>
    2d5e:	65 c2       	rjmp	.+1226   	; 0x322a <__vector_17+0x51e>

  // Check all limit switches
  if( LIMIT_PIN & 0xf ) {
    2d60:	89 b1       	in	r24, 0x09	; 9
    2d62:	90 e0       	ldi	r25, 0x00	; 0
    2d64:	8f 70       	andi	r24, 0x0F	; 15
    2d66:	90 70       	andi	r25, 0x00	; 0
    2d68:	89 2b       	or	r24, r25
    2d6a:	19 f0       	breq	.+6      	; 0x2d72 <__vector_17+0x66>
  	gHomed = FALSE ;
    2d6c:	10 92 4a 05 	sts	0x054A, r1
    2d70:	5c c2       	rjmp	.+1208   	; 0x322a <__vector_17+0x51e>
	return;
  }

  // Set the direction pins a couple of nanoseconds before we step the steppers
  DIRECTION_PORT = (DIRECTION_PORT & ~DIRECTION_MASK) | (dir_bits & DIRECTION_MASK);
    2d72:	91 b3       	in	r25, 0x11	; 17
    2d74:	80 91 9a 06 	lds	r24, 0x069A
    2d78:	8a 7c       	andi	r24, 0xCA	; 202
    2d7a:	95 73       	andi	r25, 0x35	; 53
    2d7c:	89 2b       	or	r24, r25
    2d7e:	81 bb       	out	0x11, r24	; 17
  // Then pulse the stepping pins
  STEPPING_PORT = (STEPPING_PORT & ~STEP_MASK) | out_bits;
    2d80:	81 b3       	in	r24, 0x11	; 17
    2d82:	8a 7c       	andi	r24, 0xCA	; 202
    2d84:	90 91 4d 05 	lds	r25, 0x054D
    2d88:	89 2b       	or	r24, r25
    2d8a:	81 bb       	out	0x11, r24	; 17
  // Reset step pulse reset timer so that The Stepper Port Reset Interrupt can reset the signal after
  // exactly settings.pulse_microseconds microseconds.  Clear the overflow flag to stop a queued
  // interrupt from resetting the step pulse too soon.
  TCNT2 = -(((settings.pulse_microseconds-2)*TICKS_PER_MICROSECOND)/8);
    2d8c:	80 91 85 06 	lds	r24, 0x0685
    2d90:	88 0f       	add	r24, r24
    2d92:	84 50       	subi	r24, 0x04	; 4
    2d94:	81 95       	neg	r24
    2d96:	80 93 b2 00 	sts	0x00B2, r24
  TIFR2 |= (1<<TOV2);
    2d9a:	b8 9a       	sbi	0x17, 0	; 23

  busy = TRUE;
    2d9c:	81 e0       	ldi	r24, 0x01	; 1
    2d9e:	90 e0       	ldi	r25, 0x00	; 0
    2da0:	90 93 63 05 	sts	0x0563, r25
    2da4:	80 93 62 05 	sts	0x0562, r24
  sei(); // Re enable interrupts (normally disabled while inside an interrupt handler)
    2da8:	78 94       	sei
         // ((We re-enable interrupts in order for SIG_OVERFLOW2 to be able to be triggered 
         // at exactly the right time even if we occasionally spend a lot of time inside this handler.))
    
  // If there is no current block, attempt to pop one from the buffer
  if (current_block == NULL) {
    2daa:	80 91 4b 05 	lds	r24, 0x054B
    2dae:	90 91 4c 05 	lds	r25, 0x054C
    2db2:	89 2b       	or	r24, r25
    2db4:	09 f0       	breq	.+2      	; 0x2db8 <__vector_17+0xac>
    2db6:	5d c0       	rjmp	.+186    	; 0x2e72 <__vector_17+0x166>
    // Anything in the buffer?
    current_block = plan_get_current_block();
    2db8:	0e 94 43 09 	call	0x1286	; 0x1286 <plan_get_current_block>
    2dbc:	ec 01       	movw	r28, r24
    2dbe:	90 93 4c 05 	sts	0x054C, r25
    2dc2:	80 93 4b 05 	sts	0x054B, r24
    if (current_block != NULL) {
    2dc6:	00 97       	sbiw	r24, 0x00	; 0
    2dc8:	09 f4       	brne	.+2      	; 0x2dcc <__vector_17+0xc0>
    2dca:	4e c0       	rjmp	.+156    	; 0x2e68 <__vector_17+0x15c>
}

// Initializes the trapezoid generator from the current block. Called whenever a new 
// block begins.
inline void trapezoid_generator_reset() {
  trapezoid_adjusted_rate = current_block->initial_rate;  
    2dcc:	6d a9       	ldd	r22, Y+53	; 0x35
    2dce:	7e a9       	ldd	r23, Y+54	; 0x36
    2dd0:	8f a9       	ldd	r24, Y+55	; 0x37
    2dd2:	98 ad       	ldd	r25, Y+56	; 0x38
    2dd4:	60 93 6c 05 	sts	0x056C, r22
    2dd8:	70 93 6d 05 	sts	0x056D, r23
    2ddc:	80 93 6e 05 	sts	0x056E, r24
    2de0:	90 93 6f 05 	sts	0x056F, r25
  trapezoid_tick_cycle_counter = 0; // Always start a new trapezoid with a full acceleration tick
    2de4:	10 92 68 05 	sts	0x0568, r1
    2de8:	10 92 69 05 	sts	0x0569, r1
    2dec:	10 92 6a 05 	sts	0x056A, r1
    2df0:	10 92 6b 05 	sts	0x056B, r1
  set_step_events_per_minute(trapezoid_adjusted_rate);
    2df4:	0e 94 fd 14 	call	0x29fa	; 0x29fa <set_step_events_per_minute>
  if (current_block == NULL) {
    // Anything in the buffer?
    current_block = plan_get_current_block();
    if (current_block != NULL) {
      trapezoid_generator_reset();
      counter_x = -(current_block->step_event_count >> 1);
    2df8:	89 89       	ldd	r24, Y+17	; 0x11
    2dfa:	9a 89       	ldd	r25, Y+18	; 0x12
    2dfc:	ab 89       	ldd	r26, Y+19	; 0x13
    2dfe:	bc 89       	ldd	r27, Y+20	; 0x14
    2e00:	b5 95       	asr	r27
    2e02:	a7 95       	ror	r26
    2e04:	97 95       	ror	r25
    2e06:	87 95       	ror	r24
    2e08:	b0 95       	com	r27
    2e0a:	a0 95       	com	r26
    2e0c:	90 95       	com	r25
    2e0e:	81 95       	neg	r24
    2e10:	9f 4f       	sbci	r25, 0xFF	; 255
    2e12:	af 4f       	sbci	r26, 0xFF	; 255
    2e14:	bf 4f       	sbci	r27, 0xFF	; 255
    2e16:	80 93 4e 05 	sts	0x054E, r24
    2e1a:	90 93 4f 05 	sts	0x054F, r25
    2e1e:	a0 93 50 05 	sts	0x0550, r26
    2e22:	b0 93 51 05 	sts	0x0551, r27
      counter_y = counter_x;
    2e26:	80 93 52 05 	sts	0x0552, r24
    2e2a:	90 93 53 05 	sts	0x0553, r25
    2e2e:	a0 93 54 05 	sts	0x0554, r26
    2e32:	b0 93 55 05 	sts	0x0555, r27
      counter_z = counter_x;
    2e36:	80 93 56 05 	sts	0x0556, r24
    2e3a:	90 93 57 05 	sts	0x0557, r25
    2e3e:	a0 93 58 05 	sts	0x0558, r26
    2e42:	b0 93 59 05 	sts	0x0559, r27
      counter_c = counter_x;
    2e46:	80 93 5a 05 	sts	0x055A, r24
    2e4a:	90 93 5b 05 	sts	0x055B, r25
    2e4e:	a0 93 5c 05 	sts	0x055C, r26
    2e52:	b0 93 5d 05 	sts	0x055D, r27
      step_events_completed = 0;
    2e56:	10 92 5e 05 	sts	0x055E, r1
    2e5a:	10 92 5f 05 	sts	0x055F, r1
    2e5e:	10 92 60 05 	sts	0x0560, r1
    2e62:	10 92 61 05 	sts	0x0561, r1
    2e66:	05 c0       	rjmp	.+10     	; 0x2e72 <__vector_17+0x166>
    } else {
      DISABLE_STEPPER_DRIVER_INTERRUPT();
    2e68:	80 91 6f 00 	lds	r24, 0x006F
    2e6c:	8d 7f       	andi	r24, 0xFD	; 253
    2e6e:	80 93 6f 00 	sts	0x006F, r24
    }    
  } 

  if (current_block != NULL) {
    2e72:	e0 91 4b 05 	lds	r30, 0x054B
    2e76:	f0 91 4c 05 	lds	r31, 0x054C
    2e7a:	30 97       	sbiw	r30, 0x00	; 0
    2e7c:	09 f4       	brne	.+2      	; 0x2e80 <__vector_17+0x174>
    2e7e:	ee c0       	rjmp	.+476    	; 0x305c <__vector_17+0x350>
    dir_bits = current_block->direction_bits;
    2e80:	80 89       	ldd	r24, Z+16	; 0x10
    2e82:	80 93 9a 06 	sts	0x069A, r24
    out_bits = 0;
    2e86:	10 92 4d 05 	sts	0x054D, r1
    counter_x += current_block->steps_x;
    2e8a:	20 91 4e 05 	lds	r18, 0x054E
    2e8e:	30 91 4f 05 	lds	r19, 0x054F
    2e92:	40 91 50 05 	lds	r20, 0x0550
    2e96:	50 91 51 05 	lds	r21, 0x0551
    2e9a:	80 81       	ld	r24, Z
    2e9c:	91 81       	ldd	r25, Z+1	; 0x01
    2e9e:	a2 81       	ldd	r26, Z+2	; 0x02
    2ea0:	b3 81       	ldd	r27, Z+3	; 0x03
    2ea2:	28 0f       	add	r18, r24
    2ea4:	39 1f       	adc	r19, r25
    2ea6:	4a 1f       	adc	r20, r26
    2ea8:	5b 1f       	adc	r21, r27
    2eaa:	20 93 4e 05 	sts	0x054E, r18
    2eae:	30 93 4f 05 	sts	0x054F, r19
    2eb2:	40 93 50 05 	sts	0x0550, r20
    2eb6:	50 93 51 05 	sts	0x0551, r21
    if (counter_x > 0) {
    2eba:	12 16       	cp	r1, r18
    2ebc:	13 06       	cpc	r1, r19
    2ebe:	14 06       	cpc	r1, r20
    2ec0:	15 06       	cpc	r1, r21
    2ec2:	9c f4       	brge	.+38     	; 0x2eea <__vector_17+0x1de>
      out_bits |= (1<<X_STEP_BIT);
    2ec4:	81 e0       	ldi	r24, 0x01	; 1
    2ec6:	80 93 4d 05 	sts	0x054D, r24
      counter_x -= current_block->step_event_count;
    2eca:	81 89       	ldd	r24, Z+17	; 0x11
    2ecc:	92 89       	ldd	r25, Z+18	; 0x12
    2ece:	a3 89       	ldd	r26, Z+19	; 0x13
    2ed0:	b4 89       	ldd	r27, Z+20	; 0x14
    2ed2:	28 1b       	sub	r18, r24
    2ed4:	39 0b       	sbc	r19, r25
    2ed6:	4a 0b       	sbc	r20, r26
    2ed8:	5b 0b       	sbc	r21, r27
    2eda:	20 93 4e 05 	sts	0x054E, r18
    2ede:	30 93 4f 05 	sts	0x054F, r19
    2ee2:	40 93 50 05 	sts	0x0550, r20
    2ee6:	50 93 51 05 	sts	0x0551, r21
    }
    counter_y += current_block->steps_y;
    2eea:	20 91 52 05 	lds	r18, 0x0552
    2eee:	30 91 53 05 	lds	r19, 0x0553
    2ef2:	40 91 54 05 	lds	r20, 0x0554
    2ef6:	50 91 55 05 	lds	r21, 0x0555
    2efa:	84 81       	ldd	r24, Z+4	; 0x04
    2efc:	95 81       	ldd	r25, Z+5	; 0x05
    2efe:	a6 81       	ldd	r26, Z+6	; 0x06
    2f00:	b7 81       	ldd	r27, Z+7	; 0x07
    2f02:	28 0f       	add	r18, r24
    2f04:	39 1f       	adc	r19, r25
    2f06:	4a 1f       	adc	r20, r26
    2f08:	5b 1f       	adc	r21, r27
    2f0a:	20 93 52 05 	sts	0x0552, r18
    2f0e:	30 93 53 05 	sts	0x0553, r19
    2f12:	40 93 54 05 	sts	0x0554, r20
    2f16:	50 93 55 05 	sts	0x0555, r21
    if (counter_y > 0) {
    2f1a:	12 16       	cp	r1, r18
    2f1c:	13 06       	cpc	r1, r19
    2f1e:	14 06       	cpc	r1, r20
    2f20:	15 06       	cpc	r1, r21
    2f22:	ac f4       	brge	.+42     	; 0x2f4e <__vector_17+0x242>
      out_bits |= (1<<Y_STEP_BIT);
    2f24:	80 91 4d 05 	lds	r24, 0x054D
    2f28:	84 60       	ori	r24, 0x04	; 4
    2f2a:	80 93 4d 05 	sts	0x054D, r24
      counter_y -= current_block->step_event_count;
    2f2e:	81 89       	ldd	r24, Z+17	; 0x11
    2f30:	92 89       	ldd	r25, Z+18	; 0x12
    2f32:	a3 89       	ldd	r26, Z+19	; 0x13
    2f34:	b4 89       	ldd	r27, Z+20	; 0x14
    2f36:	28 1b       	sub	r18, r24
    2f38:	39 0b       	sbc	r19, r25
    2f3a:	4a 0b       	sbc	r20, r26
    2f3c:	5b 0b       	sbc	r21, r27
    2f3e:	20 93 52 05 	sts	0x0552, r18
    2f42:	30 93 53 05 	sts	0x0553, r19
    2f46:	40 93 54 05 	sts	0x0554, r20
    2f4a:	50 93 55 05 	sts	0x0555, r21
    }
    counter_z += current_block->steps_z;
    2f4e:	20 91 56 05 	lds	r18, 0x0556
    2f52:	30 91 57 05 	lds	r19, 0x0557
    2f56:	40 91 58 05 	lds	r20, 0x0558
    2f5a:	50 91 59 05 	lds	r21, 0x0559
    2f5e:	80 85       	ldd	r24, Z+8	; 0x08
    2f60:	91 85       	ldd	r25, Z+9	; 0x09
    2f62:	a2 85       	ldd	r26, Z+10	; 0x0a
    2f64:	b3 85       	ldd	r27, Z+11	; 0x0b
    2f66:	28 0f       	add	r18, r24
    2f68:	39 1f       	adc	r19, r25
    2f6a:	4a 1f       	adc	r20, r26
    2f6c:	5b 1f       	adc	r21, r27
    2f6e:	20 93 56 05 	sts	0x0556, r18
    2f72:	30 93 57 05 	sts	0x0557, r19
    2f76:	40 93 58 05 	sts	0x0558, r20
    2f7a:	50 93 59 05 	sts	0x0559, r21
    if (counter_z > 0) {
    2f7e:	12 16       	cp	r1, r18
    2f80:	13 06       	cpc	r1, r19
    2f82:	14 06       	cpc	r1, r20
    2f84:	15 06       	cpc	r1, r21
    2f86:	ac f4       	brge	.+42     	; 0x2fb2 <__vector_17+0x2a6>
      out_bits |= (1<<Z_STEP_BIT);
    2f88:	80 91 4d 05 	lds	r24, 0x054D
    2f8c:	80 61       	ori	r24, 0x10	; 16
    2f8e:	80 93 4d 05 	sts	0x054D, r24
      counter_z -= current_block->step_event_count;
    2f92:	81 89       	ldd	r24, Z+17	; 0x11
    2f94:	92 89       	ldd	r25, Z+18	; 0x12
    2f96:	a3 89       	ldd	r26, Z+19	; 0x13
    2f98:	b4 89       	ldd	r27, Z+20	; 0x14
    2f9a:	28 1b       	sub	r18, r24
    2f9c:	39 0b       	sbc	r19, r25
    2f9e:	4a 0b       	sbc	r20, r26
    2fa0:	5b 0b       	sbc	r21, r27
    2fa2:	20 93 56 05 	sts	0x0556, r18
    2fa6:	30 93 57 05 	sts	0x0557, r19
    2faa:	40 93 58 05 	sts	0x0558, r20
    2fae:	50 93 59 05 	sts	0x0559, r21
    }
    counter_c += current_block->steps_c;
    2fb2:	20 91 5a 05 	lds	r18, 0x055A
    2fb6:	30 91 5b 05 	lds	r19, 0x055B
    2fba:	40 91 5c 05 	lds	r20, 0x055C
    2fbe:	50 91 5d 05 	lds	r21, 0x055D
    2fc2:	84 85       	ldd	r24, Z+12	; 0x0c
    2fc4:	95 85       	ldd	r25, Z+13	; 0x0d
    2fc6:	a6 85       	ldd	r26, Z+14	; 0x0e
    2fc8:	b7 85       	ldd	r27, Z+15	; 0x0f
    2fca:	28 0f       	add	r18, r24
    2fcc:	39 1f       	adc	r19, r25
    2fce:	4a 1f       	adc	r20, r26
    2fd0:	5b 1f       	adc	r21, r27
    2fd2:	20 93 5a 05 	sts	0x055A, r18
    2fd6:	30 93 5b 05 	sts	0x055B, r19
    2fda:	40 93 5c 05 	sts	0x055C, r20
    2fde:	50 93 5d 05 	sts	0x055D, r21
    if (counter_c > 0) {
    2fe2:	12 16       	cp	r1, r18
    2fe4:	13 06       	cpc	r1, r19
    2fe6:	14 06       	cpc	r1, r20
    2fe8:	15 06       	cpc	r1, r21
    2fea:	ac f4       	brge	.+42     	; 0x3016 <__vector_17+0x30a>
      out_bits |= (1<<C_STEP_BIT);
    2fec:	80 91 4d 05 	lds	r24, 0x054D
    2ff0:	80 62       	ori	r24, 0x20	; 32
    2ff2:	80 93 4d 05 	sts	0x054D, r24
      counter_c -= current_block->step_event_count;
    2ff6:	81 89       	ldd	r24, Z+17	; 0x11
    2ff8:	92 89       	ldd	r25, Z+18	; 0x12
    2ffa:	a3 89       	ldd	r26, Z+19	; 0x13
    2ffc:	b4 89       	ldd	r27, Z+20	; 0x14
    2ffe:	28 1b       	sub	r18, r24
    3000:	39 0b       	sbc	r19, r25
    3002:	4a 0b       	sbc	r20, r26
    3004:	5b 0b       	sbc	r21, r27
    3006:	20 93 5a 05 	sts	0x055A, r18
    300a:	30 93 5b 05 	sts	0x055B, r19
    300e:	40 93 5c 05 	sts	0x055C, r20
    3012:	50 93 5d 05 	sts	0x055D, r21
    }    
    // If current block is finished, reset pointer 
    step_events_completed += 1;
    3016:	80 91 5e 05 	lds	r24, 0x055E
    301a:	90 91 5f 05 	lds	r25, 0x055F
    301e:	a0 91 60 05 	lds	r26, 0x0560
    3022:	b0 91 61 05 	lds	r27, 0x0561
    3026:	01 96       	adiw	r24, 0x01	; 1
    3028:	a1 1d       	adc	r26, r1
    302a:	b1 1d       	adc	r27, r1
    302c:	80 93 5e 05 	sts	0x055E, r24
    3030:	90 93 5f 05 	sts	0x055F, r25
    3034:	a0 93 60 05 	sts	0x0560, r26
    3038:	b0 93 61 05 	sts	0x0561, r27
    if (step_events_completed >= current_block->step_event_count) {
    303c:	21 89       	ldd	r18, Z+17	; 0x11
    303e:	32 89       	ldd	r19, Z+18	; 0x12
    3040:	43 89       	ldd	r20, Z+19	; 0x13
    3042:	54 89       	ldd	r21, Z+20	; 0x14
    3044:	82 17       	cp	r24, r18
    3046:	93 07       	cpc	r25, r19
    3048:	a4 07       	cpc	r26, r20
    304a:	b5 07       	cpc	r27, r21
    304c:	48 f0       	brcs	.+18     	; 0x3060 <__vector_17+0x354>
      current_block = NULL;
    304e:	10 92 4c 05 	sts	0x054C, r1
    3052:	10 92 4b 05 	sts	0x054B, r1
      plan_discard_current_block();
    3056:	0e 94 2a 09 	call	0x1254	; 0x1254 <plan_discard_current_block>
    305a:	02 c0       	rjmp	.+4      	; 0x3060 <__vector_17+0x354>
    }
  } else {
    out_bits = 0;
    305c:	10 92 4d 05 	sts	0x054D, r1
  }          
  out_bits ^= STEP_INVERT_MASK;
  dir_bits ^= DIRECTION_INVERT_MASK;
    3060:	80 91 9a 06 	lds	r24, 0x069A
    3064:	9a e0       	ldi	r25, 0x0A	; 10
    3066:	89 27       	eor	r24, r25
    3068:	80 93 9a 06 	sts	0x069A, r24
  
  // In average this generates a trapezoid_generator_tick every CYCLES_PER_ACCELERATION_TICK by keeping track
  // of the number of elapsed cycles. The code assumes that step_events occur significantly more often than
  // trapezoid_generator_ticks as they well should. 
  trapezoid_tick_cycle_counter += cycles_per_step_event;
    306c:	20 91 64 05 	lds	r18, 0x0564
    3070:	30 91 65 05 	lds	r19, 0x0565
    3074:	40 91 66 05 	lds	r20, 0x0566
    3078:	50 91 67 05 	lds	r21, 0x0567
    307c:	80 91 68 05 	lds	r24, 0x0568
    3080:	90 91 69 05 	lds	r25, 0x0569
    3084:	a0 91 6a 05 	lds	r26, 0x056A
    3088:	b0 91 6b 05 	lds	r27, 0x056B
    308c:	28 0f       	add	r18, r24
    308e:	39 1f       	adc	r19, r25
    3090:	4a 1f       	adc	r20, r26
    3092:	5b 1f       	adc	r21, r27
    3094:	20 93 68 05 	sts	0x0568, r18
    3098:	30 93 69 05 	sts	0x0569, r19
    309c:	40 93 6a 05 	sts	0x056A, r20
    30a0:	50 93 6b 05 	sts	0x056B, r21
  if(trapezoid_tick_cycle_counter > CYCLES_PER_ACCELERATION_TICK) {
    30a4:	21 38       	cpi	r18, 0x81	; 129
    30a6:	8a e1       	ldi	r24, 0x1A	; 26
    30a8:	38 07       	cpc	r19, r24
    30aa:	86 e0       	ldi	r24, 0x06	; 6
    30ac:	48 07       	cpc	r20, r24
    30ae:	80 e0       	ldi	r24, 0x00	; 0
    30b0:	58 07       	cpc	r21, r24
    30b2:	08 f4       	brcc	.+2      	; 0x30b6 <__vector_17+0x3aa>
    30b4:	b6 c0       	rjmp	.+364    	; 0x3222 <__vector_17+0x516>
    trapezoid_tick_cycle_counter -= CYCLES_PER_ACCELERATION_TICK;
    30b6:	20 58       	subi	r18, 0x80	; 128
    30b8:	3a 41       	sbci	r19, 0x1A	; 26
    30ba:	46 40       	sbci	r20, 0x06	; 6
    30bc:	50 40       	sbci	r21, 0x00	; 0
    30be:	20 93 68 05 	sts	0x0568, r18
    30c2:	30 93 69 05 	sts	0x0569, r19
    30c6:	40 93 6a 05 	sts	0x056A, r20
    30ca:	50 93 6b 05 	sts	0x056B, r21

// This is called ACCELERATION_TICKS_PER_SECOND times per second by the step_event
// interrupt. It can be assumed that the trapezoid-generator-parameters and the
// current_block stays untouched by outside handlers for the duration of this function call.
inline void trapezoid_generator_tick() {     
  if (current_block) {
    30ce:	e0 91 4b 05 	lds	r30, 0x054B
    30d2:	f0 91 4c 05 	lds	r31, 0x054C
    30d6:	30 97       	sbiw	r30, 0x00	; 0
    30d8:	09 f4       	brne	.+2      	; 0x30dc <__vector_17+0x3d0>
    30da:	a3 c0       	rjmp	.+326    	; 0x3222 <__vector_17+0x516>
    if (step_events_completed < current_block->accelerate_until) {
    30dc:	e0 90 5e 05 	lds	r14, 0x055E
    30e0:	f0 90 5f 05 	lds	r15, 0x055F
    30e4:	00 91 60 05 	lds	r16, 0x0560
    30e8:	10 91 61 05 	lds	r17, 0x0561
    30ec:	ef 5b       	subi	r30, 0xBF	; 191
    30ee:	ff 4f       	sbci	r31, 0xFF	; 255
    30f0:	80 81       	ld	r24, Z
    30f2:	91 81       	ldd	r25, Z+1	; 0x01
    30f4:	a2 81       	ldd	r26, Z+2	; 0x02
    30f6:	b3 81       	ldd	r27, Z+3	; 0x03
    30f8:	e1 54       	subi	r30, 0x41	; 65
    30fa:	f0 40       	sbci	r31, 0x00	; 0
    30fc:	e8 16       	cp	r14, r24
    30fe:	f9 06       	cpc	r15, r25
    3100:	0a 07       	cpc	r16, r26
    3102:	1b 07       	cpc	r17, r27
    3104:	68 f5       	brcc	.+90     	; 0x3160 <__vector_17+0x454>
      trapezoid_adjusted_rate += current_block->rate_delta;
    3106:	fd 96       	adiw	r30, 0x3d	; 61
    3108:	20 81       	ld	r18, Z
    310a:	31 81       	ldd	r19, Z+1	; 0x01
    310c:	42 81       	ldd	r20, Z+2	; 0x02
    310e:	53 81       	ldd	r21, Z+3	; 0x03
    3110:	fd 97       	sbiw	r30, 0x3d	; 61
    3112:	80 91 6c 05 	lds	r24, 0x056C
    3116:	90 91 6d 05 	lds	r25, 0x056D
    311a:	a0 91 6e 05 	lds	r26, 0x056E
    311e:	b0 91 6f 05 	lds	r27, 0x056F
    3122:	28 0f       	add	r18, r24
    3124:	39 1f       	adc	r19, r25
    3126:	4a 1f       	adc	r20, r26
    3128:	5b 1f       	adc	r21, r27
    312a:	20 93 6c 05 	sts	0x056C, r18
    312e:	30 93 6d 05 	sts	0x056D, r19
    3132:	40 93 6e 05 	sts	0x056E, r20
    3136:	50 93 6f 05 	sts	0x056F, r21
      if (trapezoid_adjusted_rate > current_block->nominal_rate ) {
    313a:	85 89       	ldd	r24, Z+21	; 0x15
    313c:	96 89       	ldd	r25, Z+22	; 0x16
    313e:	a7 89       	ldd	r26, Z+23	; 0x17
    3140:	b0 8d       	ldd	r27, Z+24	; 0x18
    3142:	82 17       	cp	r24, r18
    3144:	93 07       	cpc	r25, r19
    3146:	a4 07       	cpc	r26, r20
    3148:	b5 07       	cpc	r27, r21
    314a:	08 f0       	brcs	.+2      	; 0x314e <__vector_17+0x442>
    314c:	4e c0       	rjmp	.+156    	; 0x31ea <__vector_17+0x4de>
        trapezoid_adjusted_rate = current_block->nominal_rate;
    314e:	80 93 6c 05 	sts	0x056C, r24
    3152:	90 93 6d 05 	sts	0x056D, r25
    3156:	a0 93 6e 05 	sts	0x056E, r26
    315a:	b0 93 6f 05 	sts	0x056F, r27
    315e:	45 c0       	rjmp	.+138    	; 0x31ea <__vector_17+0x4de>
      }
      set_step_events_per_minute(trapezoid_adjusted_rate);
    } else if (step_events_completed > current_block->decelerate_after) {
    3160:	eb 5b       	subi	r30, 0xBB	; 187
    3162:	ff 4f       	sbci	r31, 0xFF	; 255
    3164:	80 81       	ld	r24, Z
    3166:	91 81       	ldd	r25, Z+1	; 0x01
    3168:	a2 81       	ldd	r26, Z+2	; 0x02
    316a:	b3 81       	ldd	r27, Z+3	; 0x03
    316c:	e5 54       	subi	r30, 0x45	; 69
    316e:	f0 40       	sbci	r31, 0x00	; 0
    3170:	20 91 6c 05 	lds	r18, 0x056C
    3174:	30 91 6d 05 	lds	r19, 0x056D
    3178:	40 91 6e 05 	lds	r20, 0x056E
    317c:	50 91 6f 05 	lds	r21, 0x056F
    3180:	8e 15       	cp	r24, r14
    3182:	9f 05       	cpc	r25, r15
    3184:	a0 07       	cpc	r26, r16
    3186:	b1 07       	cpc	r27, r17
    3188:	c8 f5       	brcc	.+114    	; 0x31fc <__vector_17+0x4f0>
      // NOTE: We will only reduce speed if the result will be > 0. This catches small
      // rounding errors that might leave steps hanging after the last trapezoid tick.
      if (trapezoid_adjusted_rate > current_block->rate_delta) {
    318a:	fd 96       	adiw	r30, 0x3d	; 61
    318c:	80 81       	ld	r24, Z
    318e:	91 81       	ldd	r25, Z+1	; 0x01
    3190:	a2 81       	ldd	r26, Z+2	; 0x02
    3192:	b3 81       	ldd	r27, Z+3	; 0x03
    3194:	fd 97       	sbiw	r30, 0x3d	; 61
    3196:	82 17       	cp	r24, r18
    3198:	93 07       	cpc	r25, r19
    319a:	a4 07       	cpc	r26, r20
    319c:	b5 07       	cpc	r27, r21
    319e:	60 f4       	brcc	.+24     	; 0x31b8 <__vector_17+0x4ac>
        trapezoid_adjusted_rate -= current_block->rate_delta;
    31a0:	28 1b       	sub	r18, r24
    31a2:	39 0b       	sbc	r19, r25
    31a4:	4a 0b       	sbc	r20, r26
    31a6:	5b 0b       	sbc	r21, r27
    31a8:	20 93 6c 05 	sts	0x056C, r18
    31ac:	30 93 6d 05 	sts	0x056D, r19
    31b0:	40 93 6e 05 	sts	0x056E, r20
    31b4:	50 93 6f 05 	sts	0x056F, r21
      }
      if (trapezoid_adjusted_rate < current_block->final_rate) {
    31b8:	21 ad       	ldd	r18, Z+57	; 0x39
    31ba:	32 ad       	ldd	r19, Z+58	; 0x3a
    31bc:	43 ad       	ldd	r20, Z+59	; 0x3b
    31be:	54 ad       	ldd	r21, Z+60	; 0x3c
    31c0:	80 91 6c 05 	lds	r24, 0x056C
    31c4:	90 91 6d 05 	lds	r25, 0x056D
    31c8:	a0 91 6e 05 	lds	r26, 0x056E
    31cc:	b0 91 6f 05 	lds	r27, 0x056F
    31d0:	82 17       	cp	r24, r18
    31d2:	93 07       	cpc	r25, r19
    31d4:	a4 07       	cpc	r26, r20
    31d6:	b5 07       	cpc	r27, r21
    31d8:	40 f4       	brcc	.+16     	; 0x31ea <__vector_17+0x4de>
        trapezoid_adjusted_rate = current_block->final_rate;
    31da:	20 93 6c 05 	sts	0x056C, r18
    31de:	30 93 6d 05 	sts	0x056D, r19
    31e2:	40 93 6e 05 	sts	0x056E, r20
    31e6:	50 93 6f 05 	sts	0x056F, r21
      }        
      set_step_events_per_minute(trapezoid_adjusted_rate);
    31ea:	60 91 6c 05 	lds	r22, 0x056C
    31ee:	70 91 6d 05 	lds	r23, 0x056D
    31f2:	80 91 6e 05 	lds	r24, 0x056E
    31f6:	90 91 6f 05 	lds	r25, 0x056F
    31fa:	11 c0       	rjmp	.+34     	; 0x321e <__vector_17+0x512>
    } else {
      // Make sure we cruise at exactly nominal rate
      if (trapezoid_adjusted_rate != current_block->nominal_rate) {
    31fc:	65 89       	ldd	r22, Z+21	; 0x15
    31fe:	76 89       	ldd	r23, Z+22	; 0x16
    3200:	87 89       	ldd	r24, Z+23	; 0x17
    3202:	90 8d       	ldd	r25, Z+24	; 0x18
    3204:	26 17       	cp	r18, r22
    3206:	37 07       	cpc	r19, r23
    3208:	48 07       	cpc	r20, r24
    320a:	59 07       	cpc	r21, r25
    320c:	51 f0       	breq	.+20     	; 0x3222 <__vector_17+0x516>
        trapezoid_adjusted_rate = current_block->nominal_rate;
    320e:	60 93 6c 05 	sts	0x056C, r22
    3212:	70 93 6d 05 	sts	0x056D, r23
    3216:	80 93 6e 05 	sts	0x056E, r24
    321a:	90 93 6f 05 	sts	0x056F, r25
        set_step_events_per_minute(trapezoid_adjusted_rate);
    321e:	0e 94 fd 14 	call	0x29fa	; 0x29fa <set_step_events_per_minute>
  if(trapezoid_tick_cycle_counter > CYCLES_PER_ACCELERATION_TICK) {
    trapezoid_tick_cycle_counter -= CYCLES_PER_ACCELERATION_TICK;
    trapezoid_generator_tick();
  }
  
  busy=FALSE;
    3222:	10 92 63 05 	sts	0x0563, r1
    3226:	10 92 62 05 	sts	0x0562, r1
}
    322a:	ff 91       	pop	r31
    322c:	ef 91       	pop	r30
    322e:	df 91       	pop	r29
    3230:	cf 91       	pop	r28
    3232:	bf 91       	pop	r27
    3234:	af 91       	pop	r26
    3236:	9f 91       	pop	r25
    3238:	8f 91       	pop	r24
    323a:	7f 91       	pop	r23
    323c:	6f 91       	pop	r22
    323e:	5f 91       	pop	r21
    3240:	4f 91       	pop	r20
    3242:	3f 91       	pop	r19
    3244:	2f 91       	pop	r18
    3246:	1f 91       	pop	r17
    3248:	0f 91       	pop	r16
    324a:	ff 90       	pop	r15
    324c:	ef 90       	pop	r14
    324e:	0f 90       	pop	r0
    3250:	0b be       	out	0x3b, r0	; 59
    3252:	0f 90       	pop	r0
    3254:	0f be       	out	0x3f, r0	; 63
    3256:	0f 90       	pop	r0
    3258:	1f 90       	pop	r1
    325a:	18 95       	reti

0000325c <beginSerial>:

int rx_buffer_head = 0;
int rx_buffer_tail = 0;

void beginSerial(long baud)
{
    325c:	ef 92       	push	r14
    325e:	ff 92       	push	r15
    3260:	0f 93       	push	r16
    3262:	1f 93       	push	r17
    3264:	7b 01       	movw	r14, r22
    3266:	8c 01       	movw	r16, r24
	UBRR0H = ((F_CPU / 16 + baud / 2) / baud - 1) >> 8;
    3268:	22 e0       	ldi	r18, 0x02	; 2
    326a:	30 e0       	ldi	r19, 0x00	; 0
    326c:	40 e0       	ldi	r20, 0x00	; 0
    326e:	50 e0       	ldi	r21, 0x00	; 0
    3270:	0e 94 dd 20 	call	0x41ba	; 0x41ba <__divmodsi4>
    3274:	20 5c       	subi	r18, 0xC0	; 192
    3276:	3d 4b       	sbci	r19, 0xBD	; 189
    3278:	40 4f       	sbci	r20, 0xF0	; 240
    327a:	5f 4f       	sbci	r21, 0xFF	; 255
    327c:	ca 01       	movw	r24, r20
    327e:	b9 01       	movw	r22, r18
    3280:	a8 01       	movw	r20, r16
    3282:	97 01       	movw	r18, r14
    3284:	0e 94 bb 20 	call	0x4176	; 0x4176 <__udivmodsi4>
    3288:	c9 01       	movw	r24, r18
    328a:	da 01       	movw	r26, r20
    328c:	01 97       	sbiw	r24, 0x01	; 1
    328e:	a1 09       	sbc	r26, r1
    3290:	b1 09       	sbc	r27, r1
    3292:	29 2f       	mov	r18, r25
    3294:	3a 2f       	mov	r19, r26
    3296:	4b 2f       	mov	r20, r27
    3298:	55 27       	eor	r21, r21
    329a:	01 96       	adiw	r24, 0x01	; 1
    329c:	a1 1d       	adc	r26, r1
    329e:	b1 1d       	adc	r27, r1
    32a0:	20 93 c5 00 	sts	0x00C5, r18
	UBRR0L = ((F_CPU / 16 + baud / 2) / baud - 1);
    32a4:	81 50       	subi	r24, 0x01	; 1
    32a6:	80 93 c4 00 	sts	0x00C4, r24
	
	/* baud doubler off  - Only needed on Uno XXX */
  UCSR0A &= ~(1 << U2X0);
    32aa:	e0 ec       	ldi	r30, 0xC0	; 192
    32ac:	f0 e0       	ldi	r31, 0x00	; 0
    32ae:	80 81       	ld	r24, Z
    32b0:	8d 7f       	andi	r24, 0xFD	; 253
    32b2:	80 83       	st	Z, r24
          
	// enable rx and tx
  UCSR0B |= 1<<RXEN0;
    32b4:	e1 ec       	ldi	r30, 0xC1	; 193
    32b6:	f0 e0       	ldi	r31, 0x00	; 0
    32b8:	80 81       	ld	r24, Z
    32ba:	80 61       	ori	r24, 0x10	; 16
    32bc:	80 83       	st	Z, r24
  UCSR0B |= 1<<TXEN0;
    32be:	80 81       	ld	r24, Z
    32c0:	88 60       	ori	r24, 0x08	; 8
    32c2:	80 83       	st	Z, r24
	
	// enable interrupt on complete reception of a byte
  UCSR0B |= 1<<RXCIE0;
    32c4:	80 81       	ld	r24, Z
    32c6:	80 68       	ori	r24, 0x80	; 128
    32c8:	80 83       	st	Z, r24
	
	// defaults to 8-bit, no parity, 1 stop bit
}
    32ca:	1f 91       	pop	r17
    32cc:	0f 91       	pop	r16
    32ce:	ff 90       	pop	r15
    32d0:	ef 90       	pop	r14
    32d2:	08 95       	ret

000032d4 <serialWrite>:

void serialWrite(unsigned char c)
{
    32d4:	98 2f       	mov	r25, r24
	while (!(UCSR0A & (1 << UDRE0)))
    32d6:	80 91 c0 00 	lds	r24, 0x00C0
    32da:	85 ff       	sbrs	r24, 5
    32dc:	fc cf       	rjmp	.-8      	; 0x32d6 <serialWrite+0x2>
		;
	UDR0 = c;
    32de:	90 93 c6 00 	sts	0x00C6, r25
}
    32e2:	08 95       	ret

000032e4 <serialAvailable>:

int serialAvailable()
{
    32e4:	80 91 70 05 	lds	r24, 0x0570
    32e8:	90 91 71 05 	lds	r25, 0x0571
    32ec:	80 50       	subi	r24, 0x00	; 0
    32ee:	9f 4f       	sbci	r25, 0xFF	; 255
    32f0:	20 91 72 05 	lds	r18, 0x0572
    32f4:	30 91 73 05 	lds	r19, 0x0573
    32f8:	82 1b       	sub	r24, r18
    32fa:	93 0b       	sbc	r25, r19
    32fc:	60 e0       	ldi	r22, 0x00	; 0
    32fe:	71 e0       	ldi	r23, 0x01	; 1
    3300:	0e 94 a8 20 	call	0x4150	; 0x4150 <__divmodhi4>
	return (RX_BUFFER_SIZE + rx_buffer_head - rx_buffer_tail) % RX_BUFFER_SIZE;
}
    3304:	08 95       	ret

00003306 <serialRead>:

int serialRead()
{
	// if the head isn't ahead of the tail, we don't have any characters
	if (rx_buffer_head == rx_buffer_tail) {
    3306:	40 91 72 05 	lds	r20, 0x0572
    330a:	50 91 73 05 	lds	r21, 0x0573
    330e:	80 91 70 05 	lds	r24, 0x0570
    3312:	90 91 71 05 	lds	r25, 0x0571
    3316:	84 17       	cp	r24, r20
    3318:	95 07       	cpc	r25, r21
    331a:	19 f4       	brne	.+6      	; 0x3322 <serialRead+0x1c>
    331c:	2f ef       	ldi	r18, 0xFF	; 255
    331e:	3f ef       	ldi	r19, 0xFF	; 255
    3320:	0f c0       	rjmp	.+30     	; 0x3340 <serialRead+0x3a>
		return -1;
	} else {
		unsigned char c = rx_buffer[rx_buffer_tail];
    3322:	fa 01       	movw	r30, r20
    3324:	ec 58       	subi	r30, 0x8C	; 140
    3326:	fa 4f       	sbci	r31, 0xFA	; 250
    3328:	20 81       	ld	r18, Z
		rx_buffer_tail = (rx_buffer_tail + 1) % RX_BUFFER_SIZE;
    332a:	ca 01       	movw	r24, r20
    332c:	01 96       	adiw	r24, 0x01	; 1
    332e:	60 e0       	ldi	r22, 0x00	; 0
    3330:	71 e0       	ldi	r23, 0x01	; 1
    3332:	0e 94 a8 20 	call	0x4150	; 0x4150 <__divmodhi4>
    3336:	90 93 73 05 	sts	0x0573, r25
    333a:	80 93 72 05 	sts	0x0572, r24
		return c;
    333e:	30 e0       	ldi	r19, 0x00	; 0
	}
}
    3340:	c9 01       	movw	r24, r18
    3342:	08 95       	ret

00003344 <serialFlush>:
	// don't reverse this or there may be problems if the RX interrupt
	// occurs after reading the value of rx_buffer_head but before writing
	// the value to rx_buffer_tail; the previous value of rx_buffer_head
	// may be written to rx_buffer_tail, making it appear as if the buffer
	// were full, not empty.
	rx_buffer_head = rx_buffer_tail;
    3344:	80 91 72 05 	lds	r24, 0x0572
    3348:	90 91 73 05 	lds	r25, 0x0573
    334c:	90 93 71 05 	sts	0x0571, r25
    3350:	80 93 70 05 	sts	0x0570, r24
}
    3354:	08 95       	ret

00003356 <__vector_25>:

//change for atmega2560
SIGNAL(USART0_RX_vect)
{
    3356:	1f 92       	push	r1
    3358:	0f 92       	push	r0
    335a:	0f b6       	in	r0, 0x3f	; 63
    335c:	0f 92       	push	r0
    335e:	0b b6       	in	r0, 0x3b	; 59
    3360:	0f 92       	push	r0
    3362:	11 24       	eor	r1, r1
    3364:	2f 93       	push	r18
    3366:	3f 93       	push	r19
    3368:	4f 93       	push	r20
    336a:	5f 93       	push	r21
    336c:	6f 93       	push	r22
    336e:	7f 93       	push	r23
    3370:	8f 93       	push	r24
    3372:	9f 93       	push	r25
    3374:	af 93       	push	r26
    3376:	bf 93       	push	r27
    3378:	ef 93       	push	r30
    337a:	ff 93       	push	r31
	unsigned char c = UDR0;
    337c:	40 91 c6 00 	lds	r20, 0x00C6
	int i = (rx_buffer_head + 1) % RX_BUFFER_SIZE;
    3380:	e0 91 70 05 	lds	r30, 0x0570
    3384:	f0 91 71 05 	lds	r31, 0x0571
    3388:	cf 01       	movw	r24, r30
    338a:	01 96       	adiw	r24, 0x01	; 1
    338c:	60 e0       	ldi	r22, 0x00	; 0
    338e:	71 e0       	ldi	r23, 0x01	; 1
    3390:	0e 94 a8 20 	call	0x4150	; 0x4150 <__divmodhi4>
    3394:	9c 01       	movw	r18, r24

	// if we should be storing the received character into the location
	// just before the tail (meaning that the head would advance to the
	// current location of the tail), we're about to overflow the buffer
	// and so we don't write the character or advance the head.
	if (i != rx_buffer_tail) {
    3396:	80 91 72 05 	lds	r24, 0x0572
    339a:	90 91 73 05 	lds	r25, 0x0573
    339e:	28 17       	cp	r18, r24
    33a0:	39 07       	cpc	r19, r25
    33a2:	39 f0       	breq	.+14     	; 0x33b2 <__vector_25+0x5c>
		rx_buffer[rx_buffer_head] = c;
    33a4:	ec 58       	subi	r30, 0x8C	; 140
    33a6:	fa 4f       	sbci	r31, 0xFA	; 250
    33a8:	40 83       	st	Z, r20
		rx_buffer_head = i;
    33aa:	30 93 71 05 	sts	0x0571, r19
    33ae:	20 93 70 05 	sts	0x0570, r18
	}

//	UDR0 = c; // Echo back the received byte back to the computer 

}
    33b2:	ff 91       	pop	r31
    33b4:	ef 91       	pop	r30
    33b6:	bf 91       	pop	r27
    33b8:	af 91       	pop	r26
    33ba:	9f 91       	pop	r25
    33bc:	8f 91       	pop	r24
    33be:	7f 91       	pop	r23
    33c0:	6f 91       	pop	r22
    33c2:	5f 91       	pop	r21
    33c4:	4f 91       	pop	r20
    33c6:	3f 91       	pop	r19
    33c8:	2f 91       	pop	r18
    33ca:	0f 90       	pop	r0
    33cc:	0b be       	out	0x3b, r0	; 59
    33ce:	0f 90       	pop	r0
    33d0:	0f be       	out	0x3f, r0	; 63
    33d2:	0f 90       	pop	r0
    33d4:	1f 90       	pop	r1
    33d6:	18 95       	reti

000033d8 <printByte>:
// {
//  // do nothing, we only support serial printing, not lcd.
// }

void printByte(unsigned char c)
{
    33d8:	98 2f       	mov	r25, r24
	// defaults to 8-bit, no parity, 1 stop bit
}

void serialWrite(unsigned char c)
{
	while (!(UCSR0A & (1 << UDRE0)))
    33da:	80 91 c0 00 	lds	r24, 0x00C0
    33de:	85 ff       	sbrs	r24, 5
    33e0:	fc cf       	rjmp	.-8      	; 0x33da <printByte+0x2>
		;
	UDR0 = c;
    33e2:	90 93 c6 00 	sts	0x00C6, r25
// }

void printByte(unsigned char c)
{
	serialWrite(c);
}
    33e6:	08 95       	ret

000033e8 <printString>:
// {
//  printByte('\n');
// }
// 
void printString(const char *s)
{
    33e8:	fc 01       	movw	r30, r24
    33ea:	07 c0       	rjmp	.+14     	; 0x33fa <printString+0x12>
	// defaults to 8-bit, no parity, 1 stop bit
}

void serialWrite(unsigned char c)
{
	while (!(UCSR0A & (1 << UDRE0)))
    33ec:	80 91 c0 00 	lds	r24, 0x00C0
    33f0:	85 ff       	sbrs	r24, 5
    33f2:	fc cf       	rjmp	.-8      	; 0x33ec <printString+0x4>
// }
// 
void printString(const char *s)
{
	while (*s)
		printByte(*s++);
    33f4:	31 96       	adiw	r30, 0x01	; 1

void serialWrite(unsigned char c)
{
	while (!(UCSR0A & (1 << UDRE0)))
		;
	UDR0 = c;
    33f6:	90 93 c6 00 	sts	0x00C6, r25
//  printByte('\n');
// }
// 
void printString(const char *s)
{
	while (*s)
    33fa:	90 81       	ld	r25, Z
    33fc:	99 23       	and	r25, r25
    33fe:	b1 f7       	brne	.-20     	; 0x33ec <printString+0x4>
		printByte(*s++);
}
    3400:	08 95       	ret

00003402 <printPgmString>:

// Print a string stored in PGM-memory
void printPgmString(const char *s)
{
    3402:	9c 01       	movw	r18, r24
    3404:	06 c0       	rjmp	.+12     	; 0x3412 <printPgmString+0x10>
	// defaults to 8-bit, no parity, 1 stop bit
}

void serialWrite(unsigned char c)
{
	while (!(UCSR0A & (1 << UDRE0)))
    3406:	80 91 c0 00 	lds	r24, 0x00C0
    340a:	85 ff       	sbrs	r24, 5
    340c:	fc cf       	rjmp	.-8      	; 0x3406 <printPgmString+0x4>
		;
	UDR0 = c;
    340e:	90 93 c6 00 	sts	0x00C6, r25
    3412:	f9 01       	movw	r30, r18

// Print a string stored in PGM-memory
void printPgmString(const char *s)
{
  char c;
	while ((c = pgm_read_byte_near(s++)))
    3414:	2f 5f       	subi	r18, 0xFF	; 255
    3416:	3f 4f       	sbci	r19, 0xFF	; 255
    3418:	94 91       	lpm	r25, Z+
    341a:	99 23       	and	r25, r25
    341c:	a1 f7       	brne	.-24     	; 0x3406 <printPgmString+0x4>
		printByte(c);
}
    341e:	08 95       	ret

00003420 <printIntegerInBase>:

void printIntegerInBase(unsigned long n, unsigned long base)
{ 
    3420:	2f 92       	push	r2
    3422:	3f 92       	push	r3
    3424:	4f 92       	push	r4
    3426:	5f 92       	push	r5
    3428:	6f 92       	push	r6
    342a:	7f 92       	push	r7
    342c:	8f 92       	push	r8
    342e:	9f 92       	push	r9
    3430:	af 92       	push	r10
    3432:	bf 92       	push	r11
    3434:	cf 92       	push	r12
    3436:	df 92       	push	r13
    3438:	ef 92       	push	r14
    343a:	ff 92       	push	r15
    343c:	0f 93       	push	r16
    343e:	1f 93       	push	r17
    3440:	df 93       	push	r29
    3442:	cf 93       	push	r28
    3444:	cd b7       	in	r28, 0x3d	; 61
    3446:	de b7       	in	r29, 0x3e	; 62
    3448:	a0 97       	sbiw	r28, 0x20	; 32
    344a:	0f b6       	in	r0, 0x3f	; 63
    344c:	f8 94       	cli
    344e:	de bf       	out	0x3e, r29	; 62
    3450:	0f be       	out	0x3f, r0	; 63
    3452:	cd bf       	out	0x3d, r28	; 61
    3454:	6b 01       	movw	r12, r22
    3456:	7c 01       	movw	r14, r24
    3458:	29 01       	movw	r4, r18
    345a:	3a 01       	movw	r6, r20
	unsigned char buf[8 * sizeof(long)]; // Assumes 8-bit chars. 
	unsigned long i = 0;

	if (n == 0) {
    345c:	61 15       	cp	r22, r1
    345e:	71 05       	cpc	r23, r1
    3460:	81 05       	cpc	r24, r1
    3462:	91 05       	cpc	r25, r1
    3464:	41 f4       	brne	.+16     	; 0x3476 <printIntegerInBase+0x56>
	// defaults to 8-bit, no parity, 1 stop bit
}

void serialWrite(unsigned char c)
{
	while (!(UCSR0A & (1 << UDRE0)))
    3466:	80 91 c0 00 	lds	r24, 0x00C0
    346a:	85 ff       	sbrs	r24, 5
    346c:	fc cf       	rjmp	.-8      	; 0x3466 <printIntegerInBase+0x46>
		;
	UDR0 = c;
    346e:	80 e3       	ldi	r24, 0x30	; 48
    3470:	80 93 c6 00 	sts	0x00C6, r24
    3474:	49 c0       	rjmp	.+146    	; 0x3508 <printIntegerInBase+0xe8>
	unsigned char buf[8 * sizeof(long)]; // Assumes 8-bit chars. 
	unsigned long i = 0;

	if (n == 0) {
		printByte('0');
		return;
    3476:	88 24       	eor	r8, r8
    3478:	99 24       	eor	r9, r9
    347a:	54 01       	movw	r10, r8
	} 

	while (n > 0) {
		buf[i++] = n % base;
    347c:	1e 01       	movw	r2, r28
    347e:	08 94       	sec
    3480:	21 1c       	adc	r2, r1
    3482:	31 1c       	adc	r3, r1
    3484:	81 01       	movw	r16, r2
    3486:	08 0d       	add	r16, r8
    3488:	19 1d       	adc	r17, r9
    348a:	c7 01       	movw	r24, r14
    348c:	b6 01       	movw	r22, r12
    348e:	a3 01       	movw	r20, r6
    3490:	92 01       	movw	r18, r4
    3492:	0e 94 bb 20 	call	0x4176	; 0x4176 <__udivmodsi4>
    3496:	f8 01       	movw	r30, r16
    3498:	60 83       	st	Z, r22
    349a:	08 94       	sec
    349c:	81 1c       	adc	r8, r1
    349e:	91 1c       	adc	r9, r1
    34a0:	a1 1c       	adc	r10, r1
    34a2:	b1 1c       	adc	r11, r1
		n /= base;
    34a4:	c7 01       	movw	r24, r14
    34a6:	b6 01       	movw	r22, r12
    34a8:	a3 01       	movw	r20, r6
    34aa:	92 01       	movw	r18, r4
    34ac:	0e 94 bb 20 	call	0x4176	; 0x4176 <__udivmodsi4>
    34b0:	c9 01       	movw	r24, r18
    34b2:	da 01       	movw	r26, r20
    34b4:	6c 01       	movw	r12, r24
    34b6:	7d 01       	movw	r14, r26
	if (n == 0) {
		printByte('0');
		return;
	} 

	while (n > 0) {
    34b8:	c1 14       	cp	r12, r1
    34ba:	d1 04       	cpc	r13, r1
    34bc:	e1 04       	cpc	r14, r1
    34be:	f1 04       	cpc	r15, r1
    34c0:	09 f7       	brne	.-62     	; 0x3484 <printIntegerInBase+0x64>
    34c2:	91 01       	movw	r18, r2
    34c4:	28 0d       	add	r18, r8
    34c6:	39 1d       	adc	r19, r9
		buf[i++] = n % base;
		n /= base;
	}

	for (; i > 0; i--)
    34c8:	be 01       	movw	r22, r28
    34ca:	6f 5f       	subi	r22, 0xFF	; 255
    34cc:	7f 4f       	sbci	r23, 0xFF	; 255
		printByte(buf[i - 1] < 10 ?
    34ce:	d5 01       	movw	r26, r10
    34d0:	c4 01       	movw	r24, r8
    34d2:	01 97       	sbiw	r24, 0x01	; 1
    34d4:	a1 09       	sbc	r26, r1
    34d6:	b1 09       	sbc	r27, r1
    34d8:	ac 01       	movw	r20, r24
    34da:	48 19       	sub	r20, r8
    34dc:	59 09       	sbc	r21, r9
    34de:	11 c0       	rjmp	.+34     	; 0x3502 <printIntegerInBase+0xe2>
    34e0:	fa 01       	movw	r30, r20
    34e2:	e2 0f       	add	r30, r18
    34e4:	f3 1f       	adc	r31, r19
    34e6:	e0 81       	ld	r30, Z
    34e8:	ea 30       	cpi	r30, 0x0A	; 10
    34ea:	10 f4       	brcc	.+4      	; 0x34f0 <printIntegerInBase+0xd0>
    34ec:	e0 5d       	subi	r30, 0xD0	; 208
    34ee:	01 c0       	rjmp	.+2      	; 0x34f2 <printIntegerInBase+0xd2>
    34f0:	e9 5c       	subi	r30, 0xC9	; 201
	// defaults to 8-bit, no parity, 1 stop bit
}

void serialWrite(unsigned char c)
{
	while (!(UCSR0A & (1 << UDRE0)))
    34f2:	80 91 c0 00 	lds	r24, 0x00C0
    34f6:	85 ff       	sbrs	r24, 5
    34f8:	fc cf       	rjmp	.-8      	; 0x34f2 <printIntegerInBase+0xd2>
		;
	UDR0 = c;
    34fa:	e0 93 c6 00 	sts	0x00C6, r30
    34fe:	21 50       	subi	r18, 0x01	; 1
    3500:	30 40       	sbci	r19, 0x00	; 0
	while (n > 0) {
		buf[i++] = n % base;
		n /= base;
	}

	for (; i > 0; i--)
    3502:	62 17       	cp	r22, r18
    3504:	73 07       	cpc	r23, r19
    3506:	61 f7       	brne	.-40     	; 0x34e0 <printIntegerInBase+0xc0>
		printByte(buf[i - 1] < 10 ?
			'0' + buf[i - 1] :
			'A' + buf[i - 1] - 10);
}
    3508:	a0 96       	adiw	r28, 0x20	; 32
    350a:	0f b6       	in	r0, 0x3f	; 63
    350c:	f8 94       	cli
    350e:	de bf       	out	0x3e, r29	; 62
    3510:	0f be       	out	0x3f, r0	; 63
    3512:	cd bf       	out	0x3d, r28	; 61
    3514:	cf 91       	pop	r28
    3516:	df 91       	pop	r29
    3518:	1f 91       	pop	r17
    351a:	0f 91       	pop	r16
    351c:	ff 90       	pop	r15
    351e:	ef 90       	pop	r14
    3520:	df 90       	pop	r13
    3522:	cf 90       	pop	r12
    3524:	bf 90       	pop	r11
    3526:	af 90       	pop	r10
    3528:	9f 90       	pop	r9
    352a:	8f 90       	pop	r8
    352c:	7f 90       	pop	r7
    352e:	6f 90       	pop	r6
    3530:	5f 90       	pop	r5
    3532:	4f 90       	pop	r4
    3534:	3f 90       	pop	r3
    3536:	2f 90       	pop	r2
    3538:	08 95       	ret

0000353a <printInteger>:

void printInteger(long n)
{
    353a:	9b 01       	movw	r18, r22
    353c:	ac 01       	movw	r20, r24
	if (n < 0) {
    353e:	97 ff       	sbrs	r25, 7
    3540:	0e c0       	rjmp	.+28     	; 0x355e <printInteger+0x24>
	// defaults to 8-bit, no parity, 1 stop bit
}

void serialWrite(unsigned char c)
{
	while (!(UCSR0A & (1 << UDRE0)))
    3542:	80 91 c0 00 	lds	r24, 0x00C0
    3546:	85 ff       	sbrs	r24, 5
    3548:	fc cf       	rjmp	.-8      	; 0x3542 <printInteger+0x8>
		;
	UDR0 = c;
    354a:	8d e2       	ldi	r24, 0x2D	; 45
    354c:	80 93 c6 00 	sts	0x00C6, r24

void printInteger(long n)
{
	if (n < 0) {
		printByte('-');
		n = -n;
    3550:	50 95       	com	r21
    3552:	40 95       	com	r20
    3554:	30 95       	com	r19
    3556:	21 95       	neg	r18
    3558:	3f 4f       	sbci	r19, 0xFF	; 255
    355a:	4f 4f       	sbci	r20, 0xFF	; 255
    355c:	5f 4f       	sbci	r21, 0xFF	; 255
	}

	printIntegerInBase(n, 10);
    355e:	ca 01       	movw	r24, r20
    3560:	b9 01       	movw	r22, r18
    3562:	2a e0       	ldi	r18, 0x0A	; 10
    3564:	30 e0       	ldi	r19, 0x00	; 0
    3566:	40 e0       	ldi	r20, 0x00	; 0
    3568:	50 e0       	ldi	r21, 0x00	; 0
    356a:	0e 94 10 1a 	call	0x3420	; 0x3420 <printIntegerInBase>
}
    356e:	08 95       	ret

00003570 <printBinary>:
//  printIntegerInBase(n, 8);
// }
// 
void printBinary(unsigned long n)
{
 printIntegerInBase(n, 2);
    3570:	22 e0       	ldi	r18, 0x02	; 2
    3572:	30 e0       	ldi	r19, 0x00	; 0
    3574:	40 e0       	ldi	r20, 0x00	; 0
    3576:	50 e0       	ldi	r21, 0x00	; 0
    3578:	0e 94 10 1a 	call	0x3420	; 0x3420 <printIntegerInBase>
  }
    357c:	08 95       	ret

0000357e <printFloat>:

	printIntegerInBase(n, 10);
}

void printFloat(double n)
{
    357e:	ef 92       	push	r14
    3580:	ff 92       	push	r15
    3582:	0f 93       	push	r16
    3584:	1f 93       	push	r17
    3586:	df 93       	push	r29
    3588:	cf 93       	push	r28
    358a:	00 d0       	rcall	.+0      	; 0x358c <printFloat+0xe>
    358c:	0f 92       	push	r0
    358e:	cd b7       	in	r28, 0x3d	; 61
    3590:	de b7       	in	r29, 0x3e	; 62
  double integer_part, fractional_part;
  fractional_part = modf(n, &integer_part);
    3592:	ae 01       	movw	r20, r28
    3594:	4f 5f       	subi	r20, 0xFF	; 255
    3596:	5f 4f       	sbci	r21, 0xFF	; 255
    3598:	0e 94 80 1f 	call	0x3f00	; 0x3f00 <modf>
    359c:	7b 01       	movw	r14, r22
    359e:	8c 01       	movw	r16, r24
  printInteger(integer_part);
    35a0:	69 81       	ldd	r22, Y+1	; 0x01
    35a2:	7a 81       	ldd	r23, Y+2	; 0x02
    35a4:	8b 81       	ldd	r24, Y+3	; 0x03
    35a6:	9c 81       	ldd	r25, Y+4	; 0x04
    35a8:	0e 94 ea 1d 	call	0x3bd4	; 0x3bd4 <__fixsfsi>
    35ac:	0e 94 9d 1a 	call	0x353a	; 0x353a <printInteger>
	// defaults to 8-bit, no parity, 1 stop bit
}

void serialWrite(unsigned char c)
{
	while (!(UCSR0A & (1 << UDRE0)))
    35b0:	80 91 c0 00 	lds	r24, 0x00C0
    35b4:	85 ff       	sbrs	r24, 5
    35b6:	fc cf       	rjmp	.-8      	; 0x35b0 <printFloat+0x32>
		;
	UDR0 = c;
    35b8:	8e e2       	ldi	r24, 0x2E	; 46
    35ba:	80 93 c6 00 	sts	0x00C6, r24
{
  double integer_part, fractional_part;
  fractional_part = modf(n, &integer_part);
  printInteger(integer_part);
  printByte('.');
  printInteger(labs(round(fractional_part*1000)));
    35be:	c8 01       	movw	r24, r16
    35c0:	b7 01       	movw	r22, r14
    35c2:	20 e0       	ldi	r18, 0x00	; 0
    35c4:	30 e0       	ldi	r19, 0x00	; 0
    35c6:	4a e7       	ldi	r20, 0x7A	; 122
    35c8:	54 e4       	ldi	r21, 0x44	; 68
    35ca:	0e 94 b3 1f 	call	0x3f66	; 0x3f66 <__mulsf3>
    35ce:	0e 94 16 20 	call	0x402c	; 0x402c <round>
    35d2:	0e 94 ea 1d 	call	0x3bd4	; 0x3bd4 <__fixsfsi>
    35d6:	97 ff       	sbrs	r25, 7
    35d8:	07 c0       	rjmp	.+14     	; 0x35e8 <printFloat+0x6a>
    35da:	90 95       	com	r25
    35dc:	80 95       	com	r24
    35de:	70 95       	com	r23
    35e0:	61 95       	neg	r22
    35e2:	7f 4f       	sbci	r23, 0xFF	; 255
    35e4:	8f 4f       	sbci	r24, 0xFF	; 255
    35e6:	9f 4f       	sbci	r25, 0xFF	; 255
    35e8:	0e 94 9d 1a 	call	0x353a	; 0x353a <printInteger>
}
    35ec:	0f 90       	pop	r0
    35ee:	0f 90       	pop	r0
    35f0:	0f 90       	pop	r0
    35f2:	0f 90       	pop	r0
    35f4:	cf 91       	pop	r28
    35f6:	df 91       	pop	r29
    35f8:	1f 91       	pop	r17
    35fa:	0f 91       	pop	r16
    35fc:	ff 90       	pop	r15
    35fe:	ef 90       	pop	r14
    3600:	08 95       	ret

00003602 <atc_init>:
#include "settings.h"

void atc_init()
{
	// set the toolchangers as outputs
	STEPPING_DDR |= _BV( SPARE1 ); // spare 1 is on a different port
    3602:	87 9a       	sbi	0x10, 7	; 16

	SPARE_DDR |= _BV( SPARE2 );
    3604:	e7 e0       	ldi	r30, 0x07	; 7
    3606:	f1 e0       	ldi	r31, 0x01	; 1
    3608:	80 81       	ld	r24, Z
    360a:	81 60       	ori	r24, 0x01	; 1
    360c:	80 83       	st	Z, r24
	SPARE_DDR |= _BV( SPARE3 );
    360e:	80 81       	ld	r24, Z
    3610:	82 60       	ori	r24, 0x02	; 2
    3612:	80 83       	st	Z, r24
	SPARE_DDR |= _BV( SPARE4 );
    3614:	80 81       	ld	r24, Z
    3616:	84 60       	ori	r24, 0x04	; 4
    3618:	80 83       	st	Z, r24
	SPARE_DDR |= _BV( SPARE5 );
    361a:	80 81       	ld	r24, Z
    361c:	88 60       	ori	r24, 0x08	; 8
    361e:	80 83       	st	Z, r24
	SPARE_DDR |= _BV( SPARE6 );
    3620:	80 81       	ld	r24, Z
    3622:	80 64       	ori	r24, 0x40	; 64
    3624:	80 83       	st	Z, r24

// initialise PORT as well

}
    3626:	08 95       	ret

00003628 <has_tool>:
}

unsigned char has_tool( void )
{
	return 0;
}
    3628:	80 e0       	ldi	r24, 0x00	; 0
    362a:	08 95       	ret

0000362c <atc_change>:



// changes tool , 0 put back, 1-6 picks up
void atc_change(int tool)
{
    362c:	cf 93       	push	r28
    362e:	df 93       	push	r29
    3630:	ec 01       	movw	r28, r24
#ifdef VERBOSE_DEBUG
	printPgmString(PSTR("atc change\n\r"));
#endif

	set_busy( TRUE ) ;
    3632:	81 e0       	ldi	r24, 0x01	; 1
    3634:	90 e0       	ldi	r25, 0x00	; 0
    3636:	0e 94 47 14 	call	0x288e	; 0x288e <set_busy>

	// make sure head is up before moving
	if( is_head_down() ) {
    363a:	0e 94 ed 1b 	call	0x37da	; 0x37da <is_head_down>
    363e:	89 2b       	or	r24, r25
    3640:	21 f0       	breq	.+8      	; 0x364a <atc_change+0x1e>
#ifdef VERBOSE_DEBUG
		printPgmString(PSTR("TOOL headup\n\r"));
#endif
		head_down( FALSE ) ;
    3642:	80 e0       	ldi	r24, 0x00	; 0
    3644:	90 e0       	ldi	r25, 0x00	; 0
    3646:	0e 94 f5 1b 	call	0x37ea	; 0x37ea <head_down>
	}

	// turn off toolchanger
	if( tool == 0 ) {
    364a:	20 97       	sbiw	r28, 0x00	; 0
    364c:	c9 f4       	brne	.+50     	; 0x3680 <atc_change+0x54>

#ifdef VERBOSE_DEBUG
		printPgmString(PSTR("ATCs off\n\r"));
#endif
		// set air off
		SET_BIT(SPARE_PORT, _BV( SPARE2 ) );
    364e:	80 91 08 01 	lds	r24, 0x0108
    3652:	81 60       	ori	r24, 0x01	; 1
    3654:	80 93 08 01 	sts	0x0108, r24

		//	 clear state
		SET_BIT(SPARE_PORT, _BV( SPARE3 ) );
    3658:	80 91 08 01 	lds	r24, 0x0108
    365c:	82 60       	ori	r24, 0x02	; 2
    365e:	80 93 08 01 	sts	0x0108, r24
		SET_BIT(SPARE_PORT, _BV( SPARE4 ) );
    3662:	80 91 08 01 	lds	r24, 0x0108
    3666:	84 60       	ori	r24, 0x04	; 4
    3668:	80 93 08 01 	sts	0x0108, r24
		SET_BIT(SPARE_PORT, _BV( SPARE5 ) );
    366c:	80 91 08 01 	lds	r24, 0x0108
    3670:	88 60       	ori	r24, 0x08	; 8
    3672:	80 93 08 01 	sts	0x0108, r24

		// head can move again
		set_busy( FALSE ) ;
    3676:	80 e0       	ldi	r24, 0x00	; 0
    3678:	90 e0       	ldi	r25, 0x00	; 0
    367a:	0e 94 47 14 	call	0x288e	; 0x288e <set_busy>
    367e:	70 c0       	rjmp	.+224    	; 0x3760 <atc_change+0x134>

		return;
	}
  
	// air off and down
	SET_BIT(SPARE_PORT, _BV( SPARE2 ) );
    3680:	80 91 08 01 	lds	r24, 0x0108
    3684:	81 60       	ori	r24, 0x01	; 1
    3686:	80 93 08 01 	sts	0x0108, r24
 010 = tool 3
 011 = tool 4 
 100 = tool 5
 101 = tool 6
 */
 	switch( tool ) {
    368a:	c3 30       	cpi	r28, 0x03	; 3
    368c:	d1 05       	cpc	r29, r1
    368e:	09 f1       	breq	.+66     	; 0x36d2 <atc_change+0xa6>
    3690:	c4 30       	cpi	r28, 0x04	; 4
    3692:	d1 05       	cpc	r29, r1
    3694:	3c f4       	brge	.+14     	; 0x36a4 <atc_change+0x78>
    3696:	c1 30       	cpi	r28, 0x01	; 1
    3698:	d1 05       	cpc	r29, r1
    369a:	71 f0       	breq	.+28     	; 0x36b8 <atc_change+0x8c>
    369c:	22 97       	sbiw	r28, 0x02	; 2
    369e:	09 f0       	breq	.+2      	; 0x36a2 <atc_change+0x76>
    36a0:	51 c0       	rjmp	.+162    	; 0x3744 <atc_change+0x118>
    36a2:	13 c0       	rjmp	.+38     	; 0x36ca <atc_change+0x9e>
    36a4:	c5 30       	cpi	r28, 0x05	; 5
    36a6:	d1 05       	cpc	r29, r1
    36a8:	59 f1       	breq	.+86     	; 0x3700 <atc_change+0xd4>
    36aa:	c5 30       	cpi	r28, 0x05	; 5
    36ac:	d1 05       	cpc	r29, r1
    36ae:	fc f0       	brlt	.+62     	; 0x36ee <atc_change+0xc2>
    36b0:	26 97       	sbiw	r28, 0x06	; 6
    36b2:	09 f0       	breq	.+2      	; 0x36b6 <atc_change+0x8a>
    36b4:	47 c0       	rjmp	.+142    	; 0x3744 <atc_change+0x118>
    36b6:	32 c0       	rjmp	.+100    	; 0x371c <atc_change+0xf0>
  	
		// select tool M13
		case 1:
			CLEAR_BIT(SPARE_PORT, _BV( SPARE3 ) );
    36b8:	80 91 08 01 	lds	r24, 0x0108
    36bc:	8d 7f       	andi	r24, 0xFD	; 253
    36be:	80 93 08 01 	sts	0x0108, r24
			CLEAR_BIT(SPARE_PORT, _BV( SPARE4 ) );
    36c2:	80 91 08 01 	lds	r24, 0x0108
    36c6:	8b 7f       	andi	r24, 0xFB	; 251
    36c8:	0c c0       	rjmp	.+24     	; 0x36e2 <atc_change+0xb6>
			CLEAR_BIT(SPARE_PORT, _BV( SPARE2 ) );

			break;
		case 2: // M14
		
			CLEAR_BIT(SPARE_PORT, _BV( SPARE3 ) );
    36ca:	80 91 08 01 	lds	r24, 0x0108
    36ce:	8d 7f       	andi	r24, 0xFD	; 253
    36d0:	28 c0       	rjmp	.+80     	; 0x3722 <atc_change+0xf6>


			break;
		case 3: // M15

			CLEAR_BIT(SPARE_PORT, _BV( SPARE3 ) );
    36d2:	80 91 08 01 	lds	r24, 0x0108
    36d6:	8d 7f       	andi	r24, 0xFD	; 253
    36d8:	80 93 08 01 	sts	0x0108, r24
			SET_BIT(SPARE_PORT, _BV( SPARE4 ) );
    36dc:	80 91 08 01 	lds	r24, 0x0108
    36e0:	84 60       	ori	r24, 0x04	; 4
    36e2:	80 93 08 01 	sts	0x0108, r24
			CLEAR_BIT  (SPARE_PORT, _BV( SPARE5 ) );
    36e6:	80 91 08 01 	lds	r24, 0x0108
    36ea:	87 7f       	andi	r24, 0xF7	; 247
    36ec:	24 c0       	rjmp	.+72     	; 0x3736 <atc_change+0x10a>

			break;
		case 4: // M16

		
			CLEAR_BIT(SPARE_PORT, _BV( SPARE3 ) );
    36ee:	80 91 08 01 	lds	r24, 0x0108
    36f2:	8d 7f       	andi	r24, 0xFD	; 253
    36f4:	80 93 08 01 	sts	0x0108, r24
			SET_BIT(SPARE_PORT, _BV( SPARE4 ) );
    36f8:	80 91 08 01 	lds	r24, 0x0108
    36fc:	84 60       	ori	r24, 0x04	; 4
    36fe:	16 c0       	rjmp	.+44     	; 0x372c <atc_change+0x100>
			//on
			CLEAR_BIT(SPARE_PORT, _BV( SPARE2 ) );
			break;
		case 5: // M17
		
			SET_BIT   (SPARE_PORT, _BV( SPARE3 ) );
    3700:	80 91 08 01 	lds	r24, 0x0108
    3704:	82 60       	ori	r24, 0x02	; 2
    3706:	80 93 08 01 	sts	0x0108, r24
			CLEAR_BIT (SPARE_PORT, _BV( SPARE4 ) );
    370a:	80 91 08 01 	lds	r24, 0x0108
    370e:	8b 7f       	andi	r24, 0xFB	; 251
    3710:	80 93 08 01 	sts	0x0108, r24
			CLEAR_BIT (SPARE_PORT, _BV( SPARE5 ) );
    3714:	80 91 08 01 	lds	r24, 0x0108
    3718:	87 7f       	andi	r24, 0xF7	; 247
    371a:	12 c0       	rjmp	.+36     	; 0x3740 <atc_change+0x114>
		
			break;
		case 6: // M18
		
			SET_BIT  (SPARE_PORT, _BV( SPARE3 ) );
    371c:	80 91 08 01 	lds	r24, 0x0108
    3720:	82 60       	ori	r24, 0x02	; 2
    3722:	80 93 08 01 	sts	0x0108, r24
			CLEAR_BIT(SPARE_PORT, _BV( SPARE4 ) );
    3726:	80 91 08 01 	lds	r24, 0x0108
    372a:	8b 7f       	andi	r24, 0xFB	; 251
    372c:	80 93 08 01 	sts	0x0108, r24
			SET_BIT  (SPARE_PORT, _BV( SPARE5 ) );
    3730:	80 91 08 01 	lds	r24, 0x0108
    3734:	88 60       	ori	r24, 0x08	; 8
    3736:	80 93 08 01 	sts	0x0108, r24
		
			//on
			CLEAR_BIT(SPARE_PORT, _BV( SPARE2 ) );
    373a:	80 91 08 01 	lds	r24, 0x0108
    373e:	8e 7f       	andi	r24, 0xFE	; 254
    3740:	80 93 08 01 	sts	0x0108, r24
		}


	// switch ATC on

	CLEAR_BIT(SPARE_PORT, _BV( SPARE2 ) );
    3744:	80 91 08 01 	lds	r24, 0x0108
    3748:	8e 7f       	andi	r24, 0xFE	; 254
    374a:	80 93 08 01 	sts	0x0108, r24
    374e:	88 ee       	ldi	r24, 0xE8	; 232
    3750:	93 e0       	ldi	r25, 0x03	; 3
    3752:	20 e9       	ldi	r18, 0x90	; 144
    3754:	31 e0       	ldi	r19, 0x01	; 1
    3756:	f9 01       	movw	r30, r18
    3758:	31 97       	sbiw	r30, 0x01	; 1
    375a:	f1 f7       	brne	.-4      	; 0x3758 <atc_change+0x12c>
		{
			// wait 1/10 ms
			_delay_loop_2(((F_CPU) / 4e3) / 10);
			__ticks --;
    375c:	01 97       	sbiw	r24, 0x01	; 1
		__ticks = 1;
	else if (__tmp > 65535)
	{
		//	__ticks = requested delay in 1/10 ms
		__ticks = (uint16_t) (__ms * 10.0);
		while(__ticks)
    375e:	d9 f7       	brne	.-10     	; 0x3756 <atc_change+0x12a>
	_delay_ms( 100 );


// don't turn off busy flag

}
    3760:	df 91       	pop	r29
    3762:	cf 91       	pop	r28
    3764:	08 95       	ret

00003766 <goto_vacpad>:

}

void goto_vacpad( void ) 
{
	if( is_head_down() ) {
    3766:	0e 94 ed 1b 	call	0x37da	; 0x37da <is_head_down>
    376a:	89 2b       	or	r24, r25
    376c:	21 f0       	breq	.+8      	; 0x3776 <goto_vacpad+0x10>
		head_down( FALSE) ;
    376e:	80 e0       	ldi	r24, 0x00	; 0
    3770:	90 e0       	ldi	r25, 0x00	; 0
    3772:	0e 94 f5 1b 	call	0x37ea	; 0x37ea <head_down>
    3776:	08 95       	ret

00003778 <check_for_tool>:

// check to see if the head has a tool in it
unsigned char check_for_tool( void ) 
{	
	//move head up
	if( is_head_down() ) {
    3778:	0e 94 ed 1b 	call	0x37da	; 0x37da <is_head_down>
    377c:	89 2b       	or	r24, r25
    377e:	21 f0       	breq	.+8      	; 0x3788 <check_for_tool+0x10>
		head_down( FALSE) ;
    3780:	80 e0       	ldi	r24, 0x00	; 0
    3782:	90 e0       	ldi	r25, 0x00	; 0
    3784:	0e 94 f5 1b 	call	0x37ea	; 0x37ea <head_down>
	}

	goto_vacpad();
    3788:	0e 94 b3 1b 	call	0x3766	; 0x3766 <goto_vacpad>
	
	head_down(TRUE);
    378c:	81 e0       	ldi	r24, 0x01	; 1
    378e:	90 e0       	ldi	r25, 0x00	; 0
    3790:	0e 94 f5 1b 	call	0x37ea	; 0x37ea <head_down>
	
	vacuum(TRUE);
    3794:	81 e0       	ldi	r24, 0x01	; 1
    3796:	90 e0       	ldi	r25, 0x00	; 0
    3798:	0e 94 8e 1c 	call	0x391c	; 0x391c <vacuum>

	if( vacuum_state() == TRUE )  {
    379c:	0e 94 a3 1c 	call	0x3946	; 0x3946 <vacuum_state>
    37a0:	01 97       	sbiw	r24, 0x01	; 1
    37a2:	31 f4       	brne	.+12     	; 0x37b0 <check_for_tool+0x38>
		head_down( FALSE) ;
    37a4:	80 e0       	ldi	r24, 0x00	; 0
    37a6:	90 e0       	ldi	r25, 0x00	; 0
    37a8:	0e 94 f5 1b 	call	0x37ea	; 0x37ea <head_down>
    37ac:	81 e0       	ldi	r24, 0x01	; 1
    37ae:	08 95       	ret
		return TRUE;
	} else {
		head_down( FALSE) ;
    37b0:	80 e0       	ldi	r24, 0x00	; 0
    37b2:	90 e0       	ldi	r25, 0x00	; 0
    37b4:	0e 94 f5 1b 	call	0x37ea	; 0x37ea <head_down>
    37b8:	80 e0       	ldi	r24, 0x00	; 0
		return FALSE;
	}
}
    37ba:	08 95       	ret

000037bc <head_init>:


void head_init()
{
// set the head as an output
	HEAD_DDR |= _BV( HEAD );
    37bc:	ea e0       	ldi	r30, 0x0A	; 10
    37be:	f1 e0       	ldi	r31, 0x01	; 1
    37c0:	80 81       	ld	r24, Z
    37c2:	80 62       	ori	r24, 0x20	; 32
    37c4:	80 83       	st	Z, r24
	HEAD_PORT |= _BV( HEAD );
    37c6:	eb e0       	ldi	r30, 0x0B	; 11
    37c8:	f1 e0       	ldi	r31, 0x01	; 1
    37ca:	80 81       	ld	r24, Z
    37cc:	80 62       	ori	r24, 0x20	; 32
    37ce:	80 83       	st	Z, r24

// setup head sensor
	HEADDT_DDR  &= ~(_BV( HEAD_DOWN_TEST ));
    37d0:	38 98       	cbi	0x07, 0	; 7
	HEADDT_PORT |= (_BV( HEAD_DOWN_TEST ));
    37d2:	40 9a       	sbi	0x08, 0	; 8

// setup 90o sensor
	HEADDT_DDR  &= ~(_BV( D90 ));
    37d4:	39 98       	cbi	0x07, 1	; 7
	HEADDT_PORT |= (_BV( D90 ));
    37d6:	41 9a       	sbi	0x08, 1	; 8
}
    37d8:	08 95       	ret

000037da <is_head_down>:

unsigned char is_head_down( void )
{
	unsigned char state ;

	state  = bit_is_set( HEADDT_PIN, HEAD_DOWN_TEST )?1:0;
    37da:	86 b1       	in	r24, 0x06	; 6

	return state;
}
    37dc:	81 70       	andi	r24, 0x01	; 1
    37de:	08 95       	ret

000037e0 <is_rotated>:

unsigned char is_rotated( void )
{
	unsigned char state ;

	state  = bit_is_set( HEADDT_PIN, D90 )?0:1;
    37e0:	86 b1       	in	r24, 0x06	; 6
    37e2:	86 95       	lsr	r24
    37e4:	80 95       	com	r24

	return state;
}
    37e6:	81 70       	andi	r24, 0x01	; 1
    37e8:	08 95       	ret

000037ea <head_down>:
	HEADDT_PORT |= (_BV( D90 ));
}

// todo: don't allow head down while not homed?
void head_down(int state)
{
    37ea:	cf 93       	push	r28
    37ec:	df 93       	push	r29
    37ee:	ec 01       	movw	r28, r24
#ifdef VERBOSE_DEBUG
	printPgmString(PSTR("dbg: head_down\n\r"));
#endif

	set_busy( TRUE );
    37f0:	81 e0       	ldi	r24, 0x01	; 1
    37f2:	90 e0       	ldi	r25, 0x00	; 0
    37f4:	0e 94 47 14 	call	0x288e	; 0x288e <set_busy>

// head down mode
  if( state == 0 ) {
    37f8:	20 97       	sbiw	r28, 0x00	; 0
    37fa:	21 f4       	brne	.+8      	; 0x3804 <head_down+0x1a>

	HEAD_PORT |= _BV( HEAD );
    37fc:	80 91 0b 01 	lds	r24, 0x010B
    3800:	80 62       	ori	r24, 0x20	; 32
    3802:	03 c0       	rjmp	.+6      	; 0x380a <head_down+0x20>
	
	// wait til head up.

  } else {

	HEAD_PORT &= ~(_BV( HEAD ));
    3804:	80 91 0b 01 	lds	r24, 0x010B
    3808:	8f 7d       	andi	r24, 0xDF	; 223
    380a:	80 93 0b 01 	sts	0x010B, r24
    380e:	80 ed       	ldi	r24, 0xD0	; 208
    3810:	97 e0       	ldi	r25, 0x07	; 7
    3812:	20 e9       	ldi	r18, 0x90	; 144
    3814:	31 e0       	ldi	r19, 0x01	; 1
    3816:	f9 01       	movw	r30, r18
    3818:	31 97       	sbiw	r30, 0x01	; 1
    381a:	f1 f7       	brne	.-4      	; 0x3818 <head_down+0x2e>
		{
			// wait 1/10 ms
			_delay_loop_2(((F_CPU) / 4e3) / 10);
			__ticks --;
    381c:	01 97       	sbiw	r24, 0x01	; 1
		__ticks = 1;
	else if (__tmp > 65535)
	{
		//	__ticks = requested delay in 1/10 ms
		__ticks = (uint16_t) (__ms * 10.0);
		while(__ticks)
    381e:	d9 f7       	brne	.-10     	; 0x3816 <head_down+0x2c>

unsigned char is_head_down( void )
{
	unsigned char state ;

	state  = bit_is_set( HEADDT_PIN, HEAD_DOWN_TEST )?1:0;
    3820:	86 b1       	in	r24, 0x06	; 6
  }

	//	 length of a delay for the head to move up and down
  _delay_ms( HEAD_SETTLE_TIME ) ;

  if(is_head_down() != state ) {
    3822:	81 70       	andi	r24, 0x01	; 1
    3824:	90 e0       	ldi	r25, 0x00	; 0
    3826:	8c 17       	cp	r24, r28
    3828:	9d 07       	cpc	r25, r29
    382a:	21 f0       	breq	.+8      	; 0x3834 <head_down+0x4a>

	  printPgmString(PSTR("Head down error\n\r"));
    382c:	80 ed       	ldi	r24, 0xD0	; 208
    382e:	94 e0       	ldi	r25, 0x04	; 4
    3830:	0e 94 01 1a 	call	0x3402	; 0x3402 <printPgmString>
  }

 set_busy( FALSE );
    3834:	80 e0       	ldi	r24, 0x00	; 0
    3836:	90 e0       	ldi	r25, 0x00	; 0
    3838:	0e 94 47 14 	call	0x288e	; 0x288e <set_busy>

}
    383c:	df 91       	pop	r29
    383e:	cf 91       	pop	r28
    3840:	08 95       	ret

00003842 <panel_init>:
// Setup pin interrupts
void panel_init()
{
// set the panel as inputs
// home, morg switch
	DDRB  &= ~(_BV( PANEL_HOME ));
    3842:	25 98       	cbi	0x04, 5	; 4
	PORTB |=   _BV( PANEL_HOME );
    3844:	2d 9a       	sbi	0x05, 5	; 5

// head down switch
	DDRC  &= ~(_BV( PANEL_HEAD ));
    3846:	3c 98       	cbi	0x07, 4	; 7
	PORTC |=   _BV( PANEL_HEAD );
    3848:	44 9a       	sbi	0x08, 4	; 8

// go forward switch
	DDRE  &= ~(_BV( PANEL_FORWARD ));
    384a:	69 98       	cbi	0x0d, 1	; 13
	PORTE |=   _BV( PANEL_FORWARD );
    384c:	71 9a       	sbi	0x0e, 1	; 14

	DDRG  &= ~(_BV( PANEL_RIGHT ));
    384e:	9d 98       	cbi	0x13, 5	; 19
	PORTG |=   _BV( PANEL_RIGHT );
    3850:	a5 9a       	sbi	0x14, 5	; 20

// fast move switch
	DDRJ  &= ~(_BV( PANEL_FAST ));
    3852:	a4 e0       	ldi	r26, 0x04	; 4
    3854:	b1 e0       	ldi	r27, 0x01	; 1
    3856:	8c 91       	ld	r24, X
    3858:	8e 7f       	andi	r24, 0xFE	; 254
    385a:	8c 93       	st	X, r24
	PORTJ |=   _BV( PANEL_FAST );
    385c:	e5 e0       	ldi	r30, 0x05	; 5
    385e:	f1 e0       	ldi	r31, 0x01	; 1
    3860:	80 81       	ld	r24, Z
    3862:	81 60       	ori	r24, 0x01	; 1
    3864:	80 83       	st	Z, r24

	DDRJ  &= ~(_BV( PANEL_BACK ));
    3866:	8c 91       	ld	r24, X
    3868:	8f 7e       	andi	r24, 0xEF	; 239
    386a:	8c 93       	st	X, r24
	PORTJ |=   _BV( PANEL_BACK );
    386c:	80 81       	ld	r24, Z
    386e:	80 61       	ori	r24, 0x10	; 16
    3870:	80 83       	st	Z, r24

// switch on vacuum
	DDRH  &= ~(_BV( PANEL_VAC ));
    3872:	a1 e0       	ldi	r26, 0x01	; 1
    3874:	b1 e0       	ldi	r27, 0x01	; 1
    3876:	8c 91       	ld	r24, X
    3878:	8e 7f       	andi	r24, 0xFE	; 254
    387a:	8c 93       	st	X, r24
	PORTH |=   _BV( PANEL_VAC );
    387c:	e2 e0       	ldi	r30, 0x02	; 2
    387e:	f1 e0       	ldi	r31, 0x01	; 1
    3880:	80 81       	ld	r24, Z
    3882:	81 60       	ori	r24, 0x01	; 1
    3884:	80 83       	st	Z, r24

// teach mode
	DDRH  &= ~(_BV( PANEL_TEACH ));
    3886:	8c 91       	ld	r24, X
    3888:	8d 7f       	andi	r24, 0xFD	; 253
    388a:	8c 93       	st	X, r24
	PORTH |=   _BV( PANEL_TEACH );
    388c:	80 81       	ld	r24, Z
    388e:	82 60       	ori	r24, 0x02	; 2
    3890:	80 83       	st	Z, r24

}
    3892:	08 95       	ret

00003894 <is_pleft>:

unsigned char is_pleft( void )
{
	unsigned char state ;

	state  = bit_is_set( PINE, PANEL_LEFT )?0:1;
    3894:	8c b1       	in	r24, 0x0c	; 12
    3896:	82 95       	swap	r24
    3898:	86 95       	lsr	r24
    389a:	87 70       	andi	r24, 0x07	; 7
    389c:	80 95       	com	r24

	return state;
}
    389e:	81 70       	andi	r24, 0x01	; 1
    38a0:	08 95       	ret

000038a2 <is_pright>:

unsigned char is_pright( void )
{
	unsigned char state ;

	state  = bit_is_set( PING, PANEL_RIGHT )?0:1;
    38a2:	82 b3       	in	r24, 0x12	; 18
    38a4:	82 95       	swap	r24
    38a6:	86 95       	lsr	r24
    38a8:	87 70       	andi	r24, 0x07	; 7
    38aa:	80 95       	com	r24

	return state;
}
    38ac:	81 70       	andi	r24, 0x01	; 1
    38ae:	08 95       	ret

000038b0 <is_pback>:

unsigned char is_pback( void )
{
	unsigned char state ;

	state  = bit_is_set( PINE, PANEL_BACK )?0:1;
    38b0:	8c b1       	in	r24, 0x0c	; 12
    38b2:	82 95       	swap	r24
    38b4:	8f 70       	andi	r24, 0x0F	; 15
    38b6:	80 95       	com	r24

	return state;
}
    38b8:	81 70       	andi	r24, 0x01	; 1
    38ba:	08 95       	ret

000038bc <is_pforward>:

unsigned char is_pforward( void )
{
	unsigned char state ;

	state  = bit_is_set( PINJ, PANEL_FORWARD )?0:1;
    38bc:	80 91 03 01 	lds	r24, 0x0103
    38c0:	86 95       	lsr	r24
    38c2:	80 95       	com	r24

	return state;
}
    38c4:	81 70       	andi	r24, 0x01	; 1
    38c6:	08 95       	ret

000038c8 <is_phead>:

unsigned char is_phead( void )
{
	unsigned char state ;

	state  = bit_is_set( PINC, PANEL_HEAD )?0:1;
    38c8:	86 b1       	in	r24, 0x06	; 6
    38ca:	82 95       	swap	r24
    38cc:	8f 70       	andi	r24, 0x0F	; 15
    38ce:	80 95       	com	r24

	return state;
}
    38d0:	81 70       	andi	r24, 0x01	; 1
    38d2:	08 95       	ret

000038d4 <is_pvac>:

unsigned char is_pvac( void )
{
	unsigned char state ;

	state  = bit_is_set( PINH, PANEL_VAC )?0:1;
    38d4:	80 91 00 01 	lds	r24, 0x0100
    38d8:	80 95       	com	r24

	return state;
}
    38da:	81 70       	andi	r24, 0x01	; 1
    38dc:	08 95       	ret

000038de <is_pfast>:

unsigned char is_pfast( void )
{
	unsigned char state ;

	state  = bit_is_set( PINJ, PANEL_FAST )?0:1;
    38de:	80 91 03 01 	lds	r24, 0x0103
    38e2:	80 95       	com	r24

	return state;
}
    38e4:	81 70       	andi	r24, 0x01	; 1
    38e6:	08 95       	ret

000038e8 <is_phome>:

unsigned char is_phome( void )
{
	unsigned char state ;

	state  = bit_is_set( PINB, PANEL_HOME )?0:1;
    38e8:	83 b1       	in	r24, 0x03	; 3
    38ea:	82 95       	swap	r24
    38ec:	86 95       	lsr	r24
    38ee:	87 70       	andi	r24, 0x07	; 7
    38f0:	80 95       	com	r24

	return state;
}
    38f2:	81 70       	andi	r24, 0x01	; 1
    38f4:	08 95       	ret

000038f6 <is_pteach>:

unsigned char is_pteach( void )
{
	unsigned char state ;

	state  = bit_is_set( PINH, PANEL_TEACH )?0:1;
    38f6:	80 91 00 01 	lds	r24, 0x0100
    38fa:	86 95       	lsr	r24
    38fc:	80 95       	com	r24

	return state;
}
    38fe:	81 70       	andi	r24, 0x01	; 1
    3900:	08 95       	ret

00003902 <vacuum_init>:
#include "settings.h"

void vacuum_init(void)
{
	// setup vacuum sensor TAC
	LIMIT_DDR &= ~(_BV( TACSENSE ) );
    3902:	57 98       	cbi	0x0a, 7	; 10
	LIMIT_DDR |= (_BV( TACSENSE ));
    3904:	57 9a       	sbi	0x0a, 7	; 10

	// Vacuum on/off control
	HEAD_DDR |= _BV( VACUUM );
    3906:	ea e0       	ldi	r30, 0x0A	; 10
    3908:	f1 e0       	ldi	r31, 0x01	; 1
    390a:	80 81       	ld	r24, Z
    390c:	80 61       	ori	r24, 0x10	; 16
    390e:	80 83       	st	Z, r24
	HEAD_PORT |= _BV( VACUUM );
    3910:	eb e0       	ldi	r30, 0x0B	; 11
    3912:	f1 e0       	ldi	r31, 0x01	; 1
    3914:	80 81       	ld	r24, Z
    3916:	80 61       	ori	r24, 0x10	; 16
    3918:	80 83       	st	Z, r24

}
    391a:	08 95       	ret

0000391c <vacuum>:
#ifdef VERBOSE_DEBUG
	printPgmString(PSTR("vacuum change\n\r"));
#endif

// vacuum  on / off
  if( state == 0 ) {
    391c:	89 2b       	or	r24, r25
    391e:	21 f4       	brne	.+8      	; 0x3928 <vacuum+0xc>

	HEAD_PORT |= _BV( VACUUM );
    3920:	80 91 0b 01 	lds	r24, 0x010B
    3924:	80 61       	ori	r24, 0x10	; 16
    3926:	03 c0       	rjmp	.+6      	; 0x392e <vacuum+0x12>

  } else {

	HEAD_PORT &= ~(_BV( VACUUM ));
    3928:	80 91 0b 01 	lds	r24, 0x010B
    392c:	8f 7e       	andi	r24, 0xEF	; 239
    392e:	80 93 0b 01 	sts	0x010B, r24
    3932:	88 e8       	ldi	r24, 0x88	; 136
    3934:	93 e1       	ldi	r25, 0x13	; 19
    3936:	20 e9       	ldi	r18, 0x90	; 144
    3938:	31 e0       	ldi	r19, 0x01	; 1
    393a:	f9 01       	movw	r30, r18
    393c:	31 97       	sbiw	r30, 0x01	; 1
    393e:	f1 f7       	brne	.-4      	; 0x393c <vacuum+0x20>
		{
			// wait 1/10 ms
			_delay_loop_2(((F_CPU) / 4e3) / 10);
			__ticks --;
    3940:	01 97       	sbiw	r24, 0x01	; 1
		__ticks = 1;
	else if (__tmp > 65535)
	{
		//	__ticks = requested delay in 1/10 ms
		__ticks = (uint16_t) (__ms * 10.0);
		while(__ticks)
    3942:	d9 f7       	brne	.-10     	; 0x393a <vacuum+0x1e>
  }

   // wait for air to get settled
   _delay_ms( AIR_SETTLE_TIME );

}
    3944:	08 95       	ret

00003946 <vacuum_state>:
// is vacuum working ?
unsigned char vacuum_state( void )
{
	unsigned char state ;

	state  = bit_is_set( LIMIT_DDR, TACSENSE )?0:1;
    3946:	8a b1       	in	r24, 0x0a	; 10
    3948:	80 95       	com	r24

	return state;
}
    394a:	88 1f       	adc	r24, r24
    394c:	88 27       	eor	r24, r24
    394e:	88 1f       	adc	r24, r24
    3950:	08 95       	ret

00003952 <do_vacuum_test>:


void do_vacuum_test( void )
{
	if( vacuum_state() ) { 
    3952:	57 99       	sbic	0x0a, 7	; 10
    3954:	03 c0       	rjmp	.+6      	; 0x395c <do_vacuum_test+0xa>
		
		printPgmString(PSTR("y\r\n"));
    3956:	86 ee       	ldi	r24, 0xE6	; 230
    3958:	94 e0       	ldi	r25, 0x04	; 4
    395a:	02 c0       	rjmp	.+4      	; 0x3960 <do_vacuum_test+0xe>

	} else {

		printPgmString(PSTR("n\r\n"));
    395c:	82 ee       	ldi	r24, 0xE2	; 226
    395e:	94 e0       	ldi	r25, 0x04	; 4
    3960:	0e 94 01 1a 	call	0x3402	; 0x3402 <printPgmString>
    3964:	08 95       	ret

00003966 <tape_init>:


void tape_init(void)
{
// set the tape knock as an output
	TAPE_DDR |= _BV( TAPE_KNOCK );
    3966:	e7 e0       	ldi	r30, 0x07	; 7
    3968:	f1 e0       	ldi	r31, 0x01	; 1
    396a:	80 81       	ld	r24, Z
    396c:	80 68       	ori	r24, 0x80	; 128
    396e:	80 83       	st	Z, r24
}
    3970:	08 95       	ret

00003972 <tape_knock>:
{
#ifdef VERBOSE_DEBUG
	printPgmString(PSTR("tape knock\n\r"));
#endif

 set_busy( TRUE );
    3972:	81 e0       	ldi	r24, 0x01	; 1
    3974:	90 e0       	ldi	r25, 0x00	; 0
    3976:	0e 94 47 14 	call	0x288e	; 0x288e <set_busy>

	TAPE_PORT &= ~(_BV( TAPE_KNOCK ));
    397a:	80 91 08 01 	lds	r24, 0x0108
    397e:	8f 77       	andi	r24, 0x7F	; 127
    3980:	80 93 08 01 	sts	0x0108, r24
    3984:	80 ed       	ldi	r24, 0xD0	; 208
    3986:	97 e0       	ldi	r25, 0x07	; 7
    3988:	20 e9       	ldi	r18, 0x90	; 144
    398a:	31 e0       	ldi	r19, 0x01	; 1
    398c:	f9 01       	movw	r30, r18
    398e:	31 97       	sbiw	r30, 0x01	; 1
    3990:	f1 f7       	brne	.-4      	; 0x398e <tape_knock+0x1c>
		{
			// wait 1/10 ms
			_delay_loop_2(((F_CPU) / 4e3) / 10);
			__ticks --;
    3992:	01 97       	sbiw	r24, 0x01	; 1
		__ticks = 1;
	else if (__tmp > 65535)
	{
		//	__ticks = requested delay in 1/10 ms
		__ticks = (uint16_t) (__ms * 10.0);
		while(__ticks)
    3994:	d9 f7       	brne	.-10     	; 0x398c <tape_knock+0x1a>

	_delay_ms( TAPE_KNOCK_SETTLE );

	TAPE_PORT |= _BV( TAPE_KNOCK );
    3996:	80 91 08 01 	lds	r24, 0x0108
    399a:	80 68       	ori	r24, 0x80	; 128
    399c:	80 93 08 01 	sts	0x0108, r24
    39a0:	80 ed       	ldi	r24, 0xD0	; 208
    39a2:	97 e0       	ldi	r25, 0x07	; 7
    39a4:	20 e9       	ldi	r18, 0x90	; 144
    39a6:	31 e0       	ldi	r19, 0x01	; 1
    39a8:	f9 01       	movw	r30, r18
    39aa:	31 97       	sbiw	r30, 0x01	; 1
    39ac:	f1 f7       	brne	.-4      	; 0x39aa <tape_knock+0x38>
		{
			// wait 1/10 ms
			_delay_loop_2(((F_CPU) / 4e3) / 10);
			__ticks --;
    39ae:	01 97       	sbiw	r24, 0x01	; 1
		__ticks = 1;
	else if (__tmp > 65535)
	{
		//	__ticks = requested delay in 1/10 ms
		__ticks = (uint16_t) (__ms * 10.0);
		while(__ticks)
    39b0:	d9 f7       	brne	.-10     	; 0x39a8 <tape_knock+0x36>

	_delay_ms( TAPE_KNOCK_SETTLE );

 set_busy( FALSE );
    39b2:	80 e0       	ldi	r24, 0x00	; 0
    39b4:	90 e0       	ldi	r25, 0x00	; 0
    39b6:	0e 94 47 14 	call	0x288e	; 0x288e <set_busy>
}
    39ba:	08 95       	ret

000039bc <__subsf3>:
    39bc:	50 58       	subi	r21, 0x80	; 128

000039be <__addsf3>:
    39be:	bb 27       	eor	r27, r27
    39c0:	aa 27       	eor	r26, r26
    39c2:	0e d0       	rcall	.+28     	; 0x39e0 <__addsf3x>
    39c4:	11 c2       	rjmp	.+1058   	; 0x3de8 <__fp_round>
    39c6:	02 d2       	rcall	.+1028   	; 0x3dcc <__fp_pscA>
    39c8:	30 f0       	brcs	.+12     	; 0x39d6 <__addsf3+0x18>
    39ca:	07 d2       	rcall	.+1038   	; 0x3dda <__fp_pscB>
    39cc:	20 f0       	brcs	.+8      	; 0x39d6 <__addsf3+0x18>
    39ce:	31 f4       	brne	.+12     	; 0x39dc <__addsf3+0x1e>
    39d0:	9f 3f       	cpi	r25, 0xFF	; 255
    39d2:	11 f4       	brne	.+4      	; 0x39d8 <__addsf3+0x1a>
    39d4:	1e f4       	brtc	.+6      	; 0x39dc <__addsf3+0x1e>
    39d6:	d2 c1       	rjmp	.+932    	; 0x3d7c <__fp_nan>
    39d8:	0e f4       	brtc	.+2      	; 0x39dc <__addsf3+0x1e>
    39da:	e0 95       	com	r30
    39dc:	e7 fb       	bst	r30, 7
    39de:	9f c1       	rjmp	.+830    	; 0x3d1e <__fp_inf>

000039e0 <__addsf3x>:
    39e0:	e9 2f       	mov	r30, r25
    39e2:	13 d2       	rcall	.+1062   	; 0x3e0a <__fp_split3>
    39e4:	80 f3       	brcs	.-32     	; 0x39c6 <__addsf3+0x8>
    39e6:	ba 17       	cp	r27, r26
    39e8:	62 07       	cpc	r22, r18
    39ea:	73 07       	cpc	r23, r19
    39ec:	84 07       	cpc	r24, r20
    39ee:	95 07       	cpc	r25, r21
    39f0:	18 f0       	brcs	.+6      	; 0x39f8 <__addsf3x+0x18>
    39f2:	71 f4       	brne	.+28     	; 0x3a10 <__addsf3x+0x30>
    39f4:	9e f5       	brtc	.+102    	; 0x3a5c <__addsf3x+0x7c>
    39f6:	42 c2       	rjmp	.+1156   	; 0x3e7c <__fp_zero>
    39f8:	0e f4       	brtc	.+2      	; 0x39fc <__addsf3x+0x1c>
    39fa:	e0 95       	com	r30
    39fc:	0b 2e       	mov	r0, r27
    39fe:	ba 2f       	mov	r27, r26
    3a00:	a0 2d       	mov	r26, r0
    3a02:	0b 01       	movw	r0, r22
    3a04:	b9 01       	movw	r22, r18
    3a06:	90 01       	movw	r18, r0
    3a08:	0c 01       	movw	r0, r24
    3a0a:	ca 01       	movw	r24, r20
    3a0c:	a0 01       	movw	r20, r0
    3a0e:	11 24       	eor	r1, r1
    3a10:	ff 27       	eor	r31, r31
    3a12:	59 1b       	sub	r21, r25
    3a14:	99 f0       	breq	.+38     	; 0x3a3c <__addsf3x+0x5c>
    3a16:	59 3f       	cpi	r21, 0xF9	; 249
    3a18:	50 f4       	brcc	.+20     	; 0x3a2e <__addsf3x+0x4e>
    3a1a:	50 3e       	cpi	r21, 0xE0	; 224
    3a1c:	68 f1       	brcs	.+90     	; 0x3a78 <__addsf3x+0x98>
    3a1e:	1a 16       	cp	r1, r26
    3a20:	f0 40       	sbci	r31, 0x00	; 0
    3a22:	a2 2f       	mov	r26, r18
    3a24:	23 2f       	mov	r18, r19
    3a26:	34 2f       	mov	r19, r20
    3a28:	44 27       	eor	r20, r20
    3a2a:	58 5f       	subi	r21, 0xF8	; 248
    3a2c:	f3 cf       	rjmp	.-26     	; 0x3a14 <__addsf3x+0x34>
    3a2e:	46 95       	lsr	r20
    3a30:	37 95       	ror	r19
    3a32:	27 95       	ror	r18
    3a34:	a7 95       	ror	r26
    3a36:	f0 40       	sbci	r31, 0x00	; 0
    3a38:	53 95       	inc	r21
    3a3a:	c9 f7       	brne	.-14     	; 0x3a2e <__addsf3x+0x4e>
    3a3c:	7e f4       	brtc	.+30     	; 0x3a5c <__addsf3x+0x7c>
    3a3e:	1f 16       	cp	r1, r31
    3a40:	ba 0b       	sbc	r27, r26
    3a42:	62 0b       	sbc	r22, r18
    3a44:	73 0b       	sbc	r23, r19
    3a46:	84 0b       	sbc	r24, r20
    3a48:	ba f0       	brmi	.+46     	; 0x3a78 <__addsf3x+0x98>
    3a4a:	91 50       	subi	r25, 0x01	; 1
    3a4c:	a1 f0       	breq	.+40     	; 0x3a76 <__addsf3x+0x96>
    3a4e:	ff 0f       	add	r31, r31
    3a50:	bb 1f       	adc	r27, r27
    3a52:	66 1f       	adc	r22, r22
    3a54:	77 1f       	adc	r23, r23
    3a56:	88 1f       	adc	r24, r24
    3a58:	c2 f7       	brpl	.-16     	; 0x3a4a <__addsf3x+0x6a>
    3a5a:	0e c0       	rjmp	.+28     	; 0x3a78 <__addsf3x+0x98>
    3a5c:	ba 0f       	add	r27, r26
    3a5e:	62 1f       	adc	r22, r18
    3a60:	73 1f       	adc	r23, r19
    3a62:	84 1f       	adc	r24, r20
    3a64:	48 f4       	brcc	.+18     	; 0x3a78 <__addsf3x+0x98>
    3a66:	87 95       	ror	r24
    3a68:	77 95       	ror	r23
    3a6a:	67 95       	ror	r22
    3a6c:	b7 95       	ror	r27
    3a6e:	f7 95       	ror	r31
    3a70:	9e 3f       	cpi	r25, 0xFE	; 254
    3a72:	08 f0       	brcs	.+2      	; 0x3a76 <__addsf3x+0x96>
    3a74:	b3 cf       	rjmp	.-154    	; 0x39dc <__addsf3+0x1e>
    3a76:	93 95       	inc	r25
    3a78:	88 0f       	add	r24, r24
    3a7a:	08 f0       	brcs	.+2      	; 0x3a7e <__addsf3x+0x9e>
    3a7c:	99 27       	eor	r25, r25
    3a7e:	ee 0f       	add	r30, r30
    3a80:	97 95       	ror	r25
    3a82:	87 95       	ror	r24
    3a84:	08 95       	ret

00003a86 <atan>:
    3a86:	df 93       	push	r29
    3a88:	dd 27       	eor	r29, r29
    3a8a:	b9 2f       	mov	r27, r25
    3a8c:	bf 77       	andi	r27, 0x7F	; 127
    3a8e:	40 e8       	ldi	r20, 0x80	; 128
    3a90:	5f e3       	ldi	r21, 0x3F	; 63
    3a92:	16 16       	cp	r1, r22
    3a94:	17 06       	cpc	r1, r23
    3a96:	48 07       	cpc	r20, r24
    3a98:	5b 07       	cpc	r21, r27
    3a9a:	10 f4       	brcc	.+4      	; 0x3aa0 <atan+0x1a>
    3a9c:	d9 2f       	mov	r29, r25
    3a9e:	f9 d1       	rcall	.+1010   	; 0x3e92 <inverse>
    3aa0:	9f 93       	push	r25
    3aa2:	8f 93       	push	r24
    3aa4:	7f 93       	push	r23
    3aa6:	6f 93       	push	r22
    3aa8:	23 d3       	rcall	.+1606   	; 0x40f0 <square>
    3aaa:	ee e5       	ldi	r30, 0x5E	; 94
    3aac:	f1 e0       	ldi	r31, 0x01	; 1
    3aae:	69 d1       	rcall	.+722    	; 0x3d82 <__fp_powser>
    3ab0:	9b d1       	rcall	.+822    	; 0x3de8 <__fp_round>
    3ab2:	2f 91       	pop	r18
    3ab4:	3f 91       	pop	r19
    3ab6:	4f 91       	pop	r20
    3ab8:	5f 91       	pop	r21
    3aba:	61 d2       	rcall	.+1218   	; 0x3f7e <__mulsf3x>
    3abc:	dd 23       	and	r29, r29
    3abe:	49 f0       	breq	.+18     	; 0x3ad2 <atan+0x4c>
    3ac0:	90 58       	subi	r25, 0x80	; 128
    3ac2:	a2 ea       	ldi	r26, 0xA2	; 162
    3ac4:	2a ed       	ldi	r18, 0xDA	; 218
    3ac6:	3f e0       	ldi	r19, 0x0F	; 15
    3ac8:	49 ec       	ldi	r20, 0xC9	; 201
    3aca:	5f e3       	ldi	r21, 0x3F	; 63
    3acc:	d0 78       	andi	r29, 0x80	; 128
    3ace:	5d 27       	eor	r21, r29
    3ad0:	87 df       	rcall	.-242    	; 0x39e0 <__addsf3x>
    3ad2:	df 91       	pop	r29
    3ad4:	89 c1       	rjmp	.+786    	; 0x3de8 <__fp_round>

00003ad6 <ceil>:
    3ad6:	bb d1       	rcall	.+886    	; 0x3e4e <__fp_trunc>
    3ad8:	80 f0       	brcs	.+32     	; 0x3afa <ceil+0x24>
    3ada:	9f 37       	cpi	r25, 0x7F	; 127
    3adc:	40 f4       	brcc	.+16     	; 0x3aee <ceil+0x18>
    3ade:	91 11       	cpse	r25, r1
    3ae0:	0e f4       	brtc	.+2      	; 0x3ae4 <ceil+0xe>
    3ae2:	cd c1       	rjmp	.+922    	; 0x3e7e <__fp_szero>
    3ae4:	60 e0       	ldi	r22, 0x00	; 0
    3ae6:	70 e0       	ldi	r23, 0x00	; 0
    3ae8:	80 e8       	ldi	r24, 0x80	; 128
    3aea:	9f e3       	ldi	r25, 0x3F	; 63
    3aec:	08 95       	ret
    3aee:	26 f0       	brts	.+8      	; 0x3af8 <ceil+0x22>
    3af0:	1b 16       	cp	r1, r27
    3af2:	61 1d       	adc	r22, r1
    3af4:	71 1d       	adc	r23, r1
    3af6:	81 1d       	adc	r24, r1
    3af8:	18 c1       	rjmp	.+560    	; 0x3d2a <__fp_mintl>
    3afa:	32 c1       	rjmp	.+612    	; 0x3d60 <__fp_mpack>

00003afc <__cmpsf2>:
    3afc:	ec d0       	rcall	.+472    	; 0x3cd6 <__fp_cmp>
    3afe:	08 f4       	brcc	.+2      	; 0x3b02 <__cmpsf2+0x6>
    3b00:	81 e0       	ldi	r24, 0x01	; 1
    3b02:	08 95       	ret

00003b04 <__divsf3>:
    3b04:	0c d0       	rcall	.+24     	; 0x3b1e <__divsf3x>
    3b06:	70 c1       	rjmp	.+736    	; 0x3de8 <__fp_round>
    3b08:	68 d1       	rcall	.+720    	; 0x3dda <__fp_pscB>
    3b0a:	40 f0       	brcs	.+16     	; 0x3b1c <__divsf3+0x18>
    3b0c:	5f d1       	rcall	.+702    	; 0x3dcc <__fp_pscA>
    3b0e:	30 f0       	brcs	.+12     	; 0x3b1c <__divsf3+0x18>
    3b10:	21 f4       	brne	.+8      	; 0x3b1a <__divsf3+0x16>
    3b12:	5f 3f       	cpi	r21, 0xFF	; 255
    3b14:	19 f0       	breq	.+6      	; 0x3b1c <__divsf3+0x18>
    3b16:	03 c1       	rjmp	.+518    	; 0x3d1e <__fp_inf>
    3b18:	51 11       	cpse	r21, r1
    3b1a:	b1 c1       	rjmp	.+866    	; 0x3e7e <__fp_szero>
    3b1c:	2f c1       	rjmp	.+606    	; 0x3d7c <__fp_nan>

00003b1e <__divsf3x>:
    3b1e:	75 d1       	rcall	.+746    	; 0x3e0a <__fp_split3>
    3b20:	98 f3       	brcs	.-26     	; 0x3b08 <__divsf3+0x4>

00003b22 <__divsf3_pse>:
    3b22:	99 23       	and	r25, r25
    3b24:	c9 f3       	breq	.-14     	; 0x3b18 <__divsf3+0x14>
    3b26:	55 23       	and	r21, r21
    3b28:	b1 f3       	breq	.-20     	; 0x3b16 <__divsf3+0x12>
    3b2a:	95 1b       	sub	r25, r21
    3b2c:	55 0b       	sbc	r21, r21
    3b2e:	bb 27       	eor	r27, r27
    3b30:	aa 27       	eor	r26, r26
    3b32:	62 17       	cp	r22, r18
    3b34:	73 07       	cpc	r23, r19
    3b36:	84 07       	cpc	r24, r20
    3b38:	38 f0       	brcs	.+14     	; 0x3b48 <__divsf3_pse+0x26>
    3b3a:	9f 5f       	subi	r25, 0xFF	; 255
    3b3c:	5f 4f       	sbci	r21, 0xFF	; 255
    3b3e:	22 0f       	add	r18, r18
    3b40:	33 1f       	adc	r19, r19
    3b42:	44 1f       	adc	r20, r20
    3b44:	aa 1f       	adc	r26, r26
    3b46:	a9 f3       	breq	.-22     	; 0x3b32 <__divsf3_pse+0x10>
    3b48:	33 d0       	rcall	.+102    	; 0x3bb0 <__divsf3_pse+0x8e>
    3b4a:	0e 2e       	mov	r0, r30
    3b4c:	3a f0       	brmi	.+14     	; 0x3b5c <__divsf3_pse+0x3a>
    3b4e:	e0 e8       	ldi	r30, 0x80	; 128
    3b50:	30 d0       	rcall	.+96     	; 0x3bb2 <__divsf3_pse+0x90>
    3b52:	91 50       	subi	r25, 0x01	; 1
    3b54:	50 40       	sbci	r21, 0x00	; 0
    3b56:	e6 95       	lsr	r30
    3b58:	00 1c       	adc	r0, r0
    3b5a:	ca f7       	brpl	.-14     	; 0x3b4e <__divsf3_pse+0x2c>
    3b5c:	29 d0       	rcall	.+82     	; 0x3bb0 <__divsf3_pse+0x8e>
    3b5e:	fe 2f       	mov	r31, r30
    3b60:	27 d0       	rcall	.+78     	; 0x3bb0 <__divsf3_pse+0x8e>
    3b62:	66 0f       	add	r22, r22
    3b64:	77 1f       	adc	r23, r23
    3b66:	88 1f       	adc	r24, r24
    3b68:	bb 1f       	adc	r27, r27
    3b6a:	26 17       	cp	r18, r22
    3b6c:	37 07       	cpc	r19, r23
    3b6e:	48 07       	cpc	r20, r24
    3b70:	ab 07       	cpc	r26, r27
    3b72:	b0 e8       	ldi	r27, 0x80	; 128
    3b74:	09 f0       	breq	.+2      	; 0x3b78 <__divsf3_pse+0x56>
    3b76:	bb 0b       	sbc	r27, r27
    3b78:	80 2d       	mov	r24, r0
    3b7a:	bf 01       	movw	r22, r30
    3b7c:	ff 27       	eor	r31, r31
    3b7e:	93 58       	subi	r25, 0x83	; 131
    3b80:	5f 4f       	sbci	r21, 0xFF	; 255
    3b82:	2a f0       	brmi	.+10     	; 0x3b8e <__divsf3_pse+0x6c>
    3b84:	9e 3f       	cpi	r25, 0xFE	; 254
    3b86:	51 05       	cpc	r21, r1
    3b88:	68 f0       	brcs	.+26     	; 0x3ba4 <__divsf3_pse+0x82>
    3b8a:	c9 c0       	rjmp	.+402    	; 0x3d1e <__fp_inf>
    3b8c:	78 c1       	rjmp	.+752    	; 0x3e7e <__fp_szero>
    3b8e:	5f 3f       	cpi	r21, 0xFF	; 255
    3b90:	ec f3       	brlt	.-6      	; 0x3b8c <__divsf3_pse+0x6a>
    3b92:	98 3e       	cpi	r25, 0xE8	; 232
    3b94:	dc f3       	brlt	.-10     	; 0x3b8c <__divsf3_pse+0x6a>
    3b96:	86 95       	lsr	r24
    3b98:	77 95       	ror	r23
    3b9a:	67 95       	ror	r22
    3b9c:	b7 95       	ror	r27
    3b9e:	f7 95       	ror	r31
    3ba0:	9f 5f       	subi	r25, 0xFF	; 255
    3ba2:	c9 f7       	brne	.-14     	; 0x3b96 <__divsf3_pse+0x74>
    3ba4:	88 0f       	add	r24, r24
    3ba6:	91 1d       	adc	r25, r1
    3ba8:	96 95       	lsr	r25
    3baa:	87 95       	ror	r24
    3bac:	97 f9       	bld	r25, 7
    3bae:	08 95       	ret
    3bb0:	e1 e0       	ldi	r30, 0x01	; 1
    3bb2:	66 0f       	add	r22, r22
    3bb4:	77 1f       	adc	r23, r23
    3bb6:	88 1f       	adc	r24, r24
    3bb8:	bb 1f       	adc	r27, r27
    3bba:	62 17       	cp	r22, r18
    3bbc:	73 07       	cpc	r23, r19
    3bbe:	84 07       	cpc	r24, r20
    3bc0:	ba 07       	cpc	r27, r26
    3bc2:	20 f0       	brcs	.+8      	; 0x3bcc <__divsf3_pse+0xaa>
    3bc4:	62 1b       	sub	r22, r18
    3bc6:	73 0b       	sbc	r23, r19
    3bc8:	84 0b       	sbc	r24, r20
    3bca:	ba 0b       	sbc	r27, r26
    3bcc:	ee 1f       	adc	r30, r30
    3bce:	88 f7       	brcc	.-30     	; 0x3bb2 <__divsf3_pse+0x90>
    3bd0:	e0 95       	com	r30
    3bd2:	08 95       	ret

00003bd4 <__fixsfsi>:
    3bd4:	04 d0       	rcall	.+8      	; 0x3bde <__fixunssfsi>
    3bd6:	68 94       	set
    3bd8:	b1 11       	cpse	r27, r1
    3bda:	51 c1       	rjmp	.+674    	; 0x3e7e <__fp_szero>
    3bdc:	08 95       	ret

00003bde <__fixunssfsi>:
    3bde:	1d d1       	rcall	.+570    	; 0x3e1a <__fp_splitA>
    3be0:	88 f0       	brcs	.+34     	; 0x3c04 <__fixunssfsi+0x26>
    3be2:	9f 57       	subi	r25, 0x7F	; 127
    3be4:	90 f0       	brcs	.+36     	; 0x3c0a <__fixunssfsi+0x2c>
    3be6:	b9 2f       	mov	r27, r25
    3be8:	99 27       	eor	r25, r25
    3bea:	b7 51       	subi	r27, 0x17	; 23
    3bec:	a0 f0       	brcs	.+40     	; 0x3c16 <__fixunssfsi+0x38>
    3bee:	d1 f0       	breq	.+52     	; 0x3c24 <__fixunssfsi+0x46>
    3bf0:	66 0f       	add	r22, r22
    3bf2:	77 1f       	adc	r23, r23
    3bf4:	88 1f       	adc	r24, r24
    3bf6:	99 1f       	adc	r25, r25
    3bf8:	1a f0       	brmi	.+6      	; 0x3c00 <__fixunssfsi+0x22>
    3bfa:	ba 95       	dec	r27
    3bfc:	c9 f7       	brne	.-14     	; 0x3bf0 <__fixunssfsi+0x12>
    3bfe:	12 c0       	rjmp	.+36     	; 0x3c24 <__fixunssfsi+0x46>
    3c00:	b1 30       	cpi	r27, 0x01	; 1
    3c02:	81 f0       	breq	.+32     	; 0x3c24 <__fixunssfsi+0x46>
    3c04:	3b d1       	rcall	.+630    	; 0x3e7c <__fp_zero>
    3c06:	b1 e0       	ldi	r27, 0x01	; 1
    3c08:	08 95       	ret
    3c0a:	38 c1       	rjmp	.+624    	; 0x3e7c <__fp_zero>
    3c0c:	67 2f       	mov	r22, r23
    3c0e:	78 2f       	mov	r23, r24
    3c10:	88 27       	eor	r24, r24
    3c12:	b8 5f       	subi	r27, 0xF8	; 248
    3c14:	39 f0       	breq	.+14     	; 0x3c24 <__fixunssfsi+0x46>
    3c16:	b9 3f       	cpi	r27, 0xF9	; 249
    3c18:	cc f3       	brlt	.-14     	; 0x3c0c <__fixunssfsi+0x2e>
    3c1a:	86 95       	lsr	r24
    3c1c:	77 95       	ror	r23
    3c1e:	67 95       	ror	r22
    3c20:	b3 95       	inc	r27
    3c22:	d9 f7       	brne	.-10     	; 0x3c1a <__fixunssfsi+0x3c>
    3c24:	3e f4       	brtc	.+14     	; 0x3c34 <__fixunssfsi+0x56>
    3c26:	90 95       	com	r25
    3c28:	80 95       	com	r24
    3c2a:	70 95       	com	r23
    3c2c:	61 95       	neg	r22
    3c2e:	7f 4f       	sbci	r23, 0xFF	; 255
    3c30:	8f 4f       	sbci	r24, 0xFF	; 255
    3c32:	9f 4f       	sbci	r25, 0xFF	; 255
    3c34:	08 95       	ret

00003c36 <__floatunsisf>:
    3c36:	e8 94       	clt
    3c38:	09 c0       	rjmp	.+18     	; 0x3c4c <__floatsisf+0x12>

00003c3a <__floatsisf>:
    3c3a:	97 fb       	bst	r25, 7
    3c3c:	3e f4       	brtc	.+14     	; 0x3c4c <__floatsisf+0x12>
    3c3e:	90 95       	com	r25
    3c40:	80 95       	com	r24
    3c42:	70 95       	com	r23
    3c44:	61 95       	neg	r22
    3c46:	7f 4f       	sbci	r23, 0xFF	; 255
    3c48:	8f 4f       	sbci	r24, 0xFF	; 255
    3c4a:	9f 4f       	sbci	r25, 0xFF	; 255
    3c4c:	99 23       	and	r25, r25
    3c4e:	a9 f0       	breq	.+42     	; 0x3c7a <__floatsisf+0x40>
    3c50:	f9 2f       	mov	r31, r25
    3c52:	96 e9       	ldi	r25, 0x96	; 150
    3c54:	bb 27       	eor	r27, r27
    3c56:	93 95       	inc	r25
    3c58:	f6 95       	lsr	r31
    3c5a:	87 95       	ror	r24
    3c5c:	77 95       	ror	r23
    3c5e:	67 95       	ror	r22
    3c60:	b7 95       	ror	r27
    3c62:	f1 11       	cpse	r31, r1
    3c64:	f8 cf       	rjmp	.-16     	; 0x3c56 <__floatsisf+0x1c>
    3c66:	fa f4       	brpl	.+62     	; 0x3ca6 <__floatsisf+0x6c>
    3c68:	bb 0f       	add	r27, r27
    3c6a:	11 f4       	brne	.+4      	; 0x3c70 <__floatsisf+0x36>
    3c6c:	60 ff       	sbrs	r22, 0
    3c6e:	1b c0       	rjmp	.+54     	; 0x3ca6 <__floatsisf+0x6c>
    3c70:	6f 5f       	subi	r22, 0xFF	; 255
    3c72:	7f 4f       	sbci	r23, 0xFF	; 255
    3c74:	8f 4f       	sbci	r24, 0xFF	; 255
    3c76:	9f 4f       	sbci	r25, 0xFF	; 255
    3c78:	16 c0       	rjmp	.+44     	; 0x3ca6 <__floatsisf+0x6c>
    3c7a:	88 23       	and	r24, r24
    3c7c:	11 f0       	breq	.+4      	; 0x3c82 <__floatsisf+0x48>
    3c7e:	96 e9       	ldi	r25, 0x96	; 150
    3c80:	11 c0       	rjmp	.+34     	; 0x3ca4 <__floatsisf+0x6a>
    3c82:	77 23       	and	r23, r23
    3c84:	21 f0       	breq	.+8      	; 0x3c8e <__floatsisf+0x54>
    3c86:	9e e8       	ldi	r25, 0x8E	; 142
    3c88:	87 2f       	mov	r24, r23
    3c8a:	76 2f       	mov	r23, r22
    3c8c:	05 c0       	rjmp	.+10     	; 0x3c98 <__floatsisf+0x5e>
    3c8e:	66 23       	and	r22, r22
    3c90:	71 f0       	breq	.+28     	; 0x3cae <__floatsisf+0x74>
    3c92:	96 e8       	ldi	r25, 0x86	; 134
    3c94:	86 2f       	mov	r24, r22
    3c96:	70 e0       	ldi	r23, 0x00	; 0
    3c98:	60 e0       	ldi	r22, 0x00	; 0
    3c9a:	2a f0       	brmi	.+10     	; 0x3ca6 <__floatsisf+0x6c>
    3c9c:	9a 95       	dec	r25
    3c9e:	66 0f       	add	r22, r22
    3ca0:	77 1f       	adc	r23, r23
    3ca2:	88 1f       	adc	r24, r24
    3ca4:	da f7       	brpl	.-10     	; 0x3c9c <__floatsisf+0x62>
    3ca6:	88 0f       	add	r24, r24
    3ca8:	96 95       	lsr	r25
    3caa:	87 95       	ror	r24
    3cac:	97 f9       	bld	r25, 7
    3cae:	08 95       	ret

00003cb0 <floor>:
    3cb0:	ce d0       	rcall	.+412    	; 0x3e4e <__fp_trunc>
    3cb2:	80 f0       	brcs	.+32     	; 0x3cd4 <floor+0x24>
    3cb4:	9f 37       	cpi	r25, 0x7F	; 127
    3cb6:	40 f4       	brcc	.+16     	; 0x3cc8 <floor+0x18>
    3cb8:	91 11       	cpse	r25, r1
    3cba:	0e f0       	brts	.+2      	; 0x3cbe <floor+0xe>
    3cbc:	e0 c0       	rjmp	.+448    	; 0x3e7e <__fp_szero>
    3cbe:	60 e0       	ldi	r22, 0x00	; 0
    3cc0:	70 e0       	ldi	r23, 0x00	; 0
    3cc2:	80 e8       	ldi	r24, 0x80	; 128
    3cc4:	9f eb       	ldi	r25, 0xBF	; 191
    3cc6:	08 95       	ret
    3cc8:	26 f4       	brtc	.+8      	; 0x3cd2 <floor+0x22>
    3cca:	1b 16       	cp	r1, r27
    3ccc:	61 1d       	adc	r22, r1
    3cce:	71 1d       	adc	r23, r1
    3cd0:	81 1d       	adc	r24, r1
    3cd2:	2b c0       	rjmp	.+86     	; 0x3d2a <__fp_mintl>
    3cd4:	45 c0       	rjmp	.+138    	; 0x3d60 <__fp_mpack>

00003cd6 <__fp_cmp>:
    3cd6:	99 0f       	add	r25, r25
    3cd8:	00 08       	sbc	r0, r0
    3cda:	55 0f       	add	r21, r21
    3cdc:	aa 0b       	sbc	r26, r26
    3cde:	e0 e8       	ldi	r30, 0x80	; 128
    3ce0:	fe ef       	ldi	r31, 0xFE	; 254
    3ce2:	16 16       	cp	r1, r22
    3ce4:	17 06       	cpc	r1, r23
    3ce6:	e8 07       	cpc	r30, r24
    3ce8:	f9 07       	cpc	r31, r25
    3cea:	c0 f0       	brcs	.+48     	; 0x3d1c <__fp_cmp+0x46>
    3cec:	12 16       	cp	r1, r18
    3cee:	13 06       	cpc	r1, r19
    3cf0:	e4 07       	cpc	r30, r20
    3cf2:	f5 07       	cpc	r31, r21
    3cf4:	98 f0       	brcs	.+38     	; 0x3d1c <__fp_cmp+0x46>
    3cf6:	62 1b       	sub	r22, r18
    3cf8:	73 0b       	sbc	r23, r19
    3cfa:	84 0b       	sbc	r24, r20
    3cfc:	95 0b       	sbc	r25, r21
    3cfe:	39 f4       	brne	.+14     	; 0x3d0e <__fp_cmp+0x38>
    3d00:	0a 26       	eor	r0, r26
    3d02:	61 f0       	breq	.+24     	; 0x3d1c <__fp_cmp+0x46>
    3d04:	23 2b       	or	r18, r19
    3d06:	24 2b       	or	r18, r20
    3d08:	25 2b       	or	r18, r21
    3d0a:	21 f4       	brne	.+8      	; 0x3d14 <__fp_cmp+0x3e>
    3d0c:	08 95       	ret
    3d0e:	0a 26       	eor	r0, r26
    3d10:	09 f4       	brne	.+2      	; 0x3d14 <__fp_cmp+0x3e>
    3d12:	a1 40       	sbci	r26, 0x01	; 1
    3d14:	a6 95       	lsr	r26
    3d16:	8f ef       	ldi	r24, 0xFF	; 255
    3d18:	81 1d       	adc	r24, r1
    3d1a:	81 1d       	adc	r24, r1
    3d1c:	08 95       	ret

00003d1e <__fp_inf>:
    3d1e:	97 f9       	bld	r25, 7
    3d20:	9f 67       	ori	r25, 0x7F	; 127
    3d22:	80 e8       	ldi	r24, 0x80	; 128
    3d24:	70 e0       	ldi	r23, 0x00	; 0
    3d26:	60 e0       	ldi	r22, 0x00	; 0
    3d28:	08 95       	ret

00003d2a <__fp_mintl>:
    3d2a:	88 23       	and	r24, r24
    3d2c:	71 f4       	brne	.+28     	; 0x3d4a <__fp_mintl+0x20>
    3d2e:	77 23       	and	r23, r23
    3d30:	21 f0       	breq	.+8      	; 0x3d3a <__fp_mintl+0x10>
    3d32:	98 50       	subi	r25, 0x08	; 8
    3d34:	87 2b       	or	r24, r23
    3d36:	76 2f       	mov	r23, r22
    3d38:	07 c0       	rjmp	.+14     	; 0x3d48 <__fp_mintl+0x1e>
    3d3a:	66 23       	and	r22, r22
    3d3c:	11 f4       	brne	.+4      	; 0x3d42 <__fp_mintl+0x18>
    3d3e:	99 27       	eor	r25, r25
    3d40:	0d c0       	rjmp	.+26     	; 0x3d5c <__fp_mintl+0x32>
    3d42:	90 51       	subi	r25, 0x10	; 16
    3d44:	86 2b       	or	r24, r22
    3d46:	70 e0       	ldi	r23, 0x00	; 0
    3d48:	60 e0       	ldi	r22, 0x00	; 0
    3d4a:	2a f0       	brmi	.+10     	; 0x3d56 <__fp_mintl+0x2c>
    3d4c:	9a 95       	dec	r25
    3d4e:	66 0f       	add	r22, r22
    3d50:	77 1f       	adc	r23, r23
    3d52:	88 1f       	adc	r24, r24
    3d54:	da f7       	brpl	.-10     	; 0x3d4c <__fp_mintl+0x22>
    3d56:	88 0f       	add	r24, r24
    3d58:	96 95       	lsr	r25
    3d5a:	87 95       	ror	r24
    3d5c:	97 f9       	bld	r25, 7
    3d5e:	08 95       	ret

00003d60 <__fp_mpack>:
    3d60:	9f 3f       	cpi	r25, 0xFF	; 255
    3d62:	31 f0       	breq	.+12     	; 0x3d70 <__fp_mpack_finite+0xc>

00003d64 <__fp_mpack_finite>:
    3d64:	91 50       	subi	r25, 0x01	; 1
    3d66:	20 f4       	brcc	.+8      	; 0x3d70 <__fp_mpack_finite+0xc>
    3d68:	87 95       	ror	r24
    3d6a:	77 95       	ror	r23
    3d6c:	67 95       	ror	r22
    3d6e:	b7 95       	ror	r27
    3d70:	88 0f       	add	r24, r24
    3d72:	91 1d       	adc	r25, r1
    3d74:	96 95       	lsr	r25
    3d76:	87 95       	ror	r24
    3d78:	97 f9       	bld	r25, 7
    3d7a:	08 95       	ret

00003d7c <__fp_nan>:
    3d7c:	9f ef       	ldi	r25, 0xFF	; 255
    3d7e:	80 ec       	ldi	r24, 0xC0	; 192
    3d80:	08 95       	ret

00003d82 <__fp_powser>:
    3d82:	df 93       	push	r29
    3d84:	cf 93       	push	r28
    3d86:	1f 93       	push	r17
    3d88:	0f 93       	push	r16
    3d8a:	ff 92       	push	r15
    3d8c:	ef 92       	push	r14
    3d8e:	df 92       	push	r13
    3d90:	7b 01       	movw	r14, r22
    3d92:	8c 01       	movw	r16, r24
    3d94:	68 94       	set
    3d96:	05 c0       	rjmp	.+10     	; 0x3da2 <__fp_powser+0x20>
    3d98:	da 2e       	mov	r13, r26
    3d9a:	ef 01       	movw	r28, r30
    3d9c:	f0 d0       	rcall	.+480    	; 0x3f7e <__mulsf3x>
    3d9e:	fe 01       	movw	r30, r28
    3da0:	e8 94       	clt
    3da2:	a5 91       	lpm	r26, Z+
    3da4:	25 91       	lpm	r18, Z+
    3da6:	35 91       	lpm	r19, Z+
    3da8:	45 91       	lpm	r20, Z+
    3daa:	55 91       	lpm	r21, Z+
    3dac:	ae f3       	brts	.-22     	; 0x3d98 <__fp_powser+0x16>
    3dae:	ef 01       	movw	r28, r30
    3db0:	17 de       	rcall	.-978    	; 0x39e0 <__addsf3x>
    3db2:	fe 01       	movw	r30, r28
    3db4:	97 01       	movw	r18, r14
    3db6:	a8 01       	movw	r20, r16
    3db8:	da 94       	dec	r13
    3dba:	79 f7       	brne	.-34     	; 0x3d9a <__fp_powser+0x18>
    3dbc:	df 90       	pop	r13
    3dbe:	ef 90       	pop	r14
    3dc0:	ff 90       	pop	r15
    3dc2:	0f 91       	pop	r16
    3dc4:	1f 91       	pop	r17
    3dc6:	cf 91       	pop	r28
    3dc8:	df 91       	pop	r29
    3dca:	08 95       	ret

00003dcc <__fp_pscA>:
    3dcc:	00 24       	eor	r0, r0
    3dce:	0a 94       	dec	r0
    3dd0:	16 16       	cp	r1, r22
    3dd2:	17 06       	cpc	r1, r23
    3dd4:	18 06       	cpc	r1, r24
    3dd6:	09 06       	cpc	r0, r25
    3dd8:	08 95       	ret

00003dda <__fp_pscB>:
    3dda:	00 24       	eor	r0, r0
    3ddc:	0a 94       	dec	r0
    3dde:	12 16       	cp	r1, r18
    3de0:	13 06       	cpc	r1, r19
    3de2:	14 06       	cpc	r1, r20
    3de4:	05 06       	cpc	r0, r21
    3de6:	08 95       	ret

00003de8 <__fp_round>:
    3de8:	09 2e       	mov	r0, r25
    3dea:	03 94       	inc	r0
    3dec:	00 0c       	add	r0, r0
    3dee:	11 f4       	brne	.+4      	; 0x3df4 <__fp_round+0xc>
    3df0:	88 23       	and	r24, r24
    3df2:	52 f0       	brmi	.+20     	; 0x3e08 <__fp_round+0x20>
    3df4:	bb 0f       	add	r27, r27
    3df6:	40 f4       	brcc	.+16     	; 0x3e08 <__fp_round+0x20>
    3df8:	bf 2b       	or	r27, r31
    3dfa:	11 f4       	brne	.+4      	; 0x3e00 <__fp_round+0x18>
    3dfc:	60 ff       	sbrs	r22, 0
    3dfe:	04 c0       	rjmp	.+8      	; 0x3e08 <__fp_round+0x20>
    3e00:	6f 5f       	subi	r22, 0xFF	; 255
    3e02:	7f 4f       	sbci	r23, 0xFF	; 255
    3e04:	8f 4f       	sbci	r24, 0xFF	; 255
    3e06:	9f 4f       	sbci	r25, 0xFF	; 255
    3e08:	08 95       	ret

00003e0a <__fp_split3>:
    3e0a:	57 fd       	sbrc	r21, 7
    3e0c:	90 58       	subi	r25, 0x80	; 128
    3e0e:	44 0f       	add	r20, r20
    3e10:	55 1f       	adc	r21, r21
    3e12:	59 f0       	breq	.+22     	; 0x3e2a <__fp_splitA+0x10>
    3e14:	5f 3f       	cpi	r21, 0xFF	; 255
    3e16:	71 f0       	breq	.+28     	; 0x3e34 <__fp_splitA+0x1a>
    3e18:	47 95       	ror	r20

00003e1a <__fp_splitA>:
    3e1a:	88 0f       	add	r24, r24
    3e1c:	97 fb       	bst	r25, 7
    3e1e:	99 1f       	adc	r25, r25
    3e20:	61 f0       	breq	.+24     	; 0x3e3a <__fp_splitA+0x20>
    3e22:	9f 3f       	cpi	r25, 0xFF	; 255
    3e24:	79 f0       	breq	.+30     	; 0x3e44 <__fp_splitA+0x2a>
    3e26:	87 95       	ror	r24
    3e28:	08 95       	ret
    3e2a:	12 16       	cp	r1, r18
    3e2c:	13 06       	cpc	r1, r19
    3e2e:	14 06       	cpc	r1, r20
    3e30:	55 1f       	adc	r21, r21
    3e32:	f2 cf       	rjmp	.-28     	; 0x3e18 <__fp_split3+0xe>
    3e34:	46 95       	lsr	r20
    3e36:	f1 df       	rcall	.-30     	; 0x3e1a <__fp_splitA>
    3e38:	08 c0       	rjmp	.+16     	; 0x3e4a <__fp_splitA+0x30>
    3e3a:	16 16       	cp	r1, r22
    3e3c:	17 06       	cpc	r1, r23
    3e3e:	18 06       	cpc	r1, r24
    3e40:	99 1f       	adc	r25, r25
    3e42:	f1 cf       	rjmp	.-30     	; 0x3e26 <__fp_splitA+0xc>
    3e44:	86 95       	lsr	r24
    3e46:	71 05       	cpc	r23, r1
    3e48:	61 05       	cpc	r22, r1
    3e4a:	08 94       	sec
    3e4c:	08 95       	ret

00003e4e <__fp_trunc>:
    3e4e:	e5 df       	rcall	.-54     	; 0x3e1a <__fp_splitA>
    3e50:	a0 f0       	brcs	.+40     	; 0x3e7a <__fp_trunc+0x2c>
    3e52:	be e7       	ldi	r27, 0x7E	; 126
    3e54:	b9 17       	cp	r27, r25
    3e56:	88 f4       	brcc	.+34     	; 0x3e7a <__fp_trunc+0x2c>
    3e58:	bb 27       	eor	r27, r27
    3e5a:	9f 38       	cpi	r25, 0x8F	; 143
    3e5c:	60 f4       	brcc	.+24     	; 0x3e76 <__fp_trunc+0x28>
    3e5e:	16 16       	cp	r1, r22
    3e60:	b1 1d       	adc	r27, r1
    3e62:	67 2f       	mov	r22, r23
    3e64:	78 2f       	mov	r23, r24
    3e66:	88 27       	eor	r24, r24
    3e68:	98 5f       	subi	r25, 0xF8	; 248
    3e6a:	f7 cf       	rjmp	.-18     	; 0x3e5a <__fp_trunc+0xc>
    3e6c:	86 95       	lsr	r24
    3e6e:	77 95       	ror	r23
    3e70:	67 95       	ror	r22
    3e72:	b1 1d       	adc	r27, r1
    3e74:	93 95       	inc	r25
    3e76:	96 39       	cpi	r25, 0x96	; 150
    3e78:	c8 f3       	brcs	.-14     	; 0x3e6c <__fp_trunc+0x1e>
    3e7a:	08 95       	ret

00003e7c <__fp_zero>:
    3e7c:	e8 94       	clt

00003e7e <__fp_szero>:
    3e7e:	bb 27       	eor	r27, r27
    3e80:	66 27       	eor	r22, r22
    3e82:	77 27       	eor	r23, r23
    3e84:	cb 01       	movw	r24, r22
    3e86:	97 f9       	bld	r25, 7
    3e88:	08 95       	ret

00003e8a <__gesf2>:
    3e8a:	25 df       	rcall	.-438    	; 0x3cd6 <__fp_cmp>
    3e8c:	08 f4       	brcc	.+2      	; 0x3e90 <__gesf2+0x6>
    3e8e:	8f ef       	ldi	r24, 0xFF	; 255
    3e90:	08 95       	ret

00003e92 <inverse>:
    3e92:	9b 01       	movw	r18, r22
    3e94:	ac 01       	movw	r20, r24
    3e96:	60 e0       	ldi	r22, 0x00	; 0
    3e98:	70 e0       	ldi	r23, 0x00	; 0
    3e9a:	80 e8       	ldi	r24, 0x80	; 128
    3e9c:	9f e3       	ldi	r25, 0x3F	; 63
    3e9e:	32 ce       	rjmp	.-924    	; 0x3b04 <__divsf3>

00003ea0 <lround>:
    3ea0:	bc df       	rcall	.-136    	; 0x3e1a <__fp_splitA>
    3ea2:	58 f1       	brcs	.+86     	; 0x3efa <lround+0x5a>
    3ea4:	9e 57       	subi	r25, 0x7E	; 126
    3ea6:	58 f1       	brcs	.+86     	; 0x3efe <lround+0x5e>
    3ea8:	98 51       	subi	r25, 0x18	; 24
    3eaa:	a0 f0       	brcs	.+40     	; 0x3ed4 <lround+0x34>
    3eac:	e9 f0       	breq	.+58     	; 0x3ee8 <lround+0x48>
    3eae:	98 30       	cpi	r25, 0x08	; 8
    3eb0:	20 f5       	brcc	.+72     	; 0x3efa <lround+0x5a>
    3eb2:	09 2e       	mov	r0, r25
    3eb4:	99 27       	eor	r25, r25
    3eb6:	66 0f       	add	r22, r22
    3eb8:	77 1f       	adc	r23, r23
    3eba:	88 1f       	adc	r24, r24
    3ebc:	99 1f       	adc	r25, r25
    3ebe:	0a 94       	dec	r0
    3ec0:	d1 f7       	brne	.-12     	; 0x3eb6 <lround+0x16>
    3ec2:	12 c0       	rjmp	.+36     	; 0x3ee8 <lround+0x48>
    3ec4:	06 2e       	mov	r0, r22
    3ec6:	67 2f       	mov	r22, r23
    3ec8:	78 2f       	mov	r23, r24
    3eca:	88 27       	eor	r24, r24
    3ecc:	98 5f       	subi	r25, 0xF8	; 248
    3ece:	11 f4       	brne	.+4      	; 0x3ed4 <lround+0x34>
    3ed0:	00 0c       	add	r0, r0
    3ed2:	07 c0       	rjmp	.+14     	; 0x3ee2 <lround+0x42>
    3ed4:	99 3f       	cpi	r25, 0xF9	; 249
    3ed6:	b4 f3       	brlt	.-20     	; 0x3ec4 <lround+0x24>
    3ed8:	86 95       	lsr	r24
    3eda:	77 95       	ror	r23
    3edc:	67 95       	ror	r22
    3ede:	93 95       	inc	r25
    3ee0:	d9 f7       	brne	.-10     	; 0x3ed8 <lround+0x38>
    3ee2:	61 1d       	adc	r22, r1
    3ee4:	71 1d       	adc	r23, r1
    3ee6:	81 1d       	adc	r24, r1
    3ee8:	3e f4       	brtc	.+14     	; 0x3ef8 <lround+0x58>
    3eea:	90 95       	com	r25
    3eec:	80 95       	com	r24
    3eee:	70 95       	com	r23
    3ef0:	61 95       	neg	r22
    3ef2:	7f 4f       	sbci	r23, 0xFF	; 255
    3ef4:	8f 4f       	sbci	r24, 0xFF	; 255
    3ef6:	9f 4f       	sbci	r25, 0xFF	; 255
    3ef8:	08 95       	ret
    3efa:	68 94       	set
    3efc:	c0 cf       	rjmp	.-128    	; 0x3e7e <__fp_szero>
    3efe:	be cf       	rjmp	.-132    	; 0x3e7c <__fp_zero>

00003f00 <modf>:
    3f00:	fa 01       	movw	r30, r20
    3f02:	dc 01       	movw	r26, r24
    3f04:	aa 0f       	add	r26, r26
    3f06:	bb 1f       	adc	r27, r27
    3f08:	9b 01       	movw	r18, r22
    3f0a:	ac 01       	movw	r20, r24
    3f0c:	bf 57       	subi	r27, 0x7F	; 127
    3f0e:	28 f4       	brcc	.+10     	; 0x3f1a <modf+0x1a>
    3f10:	22 27       	eor	r18, r18
    3f12:	33 27       	eor	r19, r19
    3f14:	44 27       	eor	r20, r20
    3f16:	50 78       	andi	r21, 0x80	; 128
    3f18:	1f c0       	rjmp	.+62     	; 0x3f58 <modf+0x58>
    3f1a:	b7 51       	subi	r27, 0x17	; 23
    3f1c:	88 f4       	brcc	.+34     	; 0x3f40 <modf+0x40>
    3f1e:	ab 2f       	mov	r26, r27
    3f20:	00 24       	eor	r0, r0
    3f22:	46 95       	lsr	r20
    3f24:	37 95       	ror	r19
    3f26:	27 95       	ror	r18
    3f28:	01 1c       	adc	r0, r1
    3f2a:	a3 95       	inc	r26
    3f2c:	d2 f3       	brmi	.-12     	; 0x3f22 <modf+0x22>
    3f2e:	00 20       	and	r0, r0
    3f30:	69 f0       	breq	.+26     	; 0x3f4c <modf+0x4c>
    3f32:	22 0f       	add	r18, r18
    3f34:	33 1f       	adc	r19, r19
    3f36:	44 1f       	adc	r20, r20
    3f38:	b3 95       	inc	r27
    3f3a:	da f3       	brmi	.-10     	; 0x3f32 <modf+0x32>
    3f3c:	0d d0       	rcall	.+26     	; 0x3f58 <modf+0x58>
    3f3e:	3e cd       	rjmp	.-1412   	; 0x39bc <__subsf3>
    3f40:	61 30       	cpi	r22, 0x01	; 1
    3f42:	71 05       	cpc	r23, r1
    3f44:	a0 e8       	ldi	r26, 0x80	; 128
    3f46:	8a 07       	cpc	r24, r26
    3f48:	b9 46       	sbci	r27, 0x69	; 105
    3f4a:	30 f4       	brcc	.+12     	; 0x3f58 <modf+0x58>
    3f4c:	9b 01       	movw	r18, r22
    3f4e:	ac 01       	movw	r20, r24
    3f50:	66 27       	eor	r22, r22
    3f52:	77 27       	eor	r23, r23
    3f54:	88 27       	eor	r24, r24
    3f56:	90 78       	andi	r25, 0x80	; 128
    3f58:	30 96       	adiw	r30, 0x00	; 0
    3f5a:	21 f0       	breq	.+8      	; 0x3f64 <modf+0x64>
    3f5c:	20 83       	st	Z, r18
    3f5e:	31 83       	std	Z+1, r19	; 0x01
    3f60:	42 83       	std	Z+2, r20	; 0x02
    3f62:	53 83       	std	Z+3, r21	; 0x03
    3f64:	08 95       	ret

00003f66 <__mulsf3>:
    3f66:	0b d0       	rcall	.+22     	; 0x3f7e <__mulsf3x>
    3f68:	3f cf       	rjmp	.-386    	; 0x3de8 <__fp_round>
    3f6a:	30 df       	rcall	.-416    	; 0x3dcc <__fp_pscA>
    3f6c:	28 f0       	brcs	.+10     	; 0x3f78 <__mulsf3+0x12>
    3f6e:	35 df       	rcall	.-406    	; 0x3dda <__fp_pscB>
    3f70:	18 f0       	brcs	.+6      	; 0x3f78 <__mulsf3+0x12>
    3f72:	95 23       	and	r25, r21
    3f74:	09 f0       	breq	.+2      	; 0x3f78 <__mulsf3+0x12>
    3f76:	d3 ce       	rjmp	.-602    	; 0x3d1e <__fp_inf>
    3f78:	01 cf       	rjmp	.-510    	; 0x3d7c <__fp_nan>
    3f7a:	11 24       	eor	r1, r1
    3f7c:	80 cf       	rjmp	.-256    	; 0x3e7e <__fp_szero>

00003f7e <__mulsf3x>:
    3f7e:	45 df       	rcall	.-374    	; 0x3e0a <__fp_split3>
    3f80:	a0 f3       	brcs	.-24     	; 0x3f6a <__mulsf3+0x4>

00003f82 <__mulsf3_pse>:
    3f82:	95 9f       	mul	r25, r21
    3f84:	d1 f3       	breq	.-12     	; 0x3f7a <__mulsf3+0x14>
    3f86:	95 0f       	add	r25, r21
    3f88:	50 e0       	ldi	r21, 0x00	; 0
    3f8a:	55 1f       	adc	r21, r21
    3f8c:	62 9f       	mul	r22, r18
    3f8e:	f0 01       	movw	r30, r0
    3f90:	72 9f       	mul	r23, r18
    3f92:	bb 27       	eor	r27, r27
    3f94:	f0 0d       	add	r31, r0
    3f96:	b1 1d       	adc	r27, r1
    3f98:	63 9f       	mul	r22, r19
    3f9a:	aa 27       	eor	r26, r26
    3f9c:	f0 0d       	add	r31, r0
    3f9e:	b1 1d       	adc	r27, r1
    3fa0:	aa 1f       	adc	r26, r26
    3fa2:	64 9f       	mul	r22, r20
    3fa4:	66 27       	eor	r22, r22
    3fa6:	b0 0d       	add	r27, r0
    3fa8:	a1 1d       	adc	r26, r1
    3faa:	66 1f       	adc	r22, r22
    3fac:	82 9f       	mul	r24, r18
    3fae:	22 27       	eor	r18, r18
    3fb0:	b0 0d       	add	r27, r0
    3fb2:	a1 1d       	adc	r26, r1
    3fb4:	62 1f       	adc	r22, r18
    3fb6:	73 9f       	mul	r23, r19
    3fb8:	b0 0d       	add	r27, r0
    3fba:	a1 1d       	adc	r26, r1
    3fbc:	62 1f       	adc	r22, r18
    3fbe:	83 9f       	mul	r24, r19
    3fc0:	a0 0d       	add	r26, r0
    3fc2:	61 1d       	adc	r22, r1
    3fc4:	22 1f       	adc	r18, r18
    3fc6:	74 9f       	mul	r23, r20
    3fc8:	33 27       	eor	r19, r19
    3fca:	a0 0d       	add	r26, r0
    3fcc:	61 1d       	adc	r22, r1
    3fce:	23 1f       	adc	r18, r19
    3fd0:	84 9f       	mul	r24, r20
    3fd2:	60 0d       	add	r22, r0
    3fd4:	21 1d       	adc	r18, r1
    3fd6:	82 2f       	mov	r24, r18
    3fd8:	76 2f       	mov	r23, r22
    3fda:	6a 2f       	mov	r22, r26
    3fdc:	11 24       	eor	r1, r1
    3fde:	9f 57       	subi	r25, 0x7F	; 127
    3fe0:	50 40       	sbci	r21, 0x00	; 0
    3fe2:	8a f0       	brmi	.+34     	; 0x4006 <__mulsf3_pse+0x84>
    3fe4:	e1 f0       	breq	.+56     	; 0x401e <__mulsf3_pse+0x9c>
    3fe6:	88 23       	and	r24, r24
    3fe8:	4a f0       	brmi	.+18     	; 0x3ffc <__mulsf3_pse+0x7a>
    3fea:	ee 0f       	add	r30, r30
    3fec:	ff 1f       	adc	r31, r31
    3fee:	bb 1f       	adc	r27, r27
    3ff0:	66 1f       	adc	r22, r22
    3ff2:	77 1f       	adc	r23, r23
    3ff4:	88 1f       	adc	r24, r24
    3ff6:	91 50       	subi	r25, 0x01	; 1
    3ff8:	50 40       	sbci	r21, 0x00	; 0
    3ffa:	a9 f7       	brne	.-22     	; 0x3fe6 <__mulsf3_pse+0x64>
    3ffc:	9e 3f       	cpi	r25, 0xFE	; 254
    3ffe:	51 05       	cpc	r21, r1
    4000:	70 f0       	brcs	.+28     	; 0x401e <__mulsf3_pse+0x9c>
    4002:	8d ce       	rjmp	.-742    	; 0x3d1e <__fp_inf>
    4004:	3c cf       	rjmp	.-392    	; 0x3e7e <__fp_szero>
    4006:	5f 3f       	cpi	r21, 0xFF	; 255
    4008:	ec f3       	brlt	.-6      	; 0x4004 <__mulsf3_pse+0x82>
    400a:	98 3e       	cpi	r25, 0xE8	; 232
    400c:	dc f3       	brlt	.-10     	; 0x4004 <__mulsf3_pse+0x82>
    400e:	86 95       	lsr	r24
    4010:	77 95       	ror	r23
    4012:	67 95       	ror	r22
    4014:	b7 95       	ror	r27
    4016:	f7 95       	ror	r31
    4018:	e7 95       	ror	r30
    401a:	9f 5f       	subi	r25, 0xFF	; 255
    401c:	c1 f7       	brne	.-16     	; 0x400e <__mulsf3_pse+0x8c>
    401e:	fe 2b       	or	r31, r30
    4020:	88 0f       	add	r24, r24
    4022:	91 1d       	adc	r25, r1
    4024:	96 95       	lsr	r25
    4026:	87 95       	ror	r24
    4028:	97 f9       	bld	r25, 7
    402a:	08 95       	ret

0000402c <round>:
    402c:	f6 de       	rcall	.-532    	; 0x3e1a <__fp_splitA>
    402e:	e0 f0       	brcs	.+56     	; 0x4068 <round+0x3c>
    4030:	9e 37       	cpi	r25, 0x7E	; 126
    4032:	d8 f0       	brcs	.+54     	; 0x406a <round+0x3e>
    4034:	96 39       	cpi	r25, 0x96	; 150
    4036:	b8 f4       	brcc	.+46     	; 0x4066 <round+0x3a>
    4038:	9e 38       	cpi	r25, 0x8E	; 142
    403a:	48 f4       	brcc	.+18     	; 0x404e <round+0x22>
    403c:	67 2f       	mov	r22, r23
    403e:	78 2f       	mov	r23, r24
    4040:	88 27       	eor	r24, r24
    4042:	98 5f       	subi	r25, 0xF8	; 248
    4044:	f9 cf       	rjmp	.-14     	; 0x4038 <round+0xc>
    4046:	86 95       	lsr	r24
    4048:	77 95       	ror	r23
    404a:	67 95       	ror	r22
    404c:	93 95       	inc	r25
    404e:	95 39       	cpi	r25, 0x95	; 149
    4050:	d0 f3       	brcs	.-12     	; 0x4046 <round+0x1a>
    4052:	b6 2f       	mov	r27, r22
    4054:	b1 70       	andi	r27, 0x01	; 1
    4056:	6b 0f       	add	r22, r27
    4058:	71 1d       	adc	r23, r1
    405a:	81 1d       	adc	r24, r1
    405c:	20 f4       	brcc	.+8      	; 0x4066 <round+0x3a>
    405e:	87 95       	ror	r24
    4060:	77 95       	ror	r23
    4062:	67 95       	ror	r22
    4064:	93 95       	inc	r25
    4066:	61 ce       	rjmp	.-830    	; 0x3d2a <__fp_mintl>
    4068:	7b ce       	rjmp	.-778    	; 0x3d60 <__fp_mpack>
    406a:	09 cf       	rjmp	.-494    	; 0x3e7e <__fp_szero>
    406c:	11 f4       	brne	.+4      	; 0x4072 <round+0x46>
    406e:	0e f4       	brtc	.+2      	; 0x4072 <round+0x46>
    4070:	85 ce       	rjmp	.-758    	; 0x3d7c <__fp_nan>
    4072:	76 ce       	rjmp	.-788    	; 0x3d60 <__fp_mpack>

00004074 <sqrt>:
    4074:	d2 de       	rcall	.-604    	; 0x3e1a <__fp_splitA>
    4076:	d0 f3       	brcs	.-12     	; 0x406c <round+0x40>
    4078:	99 23       	and	r25, r25
    407a:	d9 f3       	breq	.-10     	; 0x4072 <round+0x46>
    407c:	ce f3       	brts	.-14     	; 0x4070 <round+0x44>
    407e:	9f 57       	subi	r25, 0x7F	; 127
    4080:	55 0b       	sbc	r21, r21
    4082:	87 ff       	sbrs	r24, 7
    4084:	3f d0       	rcall	.+126    	; 0x4104 <__fp_norm2>
    4086:	00 24       	eor	r0, r0
    4088:	a0 e6       	ldi	r26, 0x60	; 96
    408a:	40 ea       	ldi	r20, 0xA0	; 160
    408c:	90 01       	movw	r18, r0
    408e:	80 58       	subi	r24, 0x80	; 128
    4090:	56 95       	lsr	r21
    4092:	97 95       	ror	r25
    4094:	28 f4       	brcc	.+10     	; 0x40a0 <sqrt+0x2c>
    4096:	80 5c       	subi	r24, 0xC0	; 192
    4098:	66 0f       	add	r22, r22
    409a:	77 1f       	adc	r23, r23
    409c:	88 1f       	adc	r24, r24
    409e:	20 f0       	brcs	.+8      	; 0x40a8 <sqrt+0x34>
    40a0:	26 17       	cp	r18, r22
    40a2:	37 07       	cpc	r19, r23
    40a4:	48 07       	cpc	r20, r24
    40a6:	30 f4       	brcc	.+12     	; 0x40b4 <sqrt+0x40>
    40a8:	62 1b       	sub	r22, r18
    40aa:	73 0b       	sbc	r23, r19
    40ac:	84 0b       	sbc	r24, r20
    40ae:	20 29       	or	r18, r0
    40b0:	31 29       	or	r19, r1
    40b2:	4a 2b       	or	r20, r26
    40b4:	a6 95       	lsr	r26
    40b6:	17 94       	ror	r1
    40b8:	07 94       	ror	r0
    40ba:	20 25       	eor	r18, r0
    40bc:	31 25       	eor	r19, r1
    40be:	4a 27       	eor	r20, r26
    40c0:	58 f7       	brcc	.-42     	; 0x4098 <sqrt+0x24>
    40c2:	66 0f       	add	r22, r22
    40c4:	77 1f       	adc	r23, r23
    40c6:	88 1f       	adc	r24, r24
    40c8:	20 f0       	brcs	.+8      	; 0x40d2 <sqrt+0x5e>
    40ca:	26 17       	cp	r18, r22
    40cc:	37 07       	cpc	r19, r23
    40ce:	48 07       	cpc	r20, r24
    40d0:	30 f4       	brcc	.+12     	; 0x40de <sqrt+0x6a>
    40d2:	62 0b       	sbc	r22, r18
    40d4:	73 0b       	sbc	r23, r19
    40d6:	84 0b       	sbc	r24, r20
    40d8:	20 0d       	add	r18, r0
    40da:	31 1d       	adc	r19, r1
    40dc:	41 1d       	adc	r20, r1
    40de:	a0 95       	com	r26
    40e0:	81 f7       	brne	.-32     	; 0x40c2 <sqrt+0x4e>
    40e2:	b9 01       	movw	r22, r18
    40e4:	84 2f       	mov	r24, r20
    40e6:	91 58       	subi	r25, 0x81	; 129
    40e8:	88 0f       	add	r24, r24
    40ea:	96 95       	lsr	r25
    40ec:	87 95       	ror	r24
    40ee:	08 95       	ret

000040f0 <square>:
    40f0:	9b 01       	movw	r18, r22
    40f2:	ac 01       	movw	r20, r24
    40f4:	38 cf       	rjmp	.-400    	; 0x3f66 <__mulsf3>

000040f6 <trunc>:
    40f6:	ab de       	rcall	.-682    	; 0x3e4e <__fp_trunc>
    40f8:	20 f0       	brcs	.+8      	; 0x4102 <trunc+0xc>
    40fa:	9f 37       	cpi	r25, 0x7F	; 127
    40fc:	08 f4       	brcc	.+2      	; 0x4100 <trunc+0xa>
    40fe:	bf ce       	rjmp	.-642    	; 0x3e7e <__fp_szero>
    4100:	14 ce       	rjmp	.-984    	; 0x3d2a <__fp_mintl>
    4102:	2e ce       	rjmp	.-932    	; 0x3d60 <__fp_mpack>

00004104 <__fp_norm2>:
    4104:	91 50       	subi	r25, 0x01	; 1
    4106:	50 40       	sbci	r21, 0x00	; 0
    4108:	66 0f       	add	r22, r22
    410a:	77 1f       	adc	r23, r23
    410c:	88 1f       	adc	r24, r24
    410e:	d2 f7       	brpl	.-12     	; 0x4104 <__fp_norm2>
    4110:	08 95       	ret

00004112 <__mulsi3>:
    4112:	62 9f       	mul	r22, r18
    4114:	d0 01       	movw	r26, r0
    4116:	73 9f       	mul	r23, r19
    4118:	f0 01       	movw	r30, r0
    411a:	82 9f       	mul	r24, r18
    411c:	e0 0d       	add	r30, r0
    411e:	f1 1d       	adc	r31, r1
    4120:	64 9f       	mul	r22, r20
    4122:	e0 0d       	add	r30, r0
    4124:	f1 1d       	adc	r31, r1
    4126:	92 9f       	mul	r25, r18
    4128:	f0 0d       	add	r31, r0
    412a:	83 9f       	mul	r24, r19
    412c:	f0 0d       	add	r31, r0
    412e:	74 9f       	mul	r23, r20
    4130:	f0 0d       	add	r31, r0
    4132:	65 9f       	mul	r22, r21
    4134:	f0 0d       	add	r31, r0
    4136:	99 27       	eor	r25, r25
    4138:	72 9f       	mul	r23, r18
    413a:	b0 0d       	add	r27, r0
    413c:	e1 1d       	adc	r30, r1
    413e:	f9 1f       	adc	r31, r25
    4140:	63 9f       	mul	r22, r19
    4142:	b0 0d       	add	r27, r0
    4144:	e1 1d       	adc	r30, r1
    4146:	f9 1f       	adc	r31, r25
    4148:	bd 01       	movw	r22, r26
    414a:	cf 01       	movw	r24, r30
    414c:	11 24       	eor	r1, r1
    414e:	08 95       	ret

00004150 <__divmodhi4>:
    4150:	97 fb       	bst	r25, 7
    4152:	09 2e       	mov	r0, r25
    4154:	07 26       	eor	r0, r23
    4156:	0a d0       	rcall	.+20     	; 0x416c <__divmodhi4_neg1>
    4158:	77 fd       	sbrc	r23, 7
    415a:	04 d0       	rcall	.+8      	; 0x4164 <__divmodhi4_neg2>
    415c:	49 d0       	rcall	.+146    	; 0x41f0 <__udivmodhi4>
    415e:	06 d0       	rcall	.+12     	; 0x416c <__divmodhi4_neg1>
    4160:	00 20       	and	r0, r0
    4162:	1a f4       	brpl	.+6      	; 0x416a <__divmodhi4_exit>

00004164 <__divmodhi4_neg2>:
    4164:	70 95       	com	r23
    4166:	61 95       	neg	r22
    4168:	7f 4f       	sbci	r23, 0xFF	; 255

0000416a <__divmodhi4_exit>:
    416a:	08 95       	ret

0000416c <__divmodhi4_neg1>:
    416c:	f6 f7       	brtc	.-4      	; 0x416a <__divmodhi4_exit>
    416e:	90 95       	com	r25
    4170:	81 95       	neg	r24
    4172:	9f 4f       	sbci	r25, 0xFF	; 255
    4174:	08 95       	ret

00004176 <__udivmodsi4>:
    4176:	a1 e2       	ldi	r26, 0x21	; 33
    4178:	1a 2e       	mov	r1, r26
    417a:	aa 1b       	sub	r26, r26
    417c:	bb 1b       	sub	r27, r27
    417e:	fd 01       	movw	r30, r26
    4180:	0d c0       	rjmp	.+26     	; 0x419c <__udivmodsi4_ep>

00004182 <__udivmodsi4_loop>:
    4182:	aa 1f       	adc	r26, r26
    4184:	bb 1f       	adc	r27, r27
    4186:	ee 1f       	adc	r30, r30
    4188:	ff 1f       	adc	r31, r31
    418a:	a2 17       	cp	r26, r18
    418c:	b3 07       	cpc	r27, r19
    418e:	e4 07       	cpc	r30, r20
    4190:	f5 07       	cpc	r31, r21
    4192:	20 f0       	brcs	.+8      	; 0x419c <__udivmodsi4_ep>
    4194:	a2 1b       	sub	r26, r18
    4196:	b3 0b       	sbc	r27, r19
    4198:	e4 0b       	sbc	r30, r20
    419a:	f5 0b       	sbc	r31, r21

0000419c <__udivmodsi4_ep>:
    419c:	66 1f       	adc	r22, r22
    419e:	77 1f       	adc	r23, r23
    41a0:	88 1f       	adc	r24, r24
    41a2:	99 1f       	adc	r25, r25
    41a4:	1a 94       	dec	r1
    41a6:	69 f7       	brne	.-38     	; 0x4182 <__udivmodsi4_loop>
    41a8:	60 95       	com	r22
    41aa:	70 95       	com	r23
    41ac:	80 95       	com	r24
    41ae:	90 95       	com	r25
    41b0:	9b 01       	movw	r18, r22
    41b2:	ac 01       	movw	r20, r24
    41b4:	bd 01       	movw	r22, r26
    41b6:	cf 01       	movw	r24, r30
    41b8:	08 95       	ret

000041ba <__divmodsi4>:
    41ba:	97 fb       	bst	r25, 7
    41bc:	09 2e       	mov	r0, r25
    41be:	05 26       	eor	r0, r21
    41c0:	0e d0       	rcall	.+28     	; 0x41de <__divmodsi4_neg1>
    41c2:	57 fd       	sbrc	r21, 7
    41c4:	04 d0       	rcall	.+8      	; 0x41ce <__divmodsi4_neg2>
    41c6:	d7 df       	rcall	.-82     	; 0x4176 <__udivmodsi4>
    41c8:	0a d0       	rcall	.+20     	; 0x41de <__divmodsi4_neg1>
    41ca:	00 1c       	adc	r0, r0
    41cc:	38 f4       	brcc	.+14     	; 0x41dc <__divmodsi4_exit>

000041ce <__divmodsi4_neg2>:
    41ce:	50 95       	com	r21
    41d0:	40 95       	com	r20
    41d2:	30 95       	com	r19
    41d4:	21 95       	neg	r18
    41d6:	3f 4f       	sbci	r19, 0xFF	; 255
    41d8:	4f 4f       	sbci	r20, 0xFF	; 255
    41da:	5f 4f       	sbci	r21, 0xFF	; 255

000041dc <__divmodsi4_exit>:
    41dc:	08 95       	ret

000041de <__divmodsi4_neg1>:
    41de:	f6 f7       	brtc	.-4      	; 0x41dc <__divmodsi4_exit>
    41e0:	90 95       	com	r25
    41e2:	80 95       	com	r24
    41e4:	70 95       	com	r23
    41e6:	61 95       	neg	r22
    41e8:	7f 4f       	sbci	r23, 0xFF	; 255
    41ea:	8f 4f       	sbci	r24, 0xFF	; 255
    41ec:	9f 4f       	sbci	r25, 0xFF	; 255
    41ee:	08 95       	ret

000041f0 <__udivmodhi4>:
    41f0:	aa 1b       	sub	r26, r26
    41f2:	bb 1b       	sub	r27, r27
    41f4:	51 e1       	ldi	r21, 0x11	; 17
    41f6:	07 c0       	rjmp	.+14     	; 0x4206 <__udivmodhi4_ep>

000041f8 <__udivmodhi4_loop>:
    41f8:	aa 1f       	adc	r26, r26
    41fa:	bb 1f       	adc	r27, r27
    41fc:	a6 17       	cp	r26, r22
    41fe:	b7 07       	cpc	r27, r23
    4200:	10 f0       	brcs	.+4      	; 0x4206 <__udivmodhi4_ep>
    4202:	a6 1b       	sub	r26, r22
    4204:	b7 0b       	sbc	r27, r23

00004206 <__udivmodhi4_ep>:
    4206:	88 1f       	adc	r24, r24
    4208:	99 1f       	adc	r25, r25
    420a:	5a 95       	dec	r21
    420c:	a9 f7       	brne	.-22     	; 0x41f8 <__udivmodhi4_loop>
    420e:	80 95       	com	r24
    4210:	90 95       	com	r25
    4212:	bc 01       	movw	r22, r24
    4214:	cd 01       	movw	r24, r26
    4216:	08 95       	ret

00004218 <strtod>:
    4218:	8f 92       	push	r8
    421a:	9f 92       	push	r9
    421c:	af 92       	push	r10
    421e:	bf 92       	push	r11
    4220:	cf 92       	push	r12
    4222:	df 92       	push	r13
    4224:	ef 92       	push	r14
    4226:	ff 92       	push	r15
    4228:	0f 93       	push	r16
    422a:	1f 93       	push	r17
    422c:	cf 93       	push	r28
    422e:	df 93       	push	r29
    4230:	ec 01       	movw	r28, r24
    4232:	5b 01       	movw	r10, r22
    4234:	61 15       	cp	r22, r1
    4236:	71 05       	cpc	r23, r1
    4238:	19 f0       	breq	.+6      	; 0x4240 <strtod+0x28>
    423a:	fb 01       	movw	r30, r22
    423c:	91 83       	std	Z+1, r25	; 0x01
    423e:	80 83       	st	Z, r24
    4240:	f9 90       	ld	r15, Y+
    4242:	8f 2d       	mov	r24, r15
    4244:	90 e0       	ldi	r25, 0x00	; 0
    4246:	0e 94 7a 22 	call	0x44f4	; 0x44f4 <isspace>
    424a:	89 2b       	or	r24, r25
    424c:	c9 f7       	brne	.-14     	; 0x4240 <strtod+0x28>
    424e:	fd e2       	ldi	r31, 0x2D	; 45
    4250:	ff 16       	cp	r15, r31
    4252:	21 f4       	brne	.+8      	; 0x425c <strtod+0x44>
    4254:	f9 90       	ld	r15, Y+
    4256:	ee 24       	eor	r14, r14
    4258:	e3 94       	inc	r14
    425a:	05 c0       	rjmp	.+10     	; 0x4266 <strtod+0x4e>
    425c:	2b e2       	ldi	r18, 0x2B	; 43
    425e:	f2 16       	cp	r15, r18
    4260:	09 f4       	brne	.+2      	; 0x4264 <strtod+0x4c>
    4262:	f9 90       	ld	r15, Y+
    4264:	ee 24       	eor	r14, r14
    4266:	8e 01       	movw	r16, r28
    4268:	01 50       	subi	r16, 0x01	; 1
    426a:	10 40       	sbci	r17, 0x00	; 0
    426c:	c8 01       	movw	r24, r16
    426e:	6a ee       	ldi	r22, 0xEA	; 234
    4270:	74 e0       	ldi	r23, 0x04	; 4
    4272:	43 e0       	ldi	r20, 0x03	; 3
    4274:	50 e0       	ldi	r21, 0x00	; 0
    4276:	0e 94 82 22 	call	0x4504	; 0x4504 <strncasecmp_P>
    427a:	89 2b       	or	r24, r25
    427c:	01 f5       	brne	.+64     	; 0x42be <strtod+0xa6>
    427e:	8e 01       	movw	r16, r28
    4280:	0e 5f       	subi	r16, 0xFE	; 254
    4282:	1f 4f       	sbci	r17, 0xFF	; 255
    4284:	c8 01       	movw	r24, r16
    4286:	6d ee       	ldi	r22, 0xED	; 237
    4288:	74 e0       	ldi	r23, 0x04	; 4
    428a:	45 e0       	ldi	r20, 0x05	; 5
    428c:	50 e0       	ldi	r21, 0x00	; 0
    428e:	0e 94 82 22 	call	0x4504	; 0x4504 <strncasecmp_P>
    4292:	89 2b       	or	r24, r25
    4294:	19 f4       	brne	.+6      	; 0x429c <strtod+0x84>
    4296:	8e 01       	movw	r16, r28
    4298:	09 5f       	subi	r16, 0xF9	; 249
    429a:	1f 4f       	sbci	r17, 0xFF	; 255
    429c:	a1 14       	cp	r10, r1
    429e:	b1 04       	cpc	r11, r1
    42a0:	19 f0       	breq	.+6      	; 0x42a8 <strtod+0x90>
    42a2:	f5 01       	movw	r30, r10
    42a4:	11 83       	std	Z+1, r17	; 0x01
    42a6:	00 83       	st	Z, r16
    42a8:	e0 fc       	sbrc	r14, 0
    42aa:	04 c0       	rjmp	.+8      	; 0x42b4 <strtod+0x9c>
    42ac:	70 e0       	ldi	r23, 0x00	; 0
    42ae:	90 e0       	ldi	r25, 0x00	; 0
    42b0:	80 e8       	ldi	r24, 0x80	; 128
    42b2:	14 c0       	rjmp	.+40     	; 0x42dc <strtod+0xc4>
    42b4:	70 e0       	ldi	r23, 0x00	; 0
    42b6:	90 e0       	ldi	r25, 0x00	; 0
    42b8:	80 e8       	ldi	r24, 0x80	; 128
    42ba:	6f ef       	ldi	r22, 0xFF	; 255
    42bc:	08 c1       	rjmp	.+528    	; 0x44ce <strtod+0x2b6>
    42be:	c8 01       	movw	r24, r16
    42c0:	62 ef       	ldi	r22, 0xF2	; 242
    42c2:	74 e0       	ldi	r23, 0x04	; 4
    42c4:	43 e0       	ldi	r20, 0x03	; 3
    42c6:	50 e0       	ldi	r21, 0x00	; 0
    42c8:	0e 94 82 22 	call	0x4504	; 0x4504 <strncasecmp_P>
    42cc:	89 2b       	or	r24, r25
    42ce:	69 f4       	brne	.+26     	; 0x42ea <strtod+0xd2>
    42d0:	a1 14       	cp	r10, r1
    42d2:	b1 04       	cpc	r11, r1
    42d4:	29 f4       	brne	.+10     	; 0x42e0 <strtod+0xc8>
    42d6:	70 e0       	ldi	r23, 0x00	; 0
    42d8:	90 e0       	ldi	r25, 0x00	; 0
    42da:	80 ec       	ldi	r24, 0xC0	; 192
    42dc:	6f e7       	ldi	r22, 0x7F	; 127
    42de:	f7 c0       	rjmp	.+494    	; 0x44ce <strtod+0x2b6>
    42e0:	22 96       	adiw	r28, 0x02	; 2
    42e2:	f5 01       	movw	r30, r10
    42e4:	d1 83       	std	Z+1, r29	; 0x01
    42e6:	c0 83       	st	Z, r28
    42e8:	f6 cf       	rjmp	.-20     	; 0x42d6 <strtod+0xbe>
    42ea:	88 24       	eor	r8, r8
    42ec:	99 24       	eor	r9, r9
    42ee:	40 e0       	ldi	r20, 0x00	; 0
    42f0:	50 e0       	ldi	r21, 0x00	; 0
    42f2:	60 e0       	ldi	r22, 0x00	; 0
    42f4:	70 e0       	ldi	r23, 0x00	; 0
    42f6:	ef 2d       	mov	r30, r15
    42f8:	e0 53       	subi	r30, 0x30	; 48
    42fa:	ea 30       	cpi	r30, 0x0A	; 10
    42fc:	a0 f5       	brcc	.+104    	; 0x4366 <strtod+0x14e>
    42fe:	f2 e0       	ldi	r31, 0x02	; 2
    4300:	ef 2a       	or	r14, r31
    4302:	8e 2d       	mov	r24, r14
    4304:	90 e0       	ldi	r25, 0x00	; 0
    4306:	9c 01       	movw	r18, r24
    4308:	28 70       	andi	r18, 0x08	; 8
    430a:	30 70       	andi	r19, 0x00	; 0
    430c:	e2 fe       	sbrs	r14, 2
    430e:	06 c0       	rjmp	.+12     	; 0x431c <strtod+0x104>
    4310:	23 2b       	or	r18, r19
    4312:	79 f5       	brne	.+94     	; 0x4372 <strtod+0x15a>
    4314:	08 94       	sec
    4316:	81 1c       	adc	r8, r1
    4318:	91 1c       	adc	r9, r1
    431a:	2b c0       	rjmp	.+86     	; 0x4372 <strtod+0x15a>
    431c:	23 2b       	or	r18, r19
    431e:	19 f0       	breq	.+6      	; 0x4326 <strtod+0x10e>
    4320:	08 94       	sec
    4322:	81 08       	sbc	r8, r1
    4324:	91 08       	sbc	r9, r1
    4326:	db 01       	movw	r26, r22
    4328:	ca 01       	movw	r24, r20
    432a:	12 e0       	ldi	r17, 0x02	; 2
    432c:	88 0f       	add	r24, r24
    432e:	99 1f       	adc	r25, r25
    4330:	aa 1f       	adc	r26, r26
    4332:	bb 1f       	adc	r27, r27
    4334:	1a 95       	dec	r17
    4336:	d1 f7       	brne	.-12     	; 0x432c <strtod+0x114>
    4338:	48 0f       	add	r20, r24
    433a:	59 1f       	adc	r21, r25
    433c:	6a 1f       	adc	r22, r26
    433e:	7b 1f       	adc	r23, r27
    4340:	44 0f       	add	r20, r20
    4342:	55 1f       	adc	r21, r21
    4344:	66 1f       	adc	r22, r22
    4346:	77 1f       	adc	r23, r23
    4348:	4e 0f       	add	r20, r30
    434a:	51 1d       	adc	r21, r1
    434c:	61 1d       	adc	r22, r1
    434e:	71 1d       	adc	r23, r1
    4350:	48 39       	cpi	r20, 0x98	; 152
    4352:	29 e9       	ldi	r18, 0x99	; 153
    4354:	52 07       	cpc	r21, r18
    4356:	29 e9       	ldi	r18, 0x99	; 153
    4358:	62 07       	cpc	r22, r18
    435a:	29 e1       	ldi	r18, 0x19	; 25
    435c:	72 07       	cpc	r23, r18
    435e:	48 f0       	brcs	.+18     	; 0x4372 <strtod+0x15a>
    4360:	84 e0       	ldi	r24, 0x04	; 4
    4362:	e8 2a       	or	r14, r24
    4364:	06 c0       	rjmp	.+12     	; 0x4372 <strtod+0x15a>
    4366:	ee 3f       	cpi	r30, 0xFE	; 254
    4368:	31 f4       	brne	.+12     	; 0x4376 <strtod+0x15e>
    436a:	e3 fc       	sbrc	r14, 3
    436c:	39 c0       	rjmp	.+114    	; 0x43e0 <strtod+0x1c8>
    436e:	98 e0       	ldi	r25, 0x08	; 8
    4370:	e9 2a       	or	r14, r25
    4372:	f9 90       	ld	r15, Y+
    4374:	c0 cf       	rjmp	.-128    	; 0x42f6 <strtod+0xde>
    4376:	e5 33       	cpi	r30, 0x35	; 53
    4378:	11 f0       	breq	.+4      	; 0x437e <strtod+0x166>
    437a:	e5 31       	cpi	r30, 0x15	; 21
    437c:	89 f5       	brne	.+98     	; 0x43e0 <strtod+0x1c8>
    437e:	29 91       	ld	r18, Y+
    4380:	2d 32       	cpi	r18, 0x2D	; 45
    4382:	19 f4       	brne	.+6      	; 0x438a <strtod+0x172>
    4384:	e0 e1       	ldi	r30, 0x10	; 16
    4386:	ee 2a       	or	r14, r30
    4388:	05 c0       	rjmp	.+10     	; 0x4394 <strtod+0x17c>
    438a:	2b 32       	cpi	r18, 0x2B	; 43
    438c:	19 f0       	breq	.+6      	; 0x4394 <strtod+0x17c>
    438e:	81 e0       	ldi	r24, 0x01	; 1
    4390:	90 e0       	ldi	r25, 0x00	; 0
    4392:	03 c0       	rjmp	.+6      	; 0x439a <strtod+0x182>
    4394:	29 91       	ld	r18, Y+
    4396:	82 e0       	ldi	r24, 0x02	; 2
    4398:	90 e0       	ldi	r25, 0x00	; 0
    439a:	e2 2f       	mov	r30, r18
    439c:	e0 53       	subi	r30, 0x30	; 48
    439e:	ea 30       	cpi	r30, 0x0A	; 10
    43a0:	18 f0       	brcs	.+6      	; 0x43a8 <strtod+0x190>
    43a2:	c8 1b       	sub	r28, r24
    43a4:	d9 0b       	sbc	r29, r25
    43a6:	1c c0       	rjmp	.+56     	; 0x43e0 <strtod+0x1c8>
    43a8:	20 e0       	ldi	r18, 0x00	; 0
    43aa:	30 e0       	ldi	r19, 0x00	; 0
    43ac:	fc e0       	ldi	r31, 0x0C	; 12
    43ae:	20 38       	cpi	r18, 0x80	; 128
    43b0:	3f 07       	cpc	r19, r31
    43b2:	5c f4       	brge	.+22     	; 0x43ca <strtod+0x1b2>
    43b4:	c9 01       	movw	r24, r18
    43b6:	88 0f       	add	r24, r24
    43b8:	99 1f       	adc	r25, r25
    43ba:	88 0f       	add	r24, r24
    43bc:	99 1f       	adc	r25, r25
    43be:	28 0f       	add	r18, r24
    43c0:	39 1f       	adc	r19, r25
    43c2:	22 0f       	add	r18, r18
    43c4:	33 1f       	adc	r19, r19
    43c6:	2e 0f       	add	r18, r30
    43c8:	31 1d       	adc	r19, r1
    43ca:	e9 91       	ld	r30, Y+
    43cc:	e0 53       	subi	r30, 0x30	; 48
    43ce:	ea 30       	cpi	r30, 0x0A	; 10
    43d0:	68 f3       	brcs	.-38     	; 0x43ac <strtod+0x194>
    43d2:	e4 fe       	sbrs	r14, 4
    43d4:	03 c0       	rjmp	.+6      	; 0x43dc <strtod+0x1c4>
    43d6:	30 95       	com	r19
    43d8:	21 95       	neg	r18
    43da:	3f 4f       	sbci	r19, 0xFF	; 255
    43dc:	82 0e       	add	r8, r18
    43de:	93 1e       	adc	r9, r19
    43e0:	ce 2c       	mov	r12, r14
    43e2:	dd 24       	eor	r13, r13
    43e4:	e1 fe       	sbrs	r14, 1
    43e6:	07 c0       	rjmp	.+14     	; 0x43f6 <strtod+0x1de>
    43e8:	a1 14       	cp	r10, r1
    43ea:	b1 04       	cpc	r11, r1
    43ec:	21 f0       	breq	.+8      	; 0x43f6 <strtod+0x1de>
    43ee:	21 97       	sbiw	r28, 0x01	; 1
    43f0:	f5 01       	movw	r30, r10
    43f2:	d1 83       	std	Z+1, r29	; 0x01
    43f4:	c0 83       	st	Z, r28
    43f6:	cb 01       	movw	r24, r22
    43f8:	ba 01       	movw	r22, r20
    43fa:	0e 94 1b 1e 	call	0x3c36	; 0x3c36 <__floatunsisf>
    43fe:	7b 01       	movw	r14, r22
    4400:	8c 01       	movw	r16, r24
    4402:	f3 e0       	ldi	r31, 0x03	; 3
    4404:	cf 22       	and	r12, r31
    4406:	dd 24       	eor	r13, r13
    4408:	23 e0       	ldi	r18, 0x03	; 3
    440a:	c2 16       	cp	r12, r18
    440c:	d1 04       	cpc	r13, r1
    440e:	21 f4       	brne	.+8      	; 0x4418 <strtod+0x200>
    4410:	17 fb       	bst	r17, 7
    4412:	10 95       	com	r17
    4414:	17 f9       	bld	r17, 7
    4416:	10 95       	com	r17
    4418:	57 01       	movw	r10, r14
    441a:	68 01       	movw	r12, r16
    441c:	c8 01       	movw	r24, r16
    441e:	b7 01       	movw	r22, r14
    4420:	20 e0       	ldi	r18, 0x00	; 0
    4422:	30 e0       	ldi	r19, 0x00	; 0
    4424:	40 e0       	ldi	r20, 0x00	; 0
    4426:	50 e0       	ldi	r21, 0x00	; 0
    4428:	0e 94 7e 1d 	call	0x3afc	; 0x3afc <__cmpsf2>
    442c:	88 23       	and	r24, r24
    442e:	09 f4       	brne	.+2      	; 0x4432 <strtod+0x21a>
    4430:	4a c0       	rjmp	.+148    	; 0x44c6 <strtod+0x2ae>
    4432:	97 fe       	sbrs	r9, 7
    4434:	0d c0       	rjmp	.+26     	; 0x4450 <strtod+0x238>
    4436:	29 e0       	ldi	r18, 0x09	; 9
    4438:	e2 2e       	mov	r14, r18
    443a:	25 e0       	ldi	r18, 0x05	; 5
    443c:	f2 2e       	mov	r15, r18
    443e:	90 94       	com	r9
    4440:	81 94       	neg	r8
    4442:	91 08       	sbc	r9, r1
    4444:	93 94       	inc	r9
    4446:	c0 e2       	ldi	r28, 0x20	; 32
    4448:	d0 e0       	ldi	r29, 0x00	; 0
    444a:	00 e0       	ldi	r16, 0x00	; 0
    444c:	10 e0       	ldi	r17, 0x00	; 0
    444e:	12 c0       	rjmp	.+36     	; 0x4474 <strtod+0x25c>
    4450:	91 e2       	ldi	r25, 0x21	; 33
    4452:	e9 2e       	mov	r14, r25
    4454:	95 e0       	ldi	r25, 0x05	; 5
    4456:	f9 2e       	mov	r15, r25
    4458:	f6 cf       	rjmp	.-20     	; 0x4446 <strtod+0x22e>
    445a:	f7 01       	movw	r30, r14
    445c:	25 91       	lpm	r18, Z+
    445e:	35 91       	lpm	r19, Z+
    4460:	45 91       	lpm	r20, Z+
    4462:	54 91       	lpm	r21, Z+
    4464:	c6 01       	movw	r24, r12
    4466:	b5 01       	movw	r22, r10
    4468:	0e 94 b3 1f 	call	0x3f66	; 0x3f66 <__mulsf3>
    446c:	5b 01       	movw	r10, r22
    446e:	6c 01       	movw	r12, r24
    4470:	8c 1a       	sub	r8, r28
    4472:	9d 0a       	sbc	r9, r29
    4474:	8c 16       	cp	r8, r28
    4476:	9d 06       	cpc	r9, r29
    4478:	84 f7       	brge	.-32     	; 0x445a <strtod+0x242>
    447a:	d5 95       	asr	r29
    447c:	c7 95       	ror	r28
    447e:	0f 5f       	subi	r16, 0xFF	; 255
    4480:	1f 4f       	sbci	r17, 0xFF	; 255
    4482:	06 30       	cpi	r16, 0x06	; 6
    4484:	11 05       	cpc	r17, r1
    4486:	29 f0       	breq	.+10     	; 0x4492 <strtod+0x27a>
    4488:	8c ef       	ldi	r24, 0xFC	; 252
    448a:	9f ef       	ldi	r25, 0xFF	; 255
    448c:	e8 0e       	add	r14, r24
    448e:	f9 1e       	adc	r15, r25
    4490:	f1 cf       	rjmp	.-30     	; 0x4474 <strtod+0x25c>
    4492:	c5 01       	movw	r24, r10
    4494:	d6 01       	movw	r26, r12
    4496:	7c 01       	movw	r14, r24
    4498:	8d 01       	movw	r16, r26
    449a:	8c 2d       	mov	r24, r12
    449c:	88 0f       	add	r24, r24
    449e:	8d 2d       	mov	r24, r13
    44a0:	88 1f       	adc	r24, r24
    44a2:	8f 3f       	cpi	r24, 0xFF	; 255
    44a4:	51 f0       	breq	.+20     	; 0x44ba <strtod+0x2a2>
    44a6:	c6 01       	movw	r24, r12
    44a8:	b5 01       	movw	r22, r10
    44aa:	20 e0       	ldi	r18, 0x00	; 0
    44ac:	30 e0       	ldi	r19, 0x00	; 0
    44ae:	40 e0       	ldi	r20, 0x00	; 0
    44b0:	50 e0       	ldi	r21, 0x00	; 0
    44b2:	0e 94 7e 1d 	call	0x3afc	; 0x3afc <__cmpsf2>
    44b6:	88 23       	and	r24, r24
    44b8:	31 f4       	brne	.+12     	; 0x44c6 <strtod+0x2ae>
    44ba:	82 e2       	ldi	r24, 0x22	; 34
    44bc:	90 e0       	ldi	r25, 0x00	; 0
    44be:	90 93 9c 06 	sts	0x069C, r25
    44c2:	80 93 9b 06 	sts	0x069B, r24
    44c6:	7e 2d       	mov	r23, r14
    44c8:	9f 2d       	mov	r25, r15
    44ca:	80 2f       	mov	r24, r16
    44cc:	61 2f       	mov	r22, r17
    44ce:	27 2f       	mov	r18, r23
    44d0:	39 2f       	mov	r19, r25
    44d2:	48 2f       	mov	r20, r24
    44d4:	56 2f       	mov	r21, r22
    44d6:	b9 01       	movw	r22, r18
    44d8:	ca 01       	movw	r24, r20
    44da:	df 91       	pop	r29
    44dc:	cf 91       	pop	r28
    44de:	1f 91       	pop	r17
    44e0:	0f 91       	pop	r16
    44e2:	ff 90       	pop	r15
    44e4:	ef 90       	pop	r14
    44e6:	df 90       	pop	r13
    44e8:	cf 90       	pop	r12
    44ea:	bf 90       	pop	r11
    44ec:	af 90       	pop	r10
    44ee:	9f 90       	pop	r9
    44f0:	8f 90       	pop	r8
    44f2:	08 95       	ret

000044f4 <isspace>:
    44f4:	91 11       	cpse	r25, r1
    44f6:	1e c0       	rjmp	.+60     	; 0x4534 <__ctype_isfalse>
    44f8:	80 32       	cpi	r24, 0x20	; 32
    44fa:	19 f0       	breq	.+6      	; 0x4502 <isspace+0xe>
    44fc:	89 50       	subi	r24, 0x09	; 9
    44fe:	85 50       	subi	r24, 0x05	; 5
    4500:	d0 f7       	brcc	.-12     	; 0x44f6 <isspace+0x2>
    4502:	08 95       	ret

00004504 <strncasecmp_P>:
    4504:	fb 01       	movw	r30, r22
    4506:	dc 01       	movw	r26, r24
    4508:	41 50       	subi	r20, 0x01	; 1
    450a:	50 40       	sbci	r21, 0x00	; 0
    450c:	88 f0       	brcs	.+34     	; 0x4530 <strncasecmp_P+0x2c>
    450e:	8d 91       	ld	r24, X+
    4510:	81 34       	cpi	r24, 0x41	; 65
    4512:	1c f0       	brlt	.+6      	; 0x451a <strncasecmp_P+0x16>
    4514:	8b 35       	cpi	r24, 0x5B	; 91
    4516:	0c f4       	brge	.+2      	; 0x451a <strncasecmp_P+0x16>
    4518:	80 5e       	subi	r24, 0xE0	; 224
    451a:	65 91       	lpm	r22, Z+
    451c:	61 34       	cpi	r22, 0x41	; 65
    451e:	1c f0       	brlt	.+6      	; 0x4526 <strncasecmp_P+0x22>
    4520:	6b 35       	cpi	r22, 0x5B	; 91
    4522:	0c f4       	brge	.+2      	; 0x4526 <strncasecmp_P+0x22>
    4524:	60 5e       	subi	r22, 0xE0	; 224
    4526:	86 1b       	sub	r24, r22
    4528:	61 11       	cpse	r22, r1
    452a:	71 f3       	breq	.-36     	; 0x4508 <strncasecmp_P+0x4>
    452c:	99 0b       	sbc	r25, r25
    452e:	08 95       	ret
    4530:	88 1b       	sub	r24, r24
    4532:	fc cf       	rjmp	.-8      	; 0x452c <strncasecmp_P+0x28>

00004534 <__ctype_isfalse>:
    4534:	99 27       	eor	r25, r25
    4536:	88 27       	eor	r24, r24

00004538 <__ctype_istrue>:
    4538:	08 95       	ret

0000453a <_exit>:
    453a:	f8 94       	cli

0000453c <__stop_program>:
    453c:	ff cf       	rjmp	.-2      	; 0x453c <__stop_program>
