
leds.elf:     file format elf32-avr

Sections:
Idx Name          Size      VMA       LMA       File off  Algn
  0 .text         00000f86  00000000  00000000  00000094  2**1
                  CONTENTS, ALLOC, LOAD, READONLY, CODE
  1 .data         00000000  00802000  00000f86  0000101a  2**0
                  CONTENTS, ALLOC, LOAD, DATA
  2 .bss          00000129  00802000  00802000  0000101a  2**0
                  ALLOC
  3 .stab         0000333c  00000000  00000000  0000101c  2**2
                  CONTENTS, READONLY, DEBUGGING
  4 .stabstr      00000cd1  00000000  00000000  00004358  2**0
                  CONTENTS, READONLY, DEBUGGING
  5 .comment      0000002f  00000000  00000000  00005029  2**0
                  CONTENTS, READONLY

Disassembly of section .text:

00000000 <__vectors>:
   0:	0c 94 21 01 	jmp	0x242	; 0x242 <__ctors_end>
   4:	0c 94 33 01 	jmp	0x266	; 0x266 <__bad_interrupt>
   8:	0c 94 33 01 	jmp	0x266	; 0x266 <__bad_interrupt>
   c:	0c 94 33 01 	jmp	0x266	; 0x266 <__bad_interrupt>
  10:	0c 94 33 01 	jmp	0x266	; 0x266 <__bad_interrupt>
  14:	0c 94 33 01 	jmp	0x266	; 0x266 <__bad_interrupt>
  18:	0c 94 33 01 	jmp	0x266	; 0x266 <__bad_interrupt>
  1c:	0c 94 33 01 	jmp	0x266	; 0x266 <__bad_interrupt>
  20:	0c 94 33 01 	jmp	0x266	; 0x266 <__bad_interrupt>
  24:	0c 94 33 01 	jmp	0x266	; 0x266 <__bad_interrupt>
  28:	0c 94 33 01 	jmp	0x266	; 0x266 <__bad_interrupt>
  2c:	0c 94 33 01 	jmp	0x266	; 0x266 <__bad_interrupt>
  30:	0c 94 33 01 	jmp	0x266	; 0x266 <__bad_interrupt>
  34:	0c 94 33 01 	jmp	0x266	; 0x266 <__bad_interrupt>
  38:	0c 94 35 01 	jmp	0x26a	; 0x26a <__vector_14>
  3c:	0c 94 33 01 	jmp	0x266	; 0x266 <__bad_interrupt>
  40:	0c 94 33 01 	jmp	0x266	; 0x266 <__bad_interrupt>
  44:	0c 94 33 01 	jmp	0x266	; 0x266 <__bad_interrupt>
  48:	0c 94 33 01 	jmp	0x266	; 0x266 <__bad_interrupt>
  4c:	0c 94 33 01 	jmp	0x266	; 0x266 <__bad_interrupt>
  50:	0c 94 33 01 	jmp	0x266	; 0x266 <__bad_interrupt>
  54:	0c 94 33 01 	jmp	0x266	; 0x266 <__bad_interrupt>
  58:	0c 94 33 01 	jmp	0x266	; 0x266 <__bad_interrupt>
  5c:	0c 94 33 01 	jmp	0x266	; 0x266 <__bad_interrupt>
  60:	0c 94 33 01 	jmp	0x266	; 0x266 <__bad_interrupt>
  64:	0c 94 33 01 	jmp	0x266	; 0x266 <__bad_interrupt>
  68:	0c 94 33 01 	jmp	0x266	; 0x266 <__bad_interrupt>
  6c:	0c 94 33 01 	jmp	0x266	; 0x266 <__bad_interrupt>
  70:	0c 94 33 01 	jmp	0x266	; 0x266 <__bad_interrupt>
  74:	0c 94 33 01 	jmp	0x266	; 0x266 <__bad_interrupt>
  78:	0c 94 33 01 	jmp	0x266	; 0x266 <__bad_interrupt>
  7c:	0c 94 33 01 	jmp	0x266	; 0x266 <__bad_interrupt>
  80:	0c 94 33 01 	jmp	0x266	; 0x266 <__bad_interrupt>
  84:	0c 94 33 01 	jmp	0x266	; 0x266 <__bad_interrupt>
  88:	0c 94 33 01 	jmp	0x266	; 0x266 <__bad_interrupt>
  8c:	0c 94 33 01 	jmp	0x266	; 0x266 <__bad_interrupt>
  90:	0c 94 33 01 	jmp	0x266	; 0x266 <__bad_interrupt>
  94:	0c 94 33 01 	jmp	0x266	; 0x266 <__bad_interrupt>
  98:	0c 94 33 01 	jmp	0x266	; 0x266 <__bad_interrupt>
  9c:	0c 94 33 01 	jmp	0x266	; 0x266 <__bad_interrupt>
  a0:	0c 94 33 01 	jmp	0x266	; 0x266 <__bad_interrupt>
  a4:	0c 94 33 01 	jmp	0x266	; 0x266 <__bad_interrupt>
  a8:	0c 94 33 01 	jmp	0x266	; 0x266 <__bad_interrupt>
  ac:	0c 94 33 01 	jmp	0x266	; 0x266 <__bad_interrupt>
  b0:	0c 94 33 01 	jmp	0x266	; 0x266 <__bad_interrupt>
  b4:	0c 94 33 01 	jmp	0x266	; 0x266 <__bad_interrupt>
  b8:	0c 94 33 01 	jmp	0x266	; 0x266 <__bad_interrupt>
  bc:	0c 94 33 01 	jmp	0x266	; 0x266 <__bad_interrupt>
  c0:	0c 94 33 01 	jmp	0x266	; 0x266 <__bad_interrupt>
  c4:	0c 94 33 01 	jmp	0x266	; 0x266 <__bad_interrupt>
  c8:	0c 94 33 01 	jmp	0x266	; 0x266 <__bad_interrupt>
  cc:	0c 94 33 01 	jmp	0x266	; 0x266 <__bad_interrupt>
  d0:	0c 94 33 01 	jmp	0x266	; 0x266 <__bad_interrupt>
  d4:	0c 94 33 01 	jmp	0x266	; 0x266 <__bad_interrupt>
  d8:	0c 94 33 01 	jmp	0x266	; 0x266 <__bad_interrupt>
  dc:	0c 94 33 01 	jmp	0x266	; 0x266 <__bad_interrupt>
  e0:	0c 94 33 01 	jmp	0x266	; 0x266 <__bad_interrupt>
  e4:	0c 94 33 01 	jmp	0x266	; 0x266 <__bad_interrupt>
  e8:	0c 94 33 01 	jmp	0x266	; 0x266 <__bad_interrupt>
  ec:	0c 94 33 01 	jmp	0x266	; 0x266 <__bad_interrupt>
  f0:	0c 94 33 01 	jmp	0x266	; 0x266 <__bad_interrupt>
  f4:	0c 94 33 01 	jmp	0x266	; 0x266 <__bad_interrupt>
  f8:	0c 94 33 01 	jmp	0x266	; 0x266 <__bad_interrupt>
  fc:	0c 94 33 01 	jmp	0x266	; 0x266 <__bad_interrupt>
 100:	0c 94 33 01 	jmp	0x266	; 0x266 <__bad_interrupt>
 104:	0c 94 33 01 	jmp	0x266	; 0x266 <__bad_interrupt>
 108:	0c 94 33 01 	jmp	0x266	; 0x266 <__bad_interrupt>
 10c:	0c 94 33 01 	jmp	0x266	; 0x266 <__bad_interrupt>
 110:	0c 94 33 01 	jmp	0x266	; 0x266 <__bad_interrupt>
 114:	0c 94 33 01 	jmp	0x266	; 0x266 <__bad_interrupt>
 118:	0c 94 33 01 	jmp	0x266	; 0x266 <__bad_interrupt>
 11c:	0c 94 33 01 	jmp	0x266	; 0x266 <__bad_interrupt>
 120:	0c 94 33 01 	jmp	0x266	; 0x266 <__bad_interrupt>
 124:	0c 94 33 01 	jmp	0x266	; 0x266 <__bad_interrupt>
 128:	0c 94 33 01 	jmp	0x266	; 0x266 <__bad_interrupt>
 12c:	0c 94 33 01 	jmp	0x266	; 0x266 <__bad_interrupt>
 130:	0c 94 33 01 	jmp	0x266	; 0x266 <__bad_interrupt>
 134:	0c 94 33 01 	jmp	0x266	; 0x266 <__bad_interrupt>
 138:	0c 94 33 01 	jmp	0x266	; 0x266 <__bad_interrupt>
 13c:	0c 94 33 01 	jmp	0x266	; 0x266 <__bad_interrupt>
 140:	0c 94 33 01 	jmp	0x266	; 0x266 <__bad_interrupt>
 144:	0c 94 33 01 	jmp	0x266	; 0x266 <__bad_interrupt>
 148:	0c 94 33 01 	jmp	0x266	; 0x266 <__bad_interrupt>
 14c:	0c 94 33 01 	jmp	0x266	; 0x266 <__bad_interrupt>
 150:	0c 94 33 01 	jmp	0x266	; 0x266 <__bad_interrupt>
 154:	0c 94 33 01 	jmp	0x266	; 0x266 <__bad_interrupt>
 158:	0c 94 33 01 	jmp	0x266	; 0x266 <__bad_interrupt>
 15c:	0c 94 33 01 	jmp	0x266	; 0x266 <__bad_interrupt>
 160:	0c 94 33 01 	jmp	0x266	; 0x266 <__bad_interrupt>
 164:	0c 94 33 01 	jmp	0x266	; 0x266 <__bad_interrupt>
 168:	0c 94 33 01 	jmp	0x266	; 0x266 <__bad_interrupt>
 16c:	0c 94 33 01 	jmp	0x266	; 0x266 <__bad_interrupt>
 170:	0c 94 33 01 	jmp	0x266	; 0x266 <__bad_interrupt>
 174:	0c 94 33 01 	jmp	0x266	; 0x266 <__bad_interrupt>
 178:	0c 94 33 01 	jmp	0x266	; 0x266 <__bad_interrupt>
 17c:	0c 94 33 01 	jmp	0x266	; 0x266 <__bad_interrupt>
 180:	0c 94 33 01 	jmp	0x266	; 0x266 <__bad_interrupt>
 184:	0c 94 33 01 	jmp	0x266	; 0x266 <__bad_interrupt>
 188:	0c 94 33 01 	jmp	0x266	; 0x266 <__bad_interrupt>
 18c:	0c 94 33 01 	jmp	0x266	; 0x266 <__bad_interrupt>
 190:	0c 94 33 01 	jmp	0x266	; 0x266 <__bad_interrupt>
 194:	0c 94 33 01 	jmp	0x266	; 0x266 <__bad_interrupt>
 198:	0c 94 33 01 	jmp	0x266	; 0x266 <__bad_interrupt>
 19c:	0c 94 33 01 	jmp	0x266	; 0x266 <__bad_interrupt>
 1a0:	0c 94 33 01 	jmp	0x266	; 0x266 <__bad_interrupt>
 1a4:	0c 94 33 01 	jmp	0x266	; 0x266 <__bad_interrupt>
 1a8:	0c 94 33 01 	jmp	0x266	; 0x266 <__bad_interrupt>
 1ac:	0c 94 33 01 	jmp	0x266	; 0x266 <__bad_interrupt>
 1b0:	0c 94 33 01 	jmp	0x266	; 0x266 <__bad_interrupt>
 1b4:	0c 94 33 01 	jmp	0x266	; 0x266 <__bad_interrupt>
 1b8:	0c 94 33 01 	jmp	0x266	; 0x266 <__bad_interrupt>
 1bc:	0c 94 33 01 	jmp	0x266	; 0x266 <__bad_interrupt>
 1c0:	0c 94 33 01 	jmp	0x266	; 0x266 <__bad_interrupt>
 1c4:	0c 94 33 01 	jmp	0x266	; 0x266 <__bad_interrupt>
 1c8:	0c 94 33 01 	jmp	0x266	; 0x266 <__bad_interrupt>
 1cc:	0c 94 33 01 	jmp	0x266	; 0x266 <__bad_interrupt>
 1d0:	0c 94 33 01 	jmp	0x266	; 0x266 <__bad_interrupt>
 1d4:	0c 94 33 01 	jmp	0x266	; 0x266 <__bad_interrupt>
 1d8:	0c 94 33 01 	jmp	0x266	; 0x266 <__bad_interrupt>
 1dc:	0c 94 33 01 	jmp	0x266	; 0x266 <__bad_interrupt>
 1e0:	0c 94 33 01 	jmp	0x266	; 0x266 <__bad_interrupt>
 1e4:	0c 94 33 01 	jmp	0x266	; 0x266 <__bad_interrupt>
 1e8:	0c 94 33 01 	jmp	0x266	; 0x266 <__bad_interrupt>
 1ec:	0c 94 33 01 	jmp	0x266	; 0x266 <__bad_interrupt>
 1f0:	0c 94 33 01 	jmp	0x266	; 0x266 <__bad_interrupt>
 1f4:	0c 94 33 01 	jmp	0x266	; 0x266 <__bad_interrupt>
 1f8:	0c 94 33 01 	jmp	0x266	; 0x266 <__bad_interrupt>
 1fc:	07 63       	ori	r16, 0x37	; 55
 1fe:	42 36       	cpi	r20, 0x62	; 98
 200:	b7 9b       	sbis	0x16, 7	; 22
 202:	d8 a7       	std	Y+40, r29	; 0x28
 204:	1a 39       	cpi	r17, 0x9A	; 154
 206:	68 56       	subi	r22, 0x68	; 104
 208:	18 ae       	std	Y+56, r1	; 0x38
 20a:	ba ab       	std	Y+50, r27	; 0x32
 20c:	55 8c       	ldd	r5, Z+29	; 0x1d
 20e:	1d 3c       	cpi	r17, 0xCD	; 205
 210:	b7 cc       	rjmp	.-1682   	; 0xfffffb80 <__eeprom_end+0xff7efb80>
 212:	57 63       	ori	r21, 0x37	; 55
 214:	bd 6d       	ori	r27, 0xDD	; 221
 216:	ed fd       	.word	0xfded	; ????
 218:	75 3e       	cpi	r23, 0xE5	; 229
 21a:	f6 17       	cp	r31, r22
 21c:	72 31       	cpi	r23, 0x12	; 18
 21e:	bf 00       	.word	0x00bf	; ????
 220:	00 00       	nop
 222:	80 3f       	cpi	r24, 0xF0	; 240
 224:	05 a8       	ldd	r0, Z+53	; 0x35
 226:	4c cd       	rjmp	.-1384   	; 0xfffffcc0 <__eeprom_end+0xff7efcc0>
 228:	b2 d4       	rcall	.+2404   	; 0xb8e <__floatsisf+0x68>
 22a:	4e b9       	out	0x0e, r20	; 14
 22c:	38 36       	cpi	r19, 0x68	; 104
 22e:	a9 02       	muls	r26, r25
 230:	0c 50       	subi	r16, 0x0C	; 12
 232:	b9 91       	ld	r27, Y+
 234:	86 88       	ldd	r8, Z+22	; 0x16
 236:	08 3c       	cpi	r16, 0xC8	; 200
 238:	a6 aa       	std	Z+54, r10	; 0x36
 23a:	aa 2a       	or	r10, r26
 23c:	be 00       	.word	0x00be	; ????
 23e:	00 00       	nop
 240:	80 3f       	cpi	r24, 0xF0	; 240

00000242 <__ctors_end>:
 242:	11 24       	eor	r1, r1
 244:	1f be       	out	0x3f, r1	; 63
 246:	cf ef       	ldi	r28, 0xFF	; 255
 248:	df e2       	ldi	r29, 0x2F	; 47
 24a:	de bf       	out	0x3e, r29	; 62
 24c:	cd bf       	out	0x3d, r28	; 61

0000024e <__do_clear_bss>:
 24e:	21 e2       	ldi	r18, 0x21	; 33
 250:	a0 e0       	ldi	r26, 0x00	; 0
 252:	b0 e2       	ldi	r27, 0x20	; 32
 254:	01 c0       	rjmp	.+2      	; 0x258 <.do_clear_bss_start>

00000256 <.do_clear_bss_loop>:
 256:	1d 92       	st	X+, r1

00000258 <.do_clear_bss_start>:
 258:	a9 32       	cpi	r26, 0x29	; 41
 25a:	b2 07       	cpc	r27, r18
 25c:	e1 f7       	brne	.-8      	; 0x256 <.do_clear_bss_loop>
 25e:	0e 94 84 01 	call	0x308	; 0x308 <main>
 262:	0c 94 c1 07 	jmp	0xf82	; 0xf82 <_exit>

00000266 <__bad_interrupt>:
 266:	0c 94 00 00 	jmp	0	; 0x0 <__vectors>

0000026a <__vector_14>:
 26a:	1f 92       	push	r1
 26c:	0f 92       	push	r0
 26e:	0f b6       	in	r0, 0x3f	; 63
 270:	0f 92       	push	r0
 272:	11 24       	eor	r1, r1
 274:	2f 93       	push	r18
 276:	5f 93       	push	r21
 278:	6f 93       	push	r22
 27a:	7f 93       	push	r23
 27c:	8f 93       	push	r24
 27e:	9f 93       	push	r25
 280:	af 93       	push	r26
 282:	bf 93       	push	r27
 284:	80 91 06 20 	lds	r24, 0x2006
 288:	90 91 07 20 	lds	r25, 0x2007
 28c:	01 96       	adiw	r24, 0x01	; 1
 28e:	88 3e       	cpi	r24, 0xE8	; 232
 290:	23 e0       	ldi	r18, 0x03	; 3
 292:	92 07       	cpc	r25, r18
 294:	29 f0       	breq	.+10     	; 0x2a0 <__vector_14+0x36>
 296:	80 93 06 20 	sts	0x2006, r24
 29a:	90 93 07 20 	sts	0x2007, r25
 29e:	11 c0       	rjmp	.+34     	; 0x2c2 <__vector_14+0x58>
 2a0:	10 92 06 20 	sts	0x2006, r1
 2a4:	10 92 07 20 	sts	0x2007, r1
 2a8:	80 91 04 20 	lds	r24, 0x2004
 2ac:	90 91 05 20 	lds	r25, 0x2005
 2b0:	01 96       	adiw	r24, 0x01	; 1
 2b2:	6d e0       	ldi	r22, 0x0D	; 13
 2b4:	70 e0       	ldi	r23, 0x00	; 0
 2b6:	0e 94 99 07 	call	0xf32	; 0xf32 <__divmodhi4>
 2ba:	80 93 04 20 	sts	0x2004, r24
 2be:	90 93 05 20 	sts	0x2005, r25
 2c2:	bf 91       	pop	r27
 2c4:	af 91       	pop	r26
 2c6:	9f 91       	pop	r25
 2c8:	8f 91       	pop	r24
 2ca:	7f 91       	pop	r23
 2cc:	6f 91       	pop	r22
 2ce:	5f 91       	pop	r21
 2d0:	2f 91       	pop	r18
 2d2:	0f 90       	pop	r0
 2d4:	0f be       	out	0x3f, r0	; 63
 2d6:	0f 90       	pop	r0
 2d8:	1f 90       	pop	r1
 2da:	18 95       	reti

000002dc <xmega_set_cpu_clock_to_8MHz>:
 2dc:	80 91 50 00 	lds	r24, 0x0050
 2e0:	82 60       	ori	r24, 0x02	; 2
 2e2:	80 93 50 00 	sts	0x0050, r24
 2e6:	80 91 51 00 	lds	r24, 0x0051
 2ea:	81 ff       	sbrs	r24, 1
 2ec:	fc cf       	rjmp	.-8      	; 0x2e6 <xmega_set_cpu_clock_to_8MHz+0xa>
 2ee:	98 ed       	ldi	r25, 0xD8	; 216
 2f0:	94 bf       	out	0x34, r25	; 52
 2f2:	8c e0       	ldi	r24, 0x0C	; 12
 2f4:	80 93 41 00 	sts	0x0041, r24
 2f8:	80 91 40 00 	lds	r24, 0x0040
 2fc:	88 7f       	andi	r24, 0xF8	; 248
 2fe:	81 60       	ori	r24, 0x01	; 1
 300:	94 bf       	out	0x34, r25	; 52
 302:	80 93 40 00 	sts	0x0040, r24
 306:	08 95       	ret

00000308 <main>:
 308:	cf 93       	push	r28
 30a:	df 93       	push	r29
 30c:	00 d0       	rcall	.+0      	; 0x30e <main+0x6>
 30e:	cd b7       	in	r28, 0x3d	; 61
 310:	de b7       	in	r29, 0x3e	; 62
 312:	0e 94 6e 01 	call	0x2dc	; 0x2dc <xmega_set_cpu_clock_to_8MHz>
 316:	88 e1       	ldi	r24, 0x18	; 24
 318:	80 93 70 00 	sts	0x0070, r24
 31c:	84 e7       	ldi	r24, 0x74	; 116
 31e:	80 93 73 00 	sts	0x0073, r24
 322:	8c e7       	ldi	r24, 0x7C	; 124
 324:	80 93 74 00 	sts	0x0074, r24
 328:	80 e6       	ldi	r24, 0x60	; 96
 32a:	80 93 75 00 	sts	0x0075, r24
 32e:	88 e7       	ldi	r24, 0x78	; 120
 330:	80 93 76 00 	sts	0x0076, r24
 334:	8f ef       	ldi	r24, 0xFF	; 255
 336:	80 93 60 06 	sts	0x0660, r24
 33a:	80 93 b0 00 	sts	0x00B0, r24
 33e:	10 92 70 06 	sts	0x0670, r1
 342:	10 92 69 06 	sts	0x0669, r1
 346:	10 92 6a 06 	sts	0x066A, r1
 34a:	10 92 64 06 	sts	0x0664, r1
 34e:	80 93 40 06 	sts	0x0640, r24
 352:	10 92 50 06 	sts	0x0650, r1
 356:	10 92 49 06 	sts	0x0649, r1
 35a:	10 92 4a 06 	sts	0x064A, r1
 35e:	10 92 44 06 	sts	0x0644, r1
 362:	80 91 44 06 	lds	r24, 0x0644
 366:	81 60       	ori	r24, 0x01	; 1
 368:	80 93 44 06 	sts	0x0644, r24
 36c:	80 91 50 06 	lds	r24, 0x0650
 370:	8e 7f       	andi	r24, 0xFE	; 254
 372:	80 93 50 06 	sts	0x0650, r24
 376:	84 e0       	ldi	r24, 0x04	; 4
 378:	80 93 a2 00 	sts	0x00A2, r24
 37c:	80 93 00 08 	sts	0x0800, r24
 380:	89 eb       	ldi	r24, 0xB9	; 185
 382:	90 e0       	ldi	r25, 0x00	; 0
 384:	80 93 26 08 	sts	0x0826, r24
 388:	90 93 27 08 	sts	0x0827, r25
 38c:	10 92 20 08 	sts	0x0820, r1
 390:	10 92 21 08 	sts	0x0821, r1
 394:	10 92 09 08 	sts	0x0809, r1
 398:	83 e0       	ldi	r24, 0x03	; 3
 39a:	80 93 06 08 	sts	0x0806, r24
 39e:	0e 94 5a 03 	call	0x6b4	; 0x6b4 <LED_Init>
 3a2:	2f ef       	ldi	r18, 0xFF	; 255
 3a4:	89 e6       	ldi	r24, 0x69	; 105
 3a6:	98 e1       	ldi	r25, 0x18	; 24
 3a8:	21 50       	subi	r18, 0x01	; 1
 3aa:	80 40       	sbci	r24, 0x00	; 0
 3ac:	90 40       	sbci	r25, 0x00	; 0
 3ae:	e1 f7       	brne	.-8      	; 0x3a8 <main+0xa0>
 3b0:	00 c0       	rjmp	.+0      	; 0x3b2 <main+0xaa>
 3b2:	00 00       	nop
 3b4:	80 91 44 06 	lds	r24, 0x0644
 3b8:	8d 7f       	andi	r24, 0xFD	; 253
 3ba:	80 93 44 06 	sts	0x0644, r24
 3be:	80 e0       	ldi	r24, 0x00	; 0
 3c0:	90 e0       	ldi	r25, 0x00	; 0
 3c2:	0e 94 0a 03 	call	0x614	; 0x614 <Clear>
 3c6:	88 e4       	ldi	r24, 0x48	; 72
 3c8:	90 e0       	ldi	r25, 0x00	; 0
 3ca:	0e 94 13 03 	call	0x626	; 0x626 <WriteLEDArray>
 3ce:	10 92 04 20 	sts	0x2004, r1
 3d2:	10 92 05 20 	sts	0x2005, r1
 3d6:	19 82       	std	Y+1, r1	; 0x01
 3d8:	1a 82       	std	Y+2, r1	; 0x02
 3da:	80 e0       	ldi	r24, 0x00	; 0
 3dc:	90 e0       	ldi	r25, 0x00	; 0
 3de:	0e 94 0a 03 	call	0x614	; 0x614 <Clear>
 3e2:	88 e4       	ldi	r24, 0x48	; 72
 3e4:	90 e0       	ldi	r25, 0x00	; 0
 3e6:	0e 94 13 03 	call	0x626	; 0x626 <WriteLEDArray>
 3ea:	80 e0       	ldi	r24, 0x00	; 0
 3ec:	90 e0       	ldi	r25, 0x00	; 0
 3ee:	0e 94 0a 03 	call	0x614	; 0x614 <Clear>
 3f2:	88 e4       	ldi	r24, 0x48	; 72
 3f4:	90 e0       	ldi	r25, 0x00	; 0
 3f6:	0e 94 13 03 	call	0x626	; 0x626 <WriteLEDArray>
 3fa:	80 e0       	ldi	r24, 0x00	; 0
 3fc:	90 e0       	ldi	r25, 0x00	; 0
 3fe:	0e 94 0a 03 	call	0x614	; 0x614 <Clear>
 402:	88 e4       	ldi	r24, 0x48	; 72
 404:	90 e0       	ldi	r25, 0x00	; 0
 406:	0e 94 13 03 	call	0x626	; 0x626 <WriteLEDArray>
 40a:	10 92 00 20 	sts	0x2000, r1
 40e:	10 92 01 20 	sts	0x2001, r1
 412:	10 92 02 20 	sts	0x2002, r1
 416:	10 92 03 20 	sts	0x2003, r1
 41a:	26 c0       	rjmp	.+76     	; 0x468 <main+0x160>
 41c:	97 01       	movw	r18, r14
 41e:	86 01       	movw	r16, r12
 420:	40 e0       	ldi	r20, 0x00	; 0
 422:	50 e0       	ldi	r21, 0x00	; 0
 424:	60 e0       	ldi	r22, 0x00	; 0
 426:	70 e0       	ldi	r23, 0x00	; 0
 428:	8f ef       	ldi	r24, 0xFF	; 255
 42a:	9f e0       	ldi	r25, 0x0F	; 15
 42c:	0e 94 9b 03 	call	0x736	; 0x736 <RGBscan>
 430:	8f ec       	ldi	r24, 0xCF	; 207
 432:	97 e0       	ldi	r25, 0x07	; 7
 434:	01 97       	sbiw	r24, 0x01	; 1
 436:	f1 f7       	brne	.-4      	; 0x434 <main+0x12c>
 438:	00 c0       	rjmp	.+0      	; 0x43a <main+0x132>
 43a:	00 00       	nop
 43c:	20 e0       	ldi	r18, 0x00	; 0
 43e:	30 e0       	ldi	r19, 0x00	; 0
 440:	40 e0       	ldi	r20, 0x00	; 0
 442:	5f e3       	ldi	r21, 0x3F	; 63
 444:	60 91 00 20 	lds	r22, 0x2000
 448:	70 91 01 20 	lds	r23, 0x2001
 44c:	80 91 02 20 	lds	r24, 0x2002
 450:	90 91 03 20 	lds	r25, 0x2003
 454:	0e 94 64 04 	call	0x8c8	; 0x8c8 <__addsf3>
 458:	60 93 00 20 	sts	0x2000, r22
 45c:	70 93 01 20 	sts	0x2001, r23
 460:	80 93 02 20 	sts	0x2002, r24
 464:	90 93 03 20 	sts	0x2003, r25
 468:	c0 90 00 20 	lds	r12, 0x2000
 46c:	d0 90 01 20 	lds	r13, 0x2001
 470:	e0 90 02 20 	lds	r14, 0x2002
 474:	f0 90 03 20 	lds	r15, 0x2003
 478:	20 e0       	ldi	r18, 0x00	; 0
 47a:	30 e0       	ldi	r19, 0x00	; 0
 47c:	44 eb       	ldi	r20, 0xB4	; 180
 47e:	53 e4       	ldi	r21, 0x43	; 67
 480:	c7 01       	movw	r24, r14
 482:	b6 01       	movw	r22, r12
 484:	0e 94 c8 04 	call	0x990	; 0x990 <__cmpsf2>
 488:	87 fd       	sbrc	r24, 7
 48a:	c8 cf       	rjmp	.-112    	; 0x41c <main+0x114>
 48c:	10 92 00 20 	sts	0x2000, r1
 490:	10 92 01 20 	sts	0x2001, r1
 494:	10 92 02 20 	sts	0x2002, r1
 498:	10 92 03 20 	sts	0x2003, r1
 49c:	26 c0       	rjmp	.+76     	; 0x4ea <main+0x1e2>
 49e:	97 01       	movw	r18, r14
 4a0:	86 01       	movw	r16, r12
 4a2:	40 e0       	ldi	r20, 0x00	; 0
 4a4:	50 e0       	ldi	r21, 0x00	; 0
 4a6:	6f ef       	ldi	r22, 0xFF	; 255
 4a8:	7f e0       	ldi	r23, 0x0F	; 15
 4aa:	80 e0       	ldi	r24, 0x00	; 0
 4ac:	90 e0       	ldi	r25, 0x00	; 0
 4ae:	0e 94 9b 03 	call	0x736	; 0x736 <RGBscan>
 4b2:	8f ec       	ldi	r24, 0xCF	; 207
 4b4:	97 e0       	ldi	r25, 0x07	; 7
 4b6:	01 97       	sbiw	r24, 0x01	; 1
 4b8:	f1 f7       	brne	.-4      	; 0x4b6 <main+0x1ae>
 4ba:	00 c0       	rjmp	.+0      	; 0x4bc <main+0x1b4>
 4bc:	00 00       	nop
 4be:	20 e0       	ldi	r18, 0x00	; 0
 4c0:	30 e0       	ldi	r19, 0x00	; 0
 4c2:	40 e0       	ldi	r20, 0x00	; 0
 4c4:	5f e3       	ldi	r21, 0x3F	; 63
 4c6:	60 91 00 20 	lds	r22, 0x2000
 4ca:	70 91 01 20 	lds	r23, 0x2001
 4ce:	80 91 02 20 	lds	r24, 0x2002
 4d2:	90 91 03 20 	lds	r25, 0x2003
 4d6:	0e 94 64 04 	call	0x8c8	; 0x8c8 <__addsf3>
 4da:	60 93 00 20 	sts	0x2000, r22
 4de:	70 93 01 20 	sts	0x2001, r23
 4e2:	80 93 02 20 	sts	0x2002, r24
 4e6:	90 93 03 20 	sts	0x2003, r25
 4ea:	c0 90 00 20 	lds	r12, 0x2000
 4ee:	d0 90 01 20 	lds	r13, 0x2001
 4f2:	e0 90 02 20 	lds	r14, 0x2002
 4f6:	f0 90 03 20 	lds	r15, 0x2003
 4fa:	20 e0       	ldi	r18, 0x00	; 0
 4fc:	30 e0       	ldi	r19, 0x00	; 0
 4fe:	44 eb       	ldi	r20, 0xB4	; 180
 500:	53 e4       	ldi	r21, 0x43	; 67
 502:	c7 01       	movw	r24, r14
 504:	b6 01       	movw	r22, r12
 506:	0e 94 c8 04 	call	0x990	; 0x990 <__cmpsf2>
 50a:	87 fd       	sbrc	r24, 7
 50c:	c8 cf       	rjmp	.-112    	; 0x49e <main+0x196>
 50e:	10 92 00 20 	sts	0x2000, r1
 512:	10 92 01 20 	sts	0x2001, r1
 516:	10 92 02 20 	sts	0x2002, r1
 51a:	10 92 03 20 	sts	0x2003, r1
 51e:	26 c0       	rjmp	.+76     	; 0x56c <main+0x264>
 520:	97 01       	movw	r18, r14
 522:	86 01       	movw	r16, r12
 524:	4f ef       	ldi	r20, 0xFF	; 255
 526:	5f e0       	ldi	r21, 0x0F	; 15
 528:	60 e0       	ldi	r22, 0x00	; 0
 52a:	70 e0       	ldi	r23, 0x00	; 0
 52c:	80 e0       	ldi	r24, 0x00	; 0
 52e:	90 e0       	ldi	r25, 0x00	; 0
 530:	0e 94 9b 03 	call	0x736	; 0x736 <RGBscan>
 534:	8f ec       	ldi	r24, 0xCF	; 207
 536:	97 e0       	ldi	r25, 0x07	; 7
 538:	01 97       	sbiw	r24, 0x01	; 1
 53a:	f1 f7       	brne	.-4      	; 0x538 <main+0x230>
 53c:	00 c0       	rjmp	.+0      	; 0x53e <main+0x236>
 53e:	00 00       	nop
 540:	20 e0       	ldi	r18, 0x00	; 0
 542:	30 e0       	ldi	r19, 0x00	; 0
 544:	40 e0       	ldi	r20, 0x00	; 0
 546:	5f e3       	ldi	r21, 0x3F	; 63
 548:	60 91 00 20 	lds	r22, 0x2000
 54c:	70 91 01 20 	lds	r23, 0x2001
 550:	80 91 02 20 	lds	r24, 0x2002
 554:	90 91 03 20 	lds	r25, 0x2003
 558:	0e 94 64 04 	call	0x8c8	; 0x8c8 <__addsf3>
 55c:	60 93 00 20 	sts	0x2000, r22
 560:	70 93 01 20 	sts	0x2001, r23
 564:	80 93 02 20 	sts	0x2002, r24
 568:	90 93 03 20 	sts	0x2003, r25
 56c:	c0 90 00 20 	lds	r12, 0x2000
 570:	d0 90 01 20 	lds	r13, 0x2001
 574:	e0 90 02 20 	lds	r14, 0x2002
 578:	f0 90 03 20 	lds	r15, 0x2003
 57c:	20 e0       	ldi	r18, 0x00	; 0
 57e:	30 e0       	ldi	r19, 0x00	; 0
 580:	44 eb       	ldi	r20, 0xB4	; 180
 582:	53 e4       	ldi	r21, 0x43	; 67
 584:	c7 01       	movw	r24, r14
 586:	b6 01       	movw	r22, r12
 588:	0e 94 c8 04 	call	0x990	; 0x990 <__cmpsf2>
 58c:	87 fd       	sbrc	r24, 7
 58e:	c8 cf       	rjmp	.-112    	; 0x520 <main+0x218>
 590:	10 92 00 20 	sts	0x2000, r1
 594:	10 92 01 20 	sts	0x2001, r1
 598:	10 92 02 20 	sts	0x2002, r1
 59c:	10 92 03 20 	sts	0x2003, r1
 5a0:	26 c0       	rjmp	.+76     	; 0x5ee <main+0x2e6>
 5a2:	97 01       	movw	r18, r14
 5a4:	86 01       	movw	r16, r12
 5a6:	4f ef       	ldi	r20, 0xFF	; 255
 5a8:	5f e0       	ldi	r21, 0x0F	; 15
 5aa:	65 e9       	ldi	r22, 0x95	; 149
 5ac:	71 e0       	ldi	r23, 0x01	; 1
 5ae:	8f ef       	ldi	r24, 0xFF	; 255
 5b0:	9f e0       	ldi	r25, 0x0F	; 15
 5b2:	0e 94 9b 03 	call	0x736	; 0x736 <RGBscan>
 5b6:	8f ec       	ldi	r24, 0xCF	; 207
 5b8:	97 e0       	ldi	r25, 0x07	; 7
 5ba:	01 97       	sbiw	r24, 0x01	; 1
 5bc:	f1 f7       	brne	.-4      	; 0x5ba <main+0x2b2>
 5be:	00 c0       	rjmp	.+0      	; 0x5c0 <main+0x2b8>
 5c0:	00 00       	nop
 5c2:	20 e0       	ldi	r18, 0x00	; 0
 5c4:	30 e0       	ldi	r19, 0x00	; 0
 5c6:	40 e0       	ldi	r20, 0x00	; 0
 5c8:	5f e3       	ldi	r21, 0x3F	; 63
 5ca:	60 91 00 20 	lds	r22, 0x2000
 5ce:	70 91 01 20 	lds	r23, 0x2001
 5d2:	80 91 02 20 	lds	r24, 0x2002
 5d6:	90 91 03 20 	lds	r25, 0x2003
 5da:	0e 94 64 04 	call	0x8c8	; 0x8c8 <__addsf3>
 5de:	60 93 00 20 	sts	0x2000, r22
 5e2:	70 93 01 20 	sts	0x2001, r23
 5e6:	80 93 02 20 	sts	0x2002, r24
 5ea:	90 93 03 20 	sts	0x2003, r25
 5ee:	c0 90 00 20 	lds	r12, 0x2000
 5f2:	d0 90 01 20 	lds	r13, 0x2001
 5f6:	e0 90 02 20 	lds	r14, 0x2002
 5fa:	f0 90 03 20 	lds	r15, 0x2003
 5fe:	20 e0       	ldi	r18, 0x00	; 0
 600:	30 e0       	ldi	r19, 0x00	; 0
 602:	44 eb       	ldi	r20, 0xB4	; 180
 604:	53 e4       	ldi	r21, 0x43	; 67
 606:	c7 01       	movw	r24, r14
 608:	b6 01       	movw	r22, r12
 60a:	0e 94 c8 04 	call	0x990	; 0x990 <__cmpsf2>
 60e:	87 fd       	sbrc	r24, 7
 610:	c8 cf       	rjmp	.-112    	; 0x5a2 <main+0x29a>
 612:	fb ce       	rjmp	.-522    	; 0x40a <main+0x102>

00000614 <Clear>:
 614:	e9 e9       	ldi	r30, 0x99	; 153
 616:	f0 e2       	ldi	r31, 0x20	; 32
 618:	81 93       	st	Z+, r24
 61a:	91 93       	st	Z+, r25
 61c:	21 e2       	ldi	r18, 0x21	; 33
 61e:	e9 32       	cpi	r30, 0x29	; 41
 620:	f2 07       	cpc	r31, r18
 622:	d1 f7       	brne	.-12     	; 0x618 <Clear+0x4>
 624:	08 95       	ret

00000626 <WriteLEDArray>:
 626:	cf 93       	push	r28
 628:	9c 01       	movw	r18, r24
 62a:	89 34       	cpi	r24, 0x49	; 73
 62c:	91 05       	cpc	r25, r1
 62e:	10 f0       	brcs	.+4      	; 0x634 <WriteLEDArray+0xe>
 630:	28 e4       	ldi	r18, 0x48	; 72
 632:	30 e0       	ldi	r19, 0x00	; 0
 634:	c0 91 08 20 	lds	r28, 0x2008
 638:	e9 e9       	ldi	r30, 0x99	; 153
 63a:	f0 e2       	ldi	r31, 0x20	; 32
 63c:	40 e0       	ldi	r20, 0x00	; 0
 63e:	50 e0       	ldi	r21, 0x00	; 0
 640:	2a c0       	rjmp	.+84     	; 0x696 <WriteLEDArray+0x70>
 642:	61 91       	ld	r22, Z+
 644:	71 91       	ld	r23, Z+
 646:	0c 2e       	mov	r0, r28
 648:	02 c0       	rjmp	.+4      	; 0x64e <WriteLEDArray+0x28>
 64a:	76 95       	lsr	r23
 64c:	67 95       	ror	r22
 64e:	0a 94       	dec	r0
 650:	e2 f7       	brpl	.-8      	; 0x64a <WriteLEDArray+0x24>
 652:	8b e0       	ldi	r24, 0x0B	; 11
 654:	90 e0       	ldi	r25, 0x00	; 0
 656:	db 01       	movw	r26, r22
 658:	08 2e       	mov	r0, r24
 65a:	02 c0       	rjmp	.+4      	; 0x660 <WriteLEDArray+0x3a>
 65c:	b6 95       	lsr	r27
 65e:	a7 95       	ror	r26
 660:	0a 94       	dec	r0
 662:	e2 f7       	brpl	.-8      	; 0x65c <WriteLEDArray+0x36>
 664:	a0 ff       	sbrs	r26, 0
 666:	04 c0       	rjmp	.+8      	; 0x670 <WriteLEDArray+0x4a>
 668:	a0 91 64 06 	lds	r26, 0x0664
 66c:	a1 60       	ori	r26, 0x01	; 1
 66e:	03 c0       	rjmp	.+6      	; 0x676 <WriteLEDArray+0x50>
 670:	a0 91 64 06 	lds	r26, 0x0664
 674:	ae 7f       	andi	r26, 0xFE	; 254
 676:	a0 93 64 06 	sts	0x0664, r26
 67a:	a0 91 64 06 	lds	r26, 0x0664
 67e:	a2 60       	ori	r26, 0x02	; 2
 680:	a0 93 64 06 	sts	0x0664, r26
 684:	a0 91 64 06 	lds	r26, 0x0664
 688:	ad 7f       	andi	r26, 0xFD	; 253
 68a:	a0 93 64 06 	sts	0x0664, r26
 68e:	01 97       	sbiw	r24, 0x01	; 1
 690:	10 f7       	brcc	.-60     	; 0x656 <WriteLEDArray+0x30>
 692:	4f 5f       	subi	r20, 0xFF	; 255
 694:	5f 4f       	sbci	r21, 0xFF	; 255
 696:	42 17       	cp	r20, r18
 698:	53 07       	cpc	r21, r19
 69a:	99 f6       	brne	.-90     	; 0x642 <WriteLEDArray+0x1c>
 69c:	80 91 64 06 	lds	r24, 0x0664
 6a0:	8c 60       	ori	r24, 0x0C	; 12
 6a2:	80 93 64 06 	sts	0x0664, r24
 6a6:	80 91 64 06 	lds	r24, 0x0664
 6aa:	83 7f       	andi	r24, 0xF3	; 243
 6ac:	80 93 64 06 	sts	0x0664, r24
 6b0:	cf 91       	pop	r28
 6b2:	08 95       	ret

000006b4 <LED_Init>:
 6b4:	e0 e6       	ldi	r30, 0x60	; 96
 6b6:	f6 e0       	ldi	r31, 0x06	; 6
 6b8:	84 81       	ldd	r24, Z+4	; 0x04
 6ba:	87 7f       	andi	r24, 0xF7	; 247
 6bc:	84 83       	std	Z+4, r24	; 0x04
 6be:	84 81       	ldd	r24, Z+4	; 0x04
 6c0:	8b 7f       	andi	r24, 0xFB	; 251
 6c2:	84 83       	std	Z+4, r24	; 0x04
 6c4:	10 92 08 20 	sts	0x2008, r1
 6c8:	88 e4       	ldi	r24, 0x48	; 72
 6ca:	90 e0       	ldi	r25, 0x00	; 0
 6cc:	0c 94 13 03 	jmp	0x626	; 0x626 <WriteLEDArray>

000006d0 <WriteRGBArray>:
 6d0:	e9 e0       	ldi	r30, 0x09	; 9
 6d2:	f0 e2       	ldi	r31, 0x20	; 32
 6d4:	21 91       	ld	r18, Z+
 6d6:	31 91       	ld	r19, Z+
 6d8:	8b e0       	ldi	r24, 0x0B	; 11
 6da:	90 e0       	ldi	r25, 0x00	; 0
 6dc:	a9 01       	movw	r20, r18
 6de:	08 2e       	mov	r0, r24
 6e0:	02 c0       	rjmp	.+4      	; 0x6e6 <WriteRGBArray+0x16>
 6e2:	56 95       	lsr	r21
 6e4:	47 95       	ror	r20
 6e6:	0a 94       	dec	r0
 6e8:	e2 f7       	brpl	.-8      	; 0x6e2 <WriteRGBArray+0x12>
 6ea:	40 ff       	sbrs	r20, 0
 6ec:	04 c0       	rjmp	.+8      	; 0x6f6 <WriteRGBArray+0x26>
 6ee:	40 91 64 06 	lds	r20, 0x0664
 6f2:	41 60       	ori	r20, 0x01	; 1
 6f4:	03 c0       	rjmp	.+6      	; 0x6fc <WriteRGBArray+0x2c>
 6f6:	40 91 64 06 	lds	r20, 0x0664
 6fa:	4e 7f       	andi	r20, 0xFE	; 254
 6fc:	40 93 64 06 	sts	0x0664, r20
 700:	40 91 64 06 	lds	r20, 0x0664
 704:	42 60       	ori	r20, 0x02	; 2
 706:	40 93 64 06 	sts	0x0664, r20
 70a:	40 91 64 06 	lds	r20, 0x0664
 70e:	4d 7f       	andi	r20, 0xFD	; 253
 710:	40 93 64 06 	sts	0x0664, r20
 714:	01 97       	sbiw	r24, 0x01	; 1
 716:	10 f7       	brcc	.-60     	; 0x6dc <WriteRGBArray+0xc>
 718:	80 e2       	ldi	r24, 0x20	; 32
 71a:	e9 39       	cpi	r30, 0x99	; 153
 71c:	f8 07       	cpc	r31, r24
 71e:	d1 f6       	brne	.-76     	; 0x6d4 <WriteRGBArray+0x4>
 720:	80 91 64 06 	lds	r24, 0x0664
 724:	88 60       	ori	r24, 0x08	; 8
 726:	80 93 64 06 	sts	0x0664, r24
 72a:	80 91 64 06 	lds	r24, 0x0664
 72e:	87 7f       	andi	r24, 0xF7	; 247
 730:	80 93 64 06 	sts	0x0664, r24
 734:	08 95       	ret

00000736 <RGBscan>:
 736:	2f 92       	push	r2
 738:	3f 92       	push	r3
 73a:	4f 92       	push	r4
 73c:	5f 92       	push	r5
 73e:	6f 92       	push	r6
 740:	7f 92       	push	r7
 742:	8f 92       	push	r8
 744:	9f 92       	push	r9
 746:	af 92       	push	r10
 748:	bf 92       	push	r11
 74a:	cf 92       	push	r12
 74c:	df 92       	push	r13
 74e:	ef 92       	push	r14
 750:	ff 92       	push	r15
 752:	0f 93       	push	r16
 754:	1f 93       	push	r17
 756:	cf 93       	push	r28
 758:	df 93       	push	r29
 75a:	cd b7       	in	r28, 0x3d	; 61
 75c:	de b7       	in	r29, 0x3e	; 62
 75e:	28 97       	sbiw	r28, 0x08	; 8
 760:	cd bf       	out	0x3d, r28	; 61
 762:	de bf       	out	0x3e, r29	; 62
 764:	7c 01       	movw	r14, r24
 766:	6b 01       	movw	r12, r22
 768:	4a 01       	movw	r8, r20
 76a:	c9 01       	movw	r24, r18
 76c:	b8 01       	movw	r22, r16
 76e:	20 ed       	ldi	r18, 0xD0	; 208
 770:	3f e0       	ldi	r19, 0x0F	; 15
 772:	49 e4       	ldi	r20, 0x49	; 73
 774:	50 e4       	ldi	r21, 0x40	; 64
 776:	0e 94 d8 06 	call	0xdb0	; 0xdb0 <__mulsf3>
 77a:	20 e0       	ldi	r18, 0x00	; 0
 77c:	30 e0       	ldi	r19, 0x00	; 0
 77e:	44 e3       	ldi	r20, 0x34	; 52
 780:	53 e4       	ldi	r21, 0x43	; 67
 782:	0e 94 cc 04 	call	0x998	; 0x998 <__divsf3>
 786:	0e 94 3b 07 	call	0xe76	; 0xe76 <sin>
 78a:	20 e0       	ldi	r18, 0x00	; 0
 78c:	30 e0       	ldi	r19, 0x00	; 0
 78e:	40 e8       	ldi	r20, 0x80	; 128
 790:	5f e3       	ldi	r21, 0x3F	; 63
 792:	0e 94 64 04 	call	0x8c8	; 0x8c8 <__addsf3>
 796:	20 e0       	ldi	r18, 0x00	; 0
 798:	30 e0       	ldi	r19, 0x00	; 0
 79a:	40 e4       	ldi	r20, 0x40	; 64
 79c:	51 e4       	ldi	r21, 0x41	; 65
 79e:	0e 94 d8 06 	call	0xdb0	; 0xdb0 <__mulsf3>
 7a2:	69 83       	std	Y+1, r22	; 0x01
 7a4:	7a 83       	std	Y+2, r23	; 0x02
 7a6:	3c 01       	movw	r6, r24
 7a8:	89 e0       	ldi	r24, 0x09	; 9
 7aa:	90 e2       	ldi	r25, 0x20	; 32
 7ac:	8f 83       	std	Y+7, r24	; 0x07
 7ae:	98 87       	std	Y+8, r25	; 0x08
 7b0:	00 e0       	ldi	r16, 0x00	; 0
 7b2:	10 e0       	ldi	r17, 0x00	; 0
 7b4:	aa 24       	eor	r10, r10
 7b6:	97 fc       	sbrc	r9, 7
 7b8:	a0 94       	com	r10
 7ba:	ba 2c       	mov	r11, r10
 7bc:	c6 01       	movw	r24, r12
 7be:	aa 27       	eor	r26, r26
 7c0:	97 fd       	sbrc	r25, 7
 7c2:	a0 95       	com	r26
 7c4:	ba 2f       	mov	r27, r26
 7c6:	8b 83       	std	Y+3, r24	; 0x03
 7c8:	9c 83       	std	Y+4, r25	; 0x04
 7ca:	ad 83       	std	Y+5, r26	; 0x05
 7cc:	be 83       	std	Y+6, r27	; 0x06
 7ce:	17 01       	movw	r2, r14
 7d0:	44 24       	eor	r4, r4
 7d2:	37 fc       	sbrc	r3, 7
 7d4:	40 94       	com	r4
 7d6:	54 2c       	mov	r5, r4
 7d8:	b8 01       	movw	r22, r16
 7da:	88 27       	eor	r24, r24
 7dc:	77 fd       	sbrc	r23, 7
 7de:	80 95       	com	r24
 7e0:	98 2f       	mov	r25, r24
 7e2:	0e 94 93 05 	call	0xb26	; 0xb26 <__floatsisf>
 7e6:	20 e0       	ldi	r18, 0x00	; 0
 7e8:	30 e0       	ldi	r19, 0x00	; 0
 7ea:	40 e0       	ldi	r20, 0x00	; 0
 7ec:	5f e3       	ldi	r21, 0x3F	; 63
 7ee:	0e 94 64 04 	call	0x8c8	; 0x8c8 <__addsf3>
 7f2:	9b 01       	movw	r18, r22
 7f4:	ac 01       	movw	r20, r24
 7f6:	b9 81       	ldd	r27, Y+1	; 0x01
 7f8:	aa 81       	ldd	r26, Y+2	; 0x02
 7fa:	6b 2f       	mov	r22, r27
 7fc:	7a 2f       	mov	r23, r26
 7fe:	86 2d       	mov	r24, r6
 800:	97 2d       	mov	r25, r7
 802:	0e 94 63 04 	call	0x8c6	; 0x8c6 <__subsf3>
 806:	9f 77       	andi	r25, 0x7F	; 127
 808:	26 e6       	ldi	r18, 0x66	; 102
 80a:	36 e6       	ldi	r19, 0x66	; 102
 80c:	46 ea       	ldi	r20, 0xA6	; 166
 80e:	5f e3       	ldi	r21, 0x3F	; 63
 810:	0e 94 d8 06 	call	0xdb0	; 0xdb0 <__mulsf3>
 814:	9b 01       	movw	r18, r22
 816:	ac 01       	movw	r20, r24
 818:	60 e0       	ldi	r22, 0x00	; 0
 81a:	70 e0       	ldi	r23, 0x00	; 0
 81c:	cb 01       	movw	r24, r22
 81e:	0e 94 63 04 	call	0x8c6	; 0x8c6 <__subsf3>
 822:	0e 94 39 05 	call	0xa72	; 0xa72 <exp>
 826:	6b 01       	movw	r12, r22
 828:	7c 01       	movw	r14, r24
 82a:	c5 01       	movw	r24, r10
 82c:	b4 01       	movw	r22, r8
 82e:	0e 94 93 05 	call	0xb26	; 0xb26 <__floatsisf>
 832:	a7 01       	movw	r20, r14
 834:	96 01       	movw	r18, r12
 836:	0e 94 d8 06 	call	0xdb0	; 0xdb0 <__mulsf3>
 83a:	0e 94 65 05 	call	0xaca	; 0xaca <__fixunssfsi>
 83e:	af 81       	ldd	r26, Y+7	; 0x07
 840:	b8 85       	ldd	r27, Y+8	; 0x08
 842:	6d 93       	st	X+, r22
 844:	7c 93       	st	X, r23
 846:	6b 81       	ldd	r22, Y+3	; 0x03
 848:	7c 81       	ldd	r23, Y+4	; 0x04
 84a:	8d 81       	ldd	r24, Y+5	; 0x05
 84c:	9e 81       	ldd	r25, Y+6	; 0x06
 84e:	0e 94 93 05 	call	0xb26	; 0xb26 <__floatsisf>
 852:	a7 01       	movw	r20, r14
 854:	96 01       	movw	r18, r12
 856:	0e 94 d8 06 	call	0xdb0	; 0xdb0 <__mulsf3>
 85a:	0e 94 65 05 	call	0xaca	; 0xaca <__fixunssfsi>
 85e:	ef 81       	ldd	r30, Y+7	; 0x07
 860:	f8 85       	ldd	r31, Y+8	; 0x08
 862:	62 83       	std	Z+2, r22	; 0x02
 864:	73 83       	std	Z+3, r23	; 0x03
 866:	c2 01       	movw	r24, r4
 868:	b1 01       	movw	r22, r2
 86a:	0e 94 93 05 	call	0xb26	; 0xb26 <__floatsisf>
 86e:	a7 01       	movw	r20, r14
 870:	96 01       	movw	r18, r12
 872:	0e 94 d8 06 	call	0xdb0	; 0xdb0 <__mulsf3>
 876:	0e 94 65 05 	call	0xaca	; 0xaca <__fixunssfsi>
 87a:	af 81       	ldd	r26, Y+7	; 0x07
 87c:	b8 85       	ldd	r27, Y+8	; 0x08
 87e:	14 96       	adiw	r26, 0x04	; 4
 880:	6d 93       	st	X+, r22
 882:	7c 93       	st	X, r23
 884:	15 97       	sbiw	r26, 0x05	; 5
 886:	0f 5f       	subi	r16, 0xFF	; 255
 888:	1f 4f       	sbci	r17, 0xFF	; 255
 88a:	16 96       	adiw	r26, 0x06	; 6
 88c:	af 83       	std	Y+7, r26	; 0x07
 88e:	b8 87       	std	Y+8, r27	; 0x08
 890:	08 31       	cpi	r16, 0x18	; 24
 892:	11 05       	cpc	r17, r1
 894:	09 f0       	breq	.+2      	; 0x898 <RGBscan+0x162>
 896:	a0 cf       	rjmp	.-192    	; 0x7d8 <RGBscan+0xa2>
 898:	28 96       	adiw	r28, 0x08	; 8
 89a:	cd bf       	out	0x3d, r28	; 61
 89c:	de bf       	out	0x3e, r29	; 62
 89e:	df 91       	pop	r29
 8a0:	cf 91       	pop	r28
 8a2:	1f 91       	pop	r17
 8a4:	0f 91       	pop	r16
 8a6:	ff 90       	pop	r15
 8a8:	ef 90       	pop	r14
 8aa:	df 90       	pop	r13
 8ac:	cf 90       	pop	r12
 8ae:	bf 90       	pop	r11
 8b0:	af 90       	pop	r10
 8b2:	9f 90       	pop	r9
 8b4:	8f 90       	pop	r8
 8b6:	7f 90       	pop	r7
 8b8:	6f 90       	pop	r6
 8ba:	5f 90       	pop	r5
 8bc:	4f 90       	pop	r4
 8be:	3f 90       	pop	r3
 8c0:	2f 90       	pop	r2
 8c2:	0c 94 68 03 	jmp	0x6d0	; 0x6d0 <WriteRGBArray>

000008c6 <__subsf3>:
 8c6:	50 58       	subi	r21, 0x80	; 128

000008c8 <__addsf3>:
 8c8:	bb 27       	eor	r27, r27
 8ca:	aa 27       	eor	r26, r26
 8cc:	0e d0       	rcall	.+28     	; 0x8ea <__addsf3x>
 8ce:	c6 c1       	rjmp	.+908    	; 0xc5c <__fp_round>
 8d0:	b7 d1       	rcall	.+878    	; 0xc40 <__fp_pscA>
 8d2:	30 f0       	brcs	.+12     	; 0x8e0 <__addsf3+0x18>
 8d4:	bc d1       	rcall	.+888    	; 0xc4e <__fp_pscB>
 8d6:	20 f0       	brcs	.+8      	; 0x8e0 <__addsf3+0x18>
 8d8:	31 f4       	brne	.+12     	; 0x8e6 <__addsf3+0x1e>
 8da:	9f 3f       	cpi	r25, 0xFF	; 255
 8dc:	11 f4       	brne	.+4      	; 0x8e2 <__addsf3+0x1a>
 8de:	1e f4       	brtc	.+6      	; 0x8e6 <__addsf3+0x1e>
 8e0:	87 c1       	rjmp	.+782    	; 0xbf0 <__fp_nan>
 8e2:	0e f4       	brtc	.+2      	; 0x8e6 <__addsf3+0x1e>
 8e4:	e0 95       	com	r30
 8e6:	e7 fb       	bst	r30, 7
 8e8:	7d c1       	rjmp	.+762    	; 0xbe4 <__fp_inf>

000008ea <__addsf3x>:
 8ea:	e9 2f       	mov	r30, r25
 8ec:	c8 d1       	rcall	.+912    	; 0xc7e <__fp_split3>
 8ee:	80 f3       	brcs	.-32     	; 0x8d0 <__addsf3+0x8>
 8f0:	ba 17       	cp	r27, r26
 8f2:	62 07       	cpc	r22, r18
 8f4:	73 07       	cpc	r23, r19
 8f6:	84 07       	cpc	r24, r20
 8f8:	95 07       	cpc	r25, r21
 8fa:	18 f0       	brcs	.+6      	; 0x902 <__addsf3x+0x18>
 8fc:	71 f4       	brne	.+28     	; 0x91a <__addsf3x+0x30>
 8fe:	9e f5       	brtc	.+102    	; 0x966 <__addsf3x+0x7c>
 900:	e0 c1       	rjmp	.+960    	; 0xcc2 <__fp_zero>
 902:	0e f4       	brtc	.+2      	; 0x906 <__addsf3x+0x1c>
 904:	e0 95       	com	r30
 906:	0b 2e       	mov	r0, r27
 908:	ba 2f       	mov	r27, r26
 90a:	a0 2d       	mov	r26, r0
 90c:	0b 01       	movw	r0, r22
 90e:	b9 01       	movw	r22, r18
 910:	90 01       	movw	r18, r0
 912:	0c 01       	movw	r0, r24
 914:	ca 01       	movw	r24, r20
 916:	a0 01       	movw	r20, r0
 918:	11 24       	eor	r1, r1
 91a:	ff 27       	eor	r31, r31
 91c:	59 1b       	sub	r21, r25
 91e:	99 f0       	breq	.+38     	; 0x946 <__addsf3x+0x5c>
 920:	59 3f       	cpi	r21, 0xF9	; 249
 922:	50 f4       	brcc	.+20     	; 0x938 <__addsf3x+0x4e>
 924:	50 3e       	cpi	r21, 0xE0	; 224
 926:	68 f1       	brcs	.+90     	; 0x982 <__addsf3x+0x98>
 928:	1a 16       	cp	r1, r26
 92a:	f0 40       	sbci	r31, 0x00	; 0
 92c:	a2 2f       	mov	r26, r18
 92e:	23 2f       	mov	r18, r19
 930:	34 2f       	mov	r19, r20
 932:	44 27       	eor	r20, r20
 934:	58 5f       	subi	r21, 0xF8	; 248
 936:	f3 cf       	rjmp	.-26     	; 0x91e <__addsf3x+0x34>
 938:	46 95       	lsr	r20
 93a:	37 95       	ror	r19
 93c:	27 95       	ror	r18
 93e:	a7 95       	ror	r26
 940:	f0 40       	sbci	r31, 0x00	; 0
 942:	53 95       	inc	r21
 944:	c9 f7       	brne	.-14     	; 0x938 <__addsf3x+0x4e>
 946:	7e f4       	brtc	.+30     	; 0x966 <__addsf3x+0x7c>
 948:	1f 16       	cp	r1, r31
 94a:	ba 0b       	sbc	r27, r26
 94c:	62 0b       	sbc	r22, r18
 94e:	73 0b       	sbc	r23, r19
 950:	84 0b       	sbc	r24, r20
 952:	ba f0       	brmi	.+46     	; 0x982 <__addsf3x+0x98>
 954:	91 50       	subi	r25, 0x01	; 1
 956:	a1 f0       	breq	.+40     	; 0x980 <__addsf3x+0x96>
 958:	ff 0f       	add	r31, r31
 95a:	bb 1f       	adc	r27, r27
 95c:	66 1f       	adc	r22, r22
 95e:	77 1f       	adc	r23, r23
 960:	88 1f       	adc	r24, r24
 962:	c2 f7       	brpl	.-16     	; 0x954 <__addsf3x+0x6a>
 964:	0e c0       	rjmp	.+28     	; 0x982 <__addsf3x+0x98>
 966:	ba 0f       	add	r27, r26
 968:	62 1f       	adc	r22, r18
 96a:	73 1f       	adc	r23, r19
 96c:	84 1f       	adc	r24, r20
 96e:	48 f4       	brcc	.+18     	; 0x982 <__addsf3x+0x98>
 970:	87 95       	ror	r24
 972:	77 95       	ror	r23
 974:	67 95       	ror	r22
 976:	b7 95       	ror	r27
 978:	f7 95       	ror	r31
 97a:	9e 3f       	cpi	r25, 0xFE	; 254
 97c:	08 f0       	brcs	.+2      	; 0x980 <__addsf3x+0x96>
 97e:	b3 cf       	rjmp	.-154    	; 0x8e6 <__addsf3+0x1e>
 980:	93 95       	inc	r25
 982:	88 0f       	add	r24, r24
 984:	08 f0       	brcs	.+2      	; 0x988 <__addsf3x+0x9e>
 986:	99 27       	eor	r25, r25
 988:	ee 0f       	add	r30, r30
 98a:	97 95       	ror	r25
 98c:	87 95       	ror	r24
 98e:	08 95       	ret

00000990 <__cmpsf2>:
 990:	05 d1       	rcall	.+522    	; 0xb9c <__fp_cmp>
 992:	08 f4       	brcc	.+2      	; 0x996 <__cmpsf2+0x6>
 994:	81 e0       	ldi	r24, 0x01	; 1
 996:	08 95       	ret

00000998 <__divsf3>:
 998:	0c d0       	rcall	.+24     	; 0x9b2 <__divsf3x>
 99a:	60 c1       	rjmp	.+704    	; 0xc5c <__fp_round>
 99c:	58 d1       	rcall	.+688    	; 0xc4e <__fp_pscB>
 99e:	40 f0       	brcs	.+16     	; 0x9b0 <__divsf3+0x18>
 9a0:	4f d1       	rcall	.+670    	; 0xc40 <__fp_pscA>
 9a2:	30 f0       	brcs	.+12     	; 0x9b0 <__divsf3+0x18>
 9a4:	21 f4       	brne	.+8      	; 0x9ae <__divsf3+0x16>
 9a6:	5f 3f       	cpi	r21, 0xFF	; 255
 9a8:	19 f0       	breq	.+6      	; 0x9b0 <__divsf3+0x18>
 9aa:	1c c1       	rjmp	.+568    	; 0xbe4 <__fp_inf>
 9ac:	51 11       	cpse	r21, r1
 9ae:	8a c1       	rjmp	.+788    	; 0xcc4 <__fp_szero>
 9b0:	1f c1       	rjmp	.+574    	; 0xbf0 <__fp_nan>

000009b2 <__divsf3x>:
 9b2:	65 d1       	rcall	.+714    	; 0xc7e <__fp_split3>
 9b4:	98 f3       	brcs	.-26     	; 0x99c <__divsf3+0x4>

000009b6 <__divsf3_pse>:
 9b6:	99 23       	and	r25, r25
 9b8:	c9 f3       	breq	.-14     	; 0x9ac <__divsf3+0x14>
 9ba:	55 23       	and	r21, r21
 9bc:	b1 f3       	breq	.-20     	; 0x9aa <__divsf3+0x12>
 9be:	95 1b       	sub	r25, r21
 9c0:	55 0b       	sbc	r21, r21
 9c2:	bb 27       	eor	r27, r27
 9c4:	aa 27       	eor	r26, r26
 9c6:	62 17       	cp	r22, r18
 9c8:	73 07       	cpc	r23, r19
 9ca:	84 07       	cpc	r24, r20
 9cc:	38 f0       	brcs	.+14     	; 0x9dc <__divsf3_pse+0x26>
 9ce:	9f 5f       	subi	r25, 0xFF	; 255
 9d0:	5f 4f       	sbci	r21, 0xFF	; 255
 9d2:	22 0f       	add	r18, r18
 9d4:	33 1f       	adc	r19, r19
 9d6:	44 1f       	adc	r20, r20
 9d8:	aa 1f       	adc	r26, r26
 9da:	a9 f3       	breq	.-22     	; 0x9c6 <__divsf3_pse+0x10>
 9dc:	33 d0       	rcall	.+102    	; 0xa44 <__divsf3_pse+0x8e>
 9de:	0e 2e       	mov	r0, r30
 9e0:	3a f0       	brmi	.+14     	; 0x9f0 <__divsf3_pse+0x3a>
 9e2:	e0 e8       	ldi	r30, 0x80	; 128
 9e4:	30 d0       	rcall	.+96     	; 0xa46 <__divsf3_pse+0x90>
 9e6:	91 50       	subi	r25, 0x01	; 1
 9e8:	50 40       	sbci	r21, 0x00	; 0
 9ea:	e6 95       	lsr	r30
 9ec:	00 1c       	adc	r0, r0
 9ee:	ca f7       	brpl	.-14     	; 0x9e2 <__divsf3_pse+0x2c>
 9f0:	29 d0       	rcall	.+82     	; 0xa44 <__divsf3_pse+0x8e>
 9f2:	fe 2f       	mov	r31, r30
 9f4:	27 d0       	rcall	.+78     	; 0xa44 <__divsf3_pse+0x8e>
 9f6:	66 0f       	add	r22, r22
 9f8:	77 1f       	adc	r23, r23
 9fa:	88 1f       	adc	r24, r24
 9fc:	bb 1f       	adc	r27, r27
 9fe:	26 17       	cp	r18, r22
 a00:	37 07       	cpc	r19, r23
 a02:	48 07       	cpc	r20, r24
 a04:	ab 07       	cpc	r26, r27
 a06:	b0 e8       	ldi	r27, 0x80	; 128
 a08:	09 f0       	breq	.+2      	; 0xa0c <__divsf3_pse+0x56>
 a0a:	bb 0b       	sbc	r27, r27
 a0c:	80 2d       	mov	r24, r0
 a0e:	bf 01       	movw	r22, r30
 a10:	ff 27       	eor	r31, r31
 a12:	93 58       	subi	r25, 0x83	; 131
 a14:	5f 4f       	sbci	r21, 0xFF	; 255
 a16:	2a f0       	brmi	.+10     	; 0xa22 <__divsf3_pse+0x6c>
 a18:	9e 3f       	cpi	r25, 0xFE	; 254
 a1a:	51 05       	cpc	r21, r1
 a1c:	68 f0       	brcs	.+26     	; 0xa38 <__divsf3_pse+0x82>
 a1e:	e2 c0       	rjmp	.+452    	; 0xbe4 <__fp_inf>
 a20:	51 c1       	rjmp	.+674    	; 0xcc4 <__fp_szero>
 a22:	5f 3f       	cpi	r21, 0xFF	; 255
 a24:	ec f3       	brlt	.-6      	; 0xa20 <__divsf3_pse+0x6a>
 a26:	98 3e       	cpi	r25, 0xE8	; 232
 a28:	dc f3       	brlt	.-10     	; 0xa20 <__divsf3_pse+0x6a>
 a2a:	86 95       	lsr	r24
 a2c:	77 95       	ror	r23
 a2e:	67 95       	ror	r22
 a30:	b7 95       	ror	r27
 a32:	f7 95       	ror	r31
 a34:	9f 5f       	subi	r25, 0xFF	; 255
 a36:	c9 f7       	brne	.-14     	; 0xa2a <__divsf3_pse+0x74>
 a38:	88 0f       	add	r24, r24
 a3a:	91 1d       	adc	r25, r1
 a3c:	96 95       	lsr	r25
 a3e:	87 95       	ror	r24
 a40:	97 f9       	bld	r25, 7
 a42:	08 95       	ret
 a44:	e1 e0       	ldi	r30, 0x01	; 1
 a46:	66 0f       	add	r22, r22
 a48:	77 1f       	adc	r23, r23
 a4a:	88 1f       	adc	r24, r24
 a4c:	bb 1f       	adc	r27, r27
 a4e:	62 17       	cp	r22, r18
 a50:	73 07       	cpc	r23, r19
 a52:	84 07       	cpc	r24, r20
 a54:	ba 07       	cpc	r27, r26
 a56:	20 f0       	brcs	.+8      	; 0xa60 <__divsf3_pse+0xaa>
 a58:	62 1b       	sub	r22, r18
 a5a:	73 0b       	sbc	r23, r19
 a5c:	84 0b       	sbc	r24, r20
 a5e:	ba 0b       	sbc	r27, r26
 a60:	ee 1f       	adc	r30, r30
 a62:	88 f7       	brcc	.-30     	; 0xa46 <__divsf3_pse+0x90>
 a64:	e0 95       	com	r30
 a66:	08 95       	ret
 a68:	19 f4       	brne	.+6      	; 0xa70 <__divsf3_pse+0xba>
 a6a:	0e f0       	brts	.+2      	; 0xa6e <__divsf3_pse+0xb8>
 a6c:	bb c0       	rjmp	.+374    	; 0xbe4 <__fp_inf>
 a6e:	29 c1       	rjmp	.+594    	; 0xcc2 <__fp_zero>
 a70:	bf c0       	rjmp	.+382    	; 0xbf0 <__fp_nan>

00000a72 <exp>:
 a72:	0d d1       	rcall	.+538    	; 0xc8e <__fp_splitA>
 a74:	c8 f3       	brcs	.-14     	; 0xa68 <__divsf3_pse+0xb2>
 a76:	96 38       	cpi	r25, 0x86	; 134
 a78:	c0 f7       	brcc	.-16     	; 0xa6a <__divsf3_pse+0xb4>
 a7a:	07 f8       	bld	r0, 7
 a7c:	0f 92       	push	r0
 a7e:	e8 94       	clt
 a80:	2b e3       	ldi	r18, 0x3B	; 59
 a82:	3a ea       	ldi	r19, 0xAA	; 170
 a84:	48 eb       	ldi	r20, 0xB8	; 184
 a86:	5f e7       	ldi	r21, 0x7F	; 127
 a88:	a1 d1       	rcall	.+834    	; 0xdcc <__mulsf3_pse>
 a8a:	0f 92       	push	r0
 a8c:	0f 92       	push	r0
 a8e:	0f 92       	push	r0
 a90:	4d b7       	in	r20, 0x3d	; 61
 a92:	5e b7       	in	r21, 0x3e	; 62
 a94:	0f 92       	push	r0
 a96:	59 d1       	rcall	.+690    	; 0xd4a <modf>
 a98:	ec ef       	ldi	r30, 0xFC	; 252
 a9a:	f1 e0       	ldi	r31, 0x01	; 1
 a9c:	ac d0       	rcall	.+344    	; 0xbf6 <__fp_powser>
 a9e:	4f 91       	pop	r20
 aa0:	5f 91       	pop	r21
 aa2:	ef 91       	pop	r30
 aa4:	ff 91       	pop	r31
 aa6:	e5 95       	asr	r30
 aa8:	ee 1f       	adc	r30, r30
 aaa:	ff 1f       	adc	r31, r31
 aac:	49 f0       	breq	.+18     	; 0xac0 <exp+0x4e>
 aae:	fe 57       	subi	r31, 0x7E	; 126
 ab0:	e0 68       	ori	r30, 0x80	; 128
 ab2:	44 27       	eor	r20, r20
 ab4:	ee 0f       	add	r30, r30
 ab6:	44 1f       	adc	r20, r20
 ab8:	fa 95       	dec	r31
 aba:	e1 f7       	brne	.-8      	; 0xab4 <exp+0x42>
 abc:	41 95       	neg	r20
 abe:	55 0b       	sbc	r21, r21
 ac0:	10 d1       	rcall	.+544    	; 0xce2 <ldexp>
 ac2:	0f 90       	pop	r0
 ac4:	07 fe       	sbrs	r0, 7
 ac6:	04 c1       	rjmp	.+520    	; 0xcd0 <inverse>
 ac8:	08 95       	ret

00000aca <__fixunssfsi>:
 aca:	e1 d0       	rcall	.+450    	; 0xc8e <__fp_splitA>
 acc:	88 f0       	brcs	.+34     	; 0xaf0 <__fixunssfsi+0x26>
 ace:	9f 57       	subi	r25, 0x7F	; 127
 ad0:	90 f0       	brcs	.+36     	; 0xaf6 <__fixunssfsi+0x2c>
 ad2:	b9 2f       	mov	r27, r25
 ad4:	99 27       	eor	r25, r25
 ad6:	b7 51       	subi	r27, 0x17	; 23
 ad8:	a0 f0       	brcs	.+40     	; 0xb02 <__fixunssfsi+0x38>
 ada:	d1 f0       	breq	.+52     	; 0xb10 <__fixunssfsi+0x46>
 adc:	66 0f       	add	r22, r22
 ade:	77 1f       	adc	r23, r23
 ae0:	88 1f       	adc	r24, r24
 ae2:	99 1f       	adc	r25, r25
 ae4:	1a f0       	brmi	.+6      	; 0xaec <__fixunssfsi+0x22>
 ae6:	ba 95       	dec	r27
 ae8:	c9 f7       	brne	.-14     	; 0xadc <__fixunssfsi+0x12>
 aea:	12 c0       	rjmp	.+36     	; 0xb10 <__fixunssfsi+0x46>
 aec:	b1 30       	cpi	r27, 0x01	; 1
 aee:	81 f0       	breq	.+32     	; 0xb10 <__fixunssfsi+0x46>
 af0:	e8 d0       	rcall	.+464    	; 0xcc2 <__fp_zero>
 af2:	b1 e0       	ldi	r27, 0x01	; 1
 af4:	08 95       	ret
 af6:	e5 c0       	rjmp	.+458    	; 0xcc2 <__fp_zero>
 af8:	67 2f       	mov	r22, r23
 afa:	78 2f       	mov	r23, r24
 afc:	88 27       	eor	r24, r24
 afe:	b8 5f       	subi	r27, 0xF8	; 248
 b00:	39 f0       	breq	.+14     	; 0xb10 <__fixunssfsi+0x46>
 b02:	b9 3f       	cpi	r27, 0xF9	; 249
 b04:	cc f3       	brlt	.-14     	; 0xaf8 <__fixunssfsi+0x2e>
 b06:	86 95       	lsr	r24
 b08:	77 95       	ror	r23
 b0a:	67 95       	ror	r22
 b0c:	b3 95       	inc	r27
 b0e:	d9 f7       	brne	.-10     	; 0xb06 <__fixunssfsi+0x3c>
 b10:	3e f4       	brtc	.+14     	; 0xb20 <__fixunssfsi+0x56>
 b12:	90 95       	com	r25
 b14:	80 95       	com	r24
 b16:	70 95       	com	r23
 b18:	61 95       	neg	r22
 b1a:	7f 4f       	sbci	r23, 0xFF	; 255
 b1c:	8f 4f       	sbci	r24, 0xFF	; 255
 b1e:	9f 4f       	sbci	r25, 0xFF	; 255
 b20:	08 95       	ret

00000b22 <__floatunsisf>:
 b22:	e8 94       	clt
 b24:	09 c0       	rjmp	.+18     	; 0xb38 <__floatsisf+0x12>

00000b26 <__floatsisf>:
 b26:	97 fb       	bst	r25, 7
 b28:	3e f4       	brtc	.+14     	; 0xb38 <__floatsisf+0x12>
 b2a:	90 95       	com	r25
 b2c:	80 95       	com	r24
 b2e:	70 95       	com	r23
 b30:	61 95       	neg	r22
 b32:	7f 4f       	sbci	r23, 0xFF	; 255
 b34:	8f 4f       	sbci	r24, 0xFF	; 255
 b36:	9f 4f       	sbci	r25, 0xFF	; 255
 b38:	99 23       	and	r25, r25
 b3a:	a9 f0       	breq	.+42     	; 0xb66 <__floatsisf+0x40>
 b3c:	f9 2f       	mov	r31, r25
 b3e:	96 e9       	ldi	r25, 0x96	; 150
 b40:	bb 27       	eor	r27, r27
 b42:	93 95       	inc	r25
 b44:	f6 95       	lsr	r31
 b46:	87 95       	ror	r24
 b48:	77 95       	ror	r23
 b4a:	67 95       	ror	r22
 b4c:	b7 95       	ror	r27
 b4e:	f1 11       	cpse	r31, r1
 b50:	f8 cf       	rjmp	.-16     	; 0xb42 <__floatsisf+0x1c>
 b52:	fa f4       	brpl	.+62     	; 0xb92 <__floatsisf+0x6c>
 b54:	bb 0f       	add	r27, r27
 b56:	11 f4       	brne	.+4      	; 0xb5c <__floatsisf+0x36>
 b58:	60 ff       	sbrs	r22, 0
 b5a:	1b c0       	rjmp	.+54     	; 0xb92 <__floatsisf+0x6c>
 b5c:	6f 5f       	subi	r22, 0xFF	; 255
 b5e:	7f 4f       	sbci	r23, 0xFF	; 255
 b60:	8f 4f       	sbci	r24, 0xFF	; 255
 b62:	9f 4f       	sbci	r25, 0xFF	; 255
 b64:	16 c0       	rjmp	.+44     	; 0xb92 <__floatsisf+0x6c>
 b66:	88 23       	and	r24, r24
 b68:	11 f0       	breq	.+4      	; 0xb6e <__floatsisf+0x48>
 b6a:	96 e9       	ldi	r25, 0x96	; 150
 b6c:	11 c0       	rjmp	.+34     	; 0xb90 <__floatsisf+0x6a>
 b6e:	77 23       	and	r23, r23
 b70:	21 f0       	breq	.+8      	; 0xb7a <__floatsisf+0x54>
 b72:	9e e8       	ldi	r25, 0x8E	; 142
 b74:	87 2f       	mov	r24, r23
 b76:	76 2f       	mov	r23, r22
 b78:	05 c0       	rjmp	.+10     	; 0xb84 <__floatsisf+0x5e>
 b7a:	66 23       	and	r22, r22
 b7c:	71 f0       	breq	.+28     	; 0xb9a <__floatsisf+0x74>
 b7e:	96 e8       	ldi	r25, 0x86	; 134
 b80:	86 2f       	mov	r24, r22
 b82:	70 e0       	ldi	r23, 0x00	; 0
 b84:	60 e0       	ldi	r22, 0x00	; 0
 b86:	2a f0       	brmi	.+10     	; 0xb92 <__floatsisf+0x6c>
 b88:	9a 95       	dec	r25
 b8a:	66 0f       	add	r22, r22
 b8c:	77 1f       	adc	r23, r23
 b8e:	88 1f       	adc	r24, r24
 b90:	da f7       	brpl	.-10     	; 0xb88 <__floatsisf+0x62>
 b92:	88 0f       	add	r24, r24
 b94:	96 95       	lsr	r25
 b96:	87 95       	ror	r24
 b98:	97 f9       	bld	r25, 7
 b9a:	08 95       	ret

00000b9c <__fp_cmp>:
 b9c:	99 0f       	add	r25, r25
 b9e:	00 08       	sbc	r0, r0
 ba0:	55 0f       	add	r21, r21
 ba2:	aa 0b       	sbc	r26, r26
 ba4:	e0 e8       	ldi	r30, 0x80	; 128
 ba6:	fe ef       	ldi	r31, 0xFE	; 254
 ba8:	16 16       	cp	r1, r22
 baa:	17 06       	cpc	r1, r23
 bac:	e8 07       	cpc	r30, r24
 bae:	f9 07       	cpc	r31, r25
 bb0:	c0 f0       	brcs	.+48     	; 0xbe2 <__fp_cmp+0x46>
 bb2:	12 16       	cp	r1, r18
 bb4:	13 06       	cpc	r1, r19
 bb6:	e4 07       	cpc	r30, r20
 bb8:	f5 07       	cpc	r31, r21
 bba:	98 f0       	brcs	.+38     	; 0xbe2 <__fp_cmp+0x46>
 bbc:	62 1b       	sub	r22, r18
 bbe:	73 0b       	sbc	r23, r19
 bc0:	84 0b       	sbc	r24, r20
 bc2:	95 0b       	sbc	r25, r21
 bc4:	39 f4       	brne	.+14     	; 0xbd4 <__fp_cmp+0x38>
 bc6:	0a 26       	eor	r0, r26
 bc8:	61 f0       	breq	.+24     	; 0xbe2 <__fp_cmp+0x46>
 bca:	23 2b       	or	r18, r19
 bcc:	24 2b       	or	r18, r20
 bce:	25 2b       	or	r18, r21
 bd0:	21 f4       	brne	.+8      	; 0xbda <__fp_cmp+0x3e>
 bd2:	08 95       	ret
 bd4:	0a 26       	eor	r0, r26
 bd6:	09 f4       	brne	.+2      	; 0xbda <__fp_cmp+0x3e>
 bd8:	a1 40       	sbci	r26, 0x01	; 1
 bda:	a6 95       	lsr	r26
 bdc:	8f ef       	ldi	r24, 0xFF	; 255
 bde:	81 1d       	adc	r24, r1
 be0:	81 1d       	adc	r24, r1
 be2:	08 95       	ret

00000be4 <__fp_inf>:
 be4:	97 f9       	bld	r25, 7
 be6:	9f 67       	ori	r25, 0x7F	; 127
 be8:	80 e8       	ldi	r24, 0x80	; 128
 bea:	70 e0       	ldi	r23, 0x00	; 0
 bec:	60 e0       	ldi	r22, 0x00	; 0
 bee:	08 95       	ret

00000bf0 <__fp_nan>:
 bf0:	9f ef       	ldi	r25, 0xFF	; 255
 bf2:	80 ec       	ldi	r24, 0xC0	; 192
 bf4:	08 95       	ret

00000bf6 <__fp_powser>:
 bf6:	df 93       	push	r29
 bf8:	cf 93       	push	r28
 bfa:	1f 93       	push	r17
 bfc:	0f 93       	push	r16
 bfe:	ff 92       	push	r15
 c00:	ef 92       	push	r14
 c02:	df 92       	push	r13
 c04:	7b 01       	movw	r14, r22
 c06:	8c 01       	movw	r16, r24
 c08:	68 94       	set
 c0a:	05 c0       	rjmp	.+10     	; 0xc16 <__fp_powser+0x20>
 c0c:	da 2e       	mov	r13, r26
 c0e:	ef 01       	movw	r28, r30
 c10:	db d0       	rcall	.+438    	; 0xdc8 <__mulsf3x>
 c12:	fe 01       	movw	r30, r28
 c14:	e8 94       	clt
 c16:	a5 91       	lpm	r26, Z+
 c18:	25 91       	lpm	r18, Z+
 c1a:	35 91       	lpm	r19, Z+
 c1c:	45 91       	lpm	r20, Z+
 c1e:	55 91       	lpm	r21, Z+
 c20:	ae f3       	brts	.-22     	; 0xc0c <__fp_powser+0x16>
 c22:	ef 01       	movw	r28, r30
 c24:	62 de       	rcall	.-828    	; 0x8ea <__addsf3x>
 c26:	fe 01       	movw	r30, r28
 c28:	97 01       	movw	r18, r14
 c2a:	a8 01       	movw	r20, r16
 c2c:	da 94       	dec	r13
 c2e:	79 f7       	brne	.-34     	; 0xc0e <__fp_powser+0x18>
 c30:	df 90       	pop	r13
 c32:	ef 90       	pop	r14
 c34:	ff 90       	pop	r15
 c36:	0f 91       	pop	r16
 c38:	1f 91       	pop	r17
 c3a:	cf 91       	pop	r28
 c3c:	df 91       	pop	r29
 c3e:	08 95       	ret

00000c40 <__fp_pscA>:
 c40:	00 24       	eor	r0, r0
 c42:	0a 94       	dec	r0
 c44:	16 16       	cp	r1, r22
 c46:	17 06       	cpc	r1, r23
 c48:	18 06       	cpc	r1, r24
 c4a:	09 06       	cpc	r0, r25
 c4c:	08 95       	ret

00000c4e <__fp_pscB>:
 c4e:	00 24       	eor	r0, r0
 c50:	0a 94       	dec	r0
 c52:	12 16       	cp	r1, r18
 c54:	13 06       	cpc	r1, r19
 c56:	14 06       	cpc	r1, r20
 c58:	05 06       	cpc	r0, r21
 c5a:	08 95       	ret

00000c5c <__fp_round>:
 c5c:	09 2e       	mov	r0, r25
 c5e:	03 94       	inc	r0
 c60:	00 0c       	add	r0, r0
 c62:	11 f4       	brne	.+4      	; 0xc68 <__fp_round+0xc>
 c64:	88 23       	and	r24, r24
 c66:	52 f0       	brmi	.+20     	; 0xc7c <__fp_round+0x20>
 c68:	bb 0f       	add	r27, r27
 c6a:	40 f4       	brcc	.+16     	; 0xc7c <__fp_round+0x20>
 c6c:	bf 2b       	or	r27, r31
 c6e:	11 f4       	brne	.+4      	; 0xc74 <__fp_round+0x18>
 c70:	60 ff       	sbrs	r22, 0
 c72:	04 c0       	rjmp	.+8      	; 0xc7c <__fp_round+0x20>
 c74:	6f 5f       	subi	r22, 0xFF	; 255
 c76:	7f 4f       	sbci	r23, 0xFF	; 255
 c78:	8f 4f       	sbci	r24, 0xFF	; 255
 c7a:	9f 4f       	sbci	r25, 0xFF	; 255
 c7c:	08 95       	ret

00000c7e <__fp_split3>:
 c7e:	57 fd       	sbrc	r21, 7
 c80:	90 58       	subi	r25, 0x80	; 128
 c82:	44 0f       	add	r20, r20
 c84:	55 1f       	adc	r21, r21
 c86:	59 f0       	breq	.+22     	; 0xc9e <__fp_splitA+0x10>
 c88:	5f 3f       	cpi	r21, 0xFF	; 255
 c8a:	71 f0       	breq	.+28     	; 0xca8 <__fp_splitA+0x1a>
 c8c:	47 95       	ror	r20

00000c8e <__fp_splitA>:
 c8e:	88 0f       	add	r24, r24
 c90:	97 fb       	bst	r25, 7
 c92:	99 1f       	adc	r25, r25
 c94:	61 f0       	breq	.+24     	; 0xcae <__fp_splitA+0x20>
 c96:	9f 3f       	cpi	r25, 0xFF	; 255
 c98:	79 f0       	breq	.+30     	; 0xcb8 <__fp_splitA+0x2a>
 c9a:	87 95       	ror	r24
 c9c:	08 95       	ret
 c9e:	12 16       	cp	r1, r18
 ca0:	13 06       	cpc	r1, r19
 ca2:	14 06       	cpc	r1, r20
 ca4:	55 1f       	adc	r21, r21
 ca6:	f2 cf       	rjmp	.-28     	; 0xc8c <__fp_split3+0xe>
 ca8:	46 95       	lsr	r20
 caa:	f1 df       	rcall	.-30     	; 0xc8e <__fp_splitA>
 cac:	08 c0       	rjmp	.+16     	; 0xcbe <__fp_splitA+0x30>
 cae:	16 16       	cp	r1, r22
 cb0:	17 06       	cpc	r1, r23
 cb2:	18 06       	cpc	r1, r24
 cb4:	99 1f       	adc	r25, r25
 cb6:	f1 cf       	rjmp	.-30     	; 0xc9a <__fp_splitA+0xc>
 cb8:	86 95       	lsr	r24
 cba:	71 05       	cpc	r23, r1
 cbc:	61 05       	cpc	r22, r1
 cbe:	08 94       	sec
 cc0:	08 95       	ret

00000cc2 <__fp_zero>:
 cc2:	e8 94       	clt

00000cc4 <__fp_szero>:
 cc4:	bb 27       	eor	r27, r27
 cc6:	66 27       	eor	r22, r22
 cc8:	77 27       	eor	r23, r23
 cca:	cb 01       	movw	r24, r22
 ccc:	97 f9       	bld	r25, 7
 cce:	08 95       	ret

00000cd0 <inverse>:
 cd0:	9b 01       	movw	r18, r22
 cd2:	ac 01       	movw	r20, r24
 cd4:	60 e0       	ldi	r22, 0x00	; 0
 cd6:	70 e0       	ldi	r23, 0x00	; 0
 cd8:	80 e8       	ldi	r24, 0x80	; 128
 cda:	9f e3       	ldi	r25, 0x3F	; 63
 cdc:	5d ce       	rjmp	.-838    	; 0x998 <__divsf3>
 cde:	82 cf       	rjmp	.-252    	; 0xbe4 <__fp_inf>
 ce0:	d0 c0       	rjmp	.+416    	; 0xe82 <__fp_mpack>

00000ce2 <ldexp>:
 ce2:	d5 df       	rcall	.-86     	; 0xc8e <__fp_splitA>
 ce4:	e8 f3       	brcs	.-6      	; 0xce0 <inverse+0x10>
 ce6:	99 23       	and	r25, r25
 ce8:	d9 f3       	breq	.-10     	; 0xce0 <inverse+0x10>
 cea:	94 0f       	add	r25, r20
 cec:	51 1d       	adc	r21, r1
 cee:	bb f3       	brvs	.-18     	; 0xcde <inverse+0xe>
 cf0:	91 50       	subi	r25, 0x01	; 1
 cf2:	50 40       	sbci	r21, 0x00	; 0
 cf4:	94 f0       	brlt	.+36     	; 0xd1a <ldexp+0x38>
 cf6:	59 f0       	breq	.+22     	; 0xd0e <ldexp+0x2c>
 cf8:	88 23       	and	r24, r24
 cfa:	32 f0       	brmi	.+12     	; 0xd08 <ldexp+0x26>
 cfc:	66 0f       	add	r22, r22
 cfe:	77 1f       	adc	r23, r23
 d00:	88 1f       	adc	r24, r24
 d02:	91 50       	subi	r25, 0x01	; 1
 d04:	50 40       	sbci	r21, 0x00	; 0
 d06:	c1 f7       	brne	.-16     	; 0xcf8 <ldexp+0x16>
 d08:	9e 3f       	cpi	r25, 0xFE	; 254
 d0a:	51 05       	cpc	r21, r1
 d0c:	44 f7       	brge	.-48     	; 0xcde <inverse+0xe>
 d0e:	88 0f       	add	r24, r24
 d10:	91 1d       	adc	r25, r1
 d12:	96 95       	lsr	r25
 d14:	87 95       	ror	r24
 d16:	97 f9       	bld	r25, 7
 d18:	08 95       	ret
 d1a:	5f 3f       	cpi	r21, 0xFF	; 255
 d1c:	ac f0       	brlt	.+42     	; 0xd48 <ldexp+0x66>
 d1e:	98 3e       	cpi	r25, 0xE8	; 232
 d20:	9c f0       	brlt	.+38     	; 0xd48 <ldexp+0x66>
 d22:	bb 27       	eor	r27, r27
 d24:	86 95       	lsr	r24
 d26:	77 95       	ror	r23
 d28:	67 95       	ror	r22
 d2a:	b7 95       	ror	r27
 d2c:	08 f4       	brcc	.+2      	; 0xd30 <ldexp+0x4e>
 d2e:	b1 60       	ori	r27, 0x01	; 1
 d30:	93 95       	inc	r25
 d32:	c1 f7       	brne	.-16     	; 0xd24 <ldexp+0x42>
 d34:	bb 0f       	add	r27, r27
 d36:	58 f7       	brcc	.-42     	; 0xd0e <ldexp+0x2c>
 d38:	11 f4       	brne	.+4      	; 0xd3e <ldexp+0x5c>
 d3a:	60 ff       	sbrs	r22, 0
 d3c:	e8 cf       	rjmp	.-48     	; 0xd0e <ldexp+0x2c>
 d3e:	6f 5f       	subi	r22, 0xFF	; 255
 d40:	7f 4f       	sbci	r23, 0xFF	; 255
 d42:	8f 4f       	sbci	r24, 0xFF	; 255
 d44:	9f 4f       	sbci	r25, 0xFF	; 255
 d46:	e3 cf       	rjmp	.-58     	; 0xd0e <ldexp+0x2c>
 d48:	bd cf       	rjmp	.-134    	; 0xcc4 <__fp_szero>

00000d4a <modf>:
 d4a:	fa 01       	movw	r30, r20
 d4c:	dc 01       	movw	r26, r24
 d4e:	aa 0f       	add	r26, r26
 d50:	bb 1f       	adc	r27, r27
 d52:	9b 01       	movw	r18, r22
 d54:	ac 01       	movw	r20, r24
 d56:	bf 57       	subi	r27, 0x7F	; 127
 d58:	28 f4       	brcc	.+10     	; 0xd64 <modf+0x1a>
 d5a:	22 27       	eor	r18, r18
 d5c:	33 27       	eor	r19, r19
 d5e:	44 27       	eor	r20, r20
 d60:	50 78       	andi	r21, 0x80	; 128
 d62:	1f c0       	rjmp	.+62     	; 0xda2 <modf+0x58>
 d64:	b7 51       	subi	r27, 0x17	; 23
 d66:	88 f4       	brcc	.+34     	; 0xd8a <modf+0x40>
 d68:	ab 2f       	mov	r26, r27
 d6a:	00 24       	eor	r0, r0
 d6c:	46 95       	lsr	r20
 d6e:	37 95       	ror	r19
 d70:	27 95       	ror	r18
 d72:	01 1c       	adc	r0, r1
 d74:	a3 95       	inc	r26
 d76:	d2 f3       	brmi	.-12     	; 0xd6c <modf+0x22>
 d78:	00 20       	and	r0, r0
 d7a:	69 f0       	breq	.+26     	; 0xd96 <modf+0x4c>
 d7c:	22 0f       	add	r18, r18
 d7e:	33 1f       	adc	r19, r19
 d80:	44 1f       	adc	r20, r20
 d82:	b3 95       	inc	r27
 d84:	da f3       	brmi	.-10     	; 0xd7c <modf+0x32>
 d86:	0d d0       	rcall	.+26     	; 0xda2 <modf+0x58>
 d88:	9e cd       	rjmp	.-1220   	; 0x8c6 <__subsf3>
 d8a:	61 30       	cpi	r22, 0x01	; 1
 d8c:	71 05       	cpc	r23, r1
 d8e:	a0 e8       	ldi	r26, 0x80	; 128
 d90:	8a 07       	cpc	r24, r26
 d92:	b9 46       	sbci	r27, 0x69	; 105
 d94:	30 f4       	brcc	.+12     	; 0xda2 <modf+0x58>
 d96:	9b 01       	movw	r18, r22
 d98:	ac 01       	movw	r20, r24
 d9a:	66 27       	eor	r22, r22
 d9c:	77 27       	eor	r23, r23
 d9e:	88 27       	eor	r24, r24
 da0:	90 78       	andi	r25, 0x80	; 128
 da2:	30 96       	adiw	r30, 0x00	; 0
 da4:	21 f0       	breq	.+8      	; 0xdae <modf+0x64>
 da6:	20 83       	st	Z, r18
 da8:	31 83       	std	Z+1, r19	; 0x01
 daa:	42 83       	std	Z+2, r20	; 0x02
 dac:	53 83       	std	Z+3, r21	; 0x03
 dae:	08 95       	ret

00000db0 <__mulsf3>:
 db0:	0b d0       	rcall	.+22     	; 0xdc8 <__mulsf3x>
 db2:	54 cf       	rjmp	.-344    	; 0xc5c <__fp_round>
 db4:	45 df       	rcall	.-374    	; 0xc40 <__fp_pscA>
 db6:	28 f0       	brcs	.+10     	; 0xdc2 <__mulsf3+0x12>
 db8:	4a df       	rcall	.-364    	; 0xc4e <__fp_pscB>
 dba:	18 f0       	brcs	.+6      	; 0xdc2 <__mulsf3+0x12>
 dbc:	95 23       	and	r25, r21
 dbe:	09 f0       	breq	.+2      	; 0xdc2 <__mulsf3+0x12>
 dc0:	11 cf       	rjmp	.-478    	; 0xbe4 <__fp_inf>
 dc2:	16 cf       	rjmp	.-468    	; 0xbf0 <__fp_nan>
 dc4:	11 24       	eor	r1, r1
 dc6:	7e cf       	rjmp	.-260    	; 0xcc4 <__fp_szero>

00000dc8 <__mulsf3x>:
 dc8:	5a df       	rcall	.-332    	; 0xc7e <__fp_split3>
 dca:	a0 f3       	brcs	.-24     	; 0xdb4 <__mulsf3+0x4>

00000dcc <__mulsf3_pse>:
 dcc:	95 9f       	mul	r25, r21
 dce:	d1 f3       	breq	.-12     	; 0xdc4 <__mulsf3+0x14>
 dd0:	95 0f       	add	r25, r21
 dd2:	50 e0       	ldi	r21, 0x00	; 0
 dd4:	55 1f       	adc	r21, r21
 dd6:	62 9f       	mul	r22, r18
 dd8:	f0 01       	movw	r30, r0
 dda:	72 9f       	mul	r23, r18
 ddc:	bb 27       	eor	r27, r27
 dde:	f0 0d       	add	r31, r0
 de0:	b1 1d       	adc	r27, r1
 de2:	63 9f       	mul	r22, r19
 de4:	aa 27       	eor	r26, r26
 de6:	f0 0d       	add	r31, r0
 de8:	b1 1d       	adc	r27, r1
 dea:	aa 1f       	adc	r26, r26
 dec:	64 9f       	mul	r22, r20
 dee:	66 27       	eor	r22, r22
 df0:	b0 0d       	add	r27, r0
 df2:	a1 1d       	adc	r26, r1
 df4:	66 1f       	adc	r22, r22
 df6:	82 9f       	mul	r24, r18
 df8:	22 27       	eor	r18, r18
 dfa:	b0 0d       	add	r27, r0
 dfc:	a1 1d       	adc	r26, r1
 dfe:	62 1f       	adc	r22, r18
 e00:	73 9f       	mul	r23, r19
 e02:	b0 0d       	add	r27, r0
 e04:	a1 1d       	adc	r26, r1
 e06:	62 1f       	adc	r22, r18
 e08:	83 9f       	mul	r24, r19
 e0a:	a0 0d       	add	r26, r0
 e0c:	61 1d       	adc	r22, r1
 e0e:	22 1f       	adc	r18, r18
 e10:	74 9f       	mul	r23, r20
 e12:	33 27       	eor	r19, r19
 e14:	a0 0d       	add	r26, r0
 e16:	61 1d       	adc	r22, r1
 e18:	23 1f       	adc	r18, r19
 e1a:	84 9f       	mul	r24, r20
 e1c:	60 0d       	add	r22, r0
 e1e:	21 1d       	adc	r18, r1
 e20:	82 2f       	mov	r24, r18
 e22:	76 2f       	mov	r23, r22
 e24:	6a 2f       	mov	r22, r26
 e26:	11 24       	eor	r1, r1
 e28:	9f 57       	subi	r25, 0x7F	; 127
 e2a:	50 40       	sbci	r21, 0x00	; 0
 e2c:	8a f0       	brmi	.+34     	; 0xe50 <__mulsf3_pse+0x84>
 e2e:	e1 f0       	breq	.+56     	; 0xe68 <__mulsf3_pse+0x9c>
 e30:	88 23       	and	r24, r24
 e32:	4a f0       	brmi	.+18     	; 0xe46 <__mulsf3_pse+0x7a>
 e34:	ee 0f       	add	r30, r30
 e36:	ff 1f       	adc	r31, r31
 e38:	bb 1f       	adc	r27, r27
 e3a:	66 1f       	adc	r22, r22
 e3c:	77 1f       	adc	r23, r23
 e3e:	88 1f       	adc	r24, r24
 e40:	91 50       	subi	r25, 0x01	; 1
 e42:	50 40       	sbci	r21, 0x00	; 0
 e44:	a9 f7       	brne	.-22     	; 0xe30 <__mulsf3_pse+0x64>
 e46:	9e 3f       	cpi	r25, 0xFE	; 254
 e48:	51 05       	cpc	r21, r1
 e4a:	70 f0       	brcs	.+28     	; 0xe68 <__mulsf3_pse+0x9c>
 e4c:	cb ce       	rjmp	.-618    	; 0xbe4 <__fp_inf>
 e4e:	3a cf       	rjmp	.-396    	; 0xcc4 <__fp_szero>
 e50:	5f 3f       	cpi	r21, 0xFF	; 255
 e52:	ec f3       	brlt	.-6      	; 0xe4e <__mulsf3_pse+0x82>
 e54:	98 3e       	cpi	r25, 0xE8	; 232
 e56:	dc f3       	brlt	.-10     	; 0xe4e <__mulsf3_pse+0x82>
 e58:	86 95       	lsr	r24
 e5a:	77 95       	ror	r23
 e5c:	67 95       	ror	r22
 e5e:	b7 95       	ror	r27
 e60:	f7 95       	ror	r31
 e62:	e7 95       	ror	r30
 e64:	9f 5f       	subi	r25, 0xFF	; 255
 e66:	c1 f7       	brne	.-16     	; 0xe58 <__mulsf3_pse+0x8c>
 e68:	fe 2b       	or	r31, r30
 e6a:	88 0f       	add	r24, r24
 e6c:	91 1d       	adc	r25, r1
 e6e:	96 95       	lsr	r25
 e70:	87 95       	ror	r24
 e72:	97 f9       	bld	r25, 7
 e74:	08 95       	ret

00000e76 <sin>:
 e76:	9f 93       	push	r25
 e78:	13 d0       	rcall	.+38     	; 0xea0 <__fp_rempio2>
 e7a:	0f 90       	pop	r0
 e7c:	07 fc       	sbrc	r0, 7
 e7e:	ee 5f       	subi	r30, 0xFE	; 254
 e80:	36 c0       	rjmp	.+108    	; 0xeee <__fp_sinus>

00000e82 <__fp_mpack>:
 e82:	9f 3f       	cpi	r25, 0xFF	; 255
 e84:	31 f0       	breq	.+12     	; 0xe92 <__fp_mpack_finite+0xc>

00000e86 <__fp_mpack_finite>:
 e86:	91 50       	subi	r25, 0x01	; 1
 e88:	20 f4       	brcc	.+8      	; 0xe92 <__fp_mpack_finite+0xc>
 e8a:	87 95       	ror	r24
 e8c:	77 95       	ror	r23
 e8e:	67 95       	ror	r22
 e90:	b7 95       	ror	r27
 e92:	88 0f       	add	r24, r24
 e94:	91 1d       	adc	r25, r1
 e96:	96 95       	lsr	r25
 e98:	87 95       	ror	r24
 e9a:	97 f9       	bld	r25, 7
 e9c:	08 95       	ret
 e9e:	a8 ce       	rjmp	.-688    	; 0xbf0 <__fp_nan>

00000ea0 <__fp_rempio2>:
 ea0:	f6 de       	rcall	.-532    	; 0xc8e <__fp_splitA>
 ea2:	e8 f3       	brcs	.-6      	; 0xe9e <__fp_mpack_finite+0x18>
 ea4:	e8 94       	clt
 ea6:	e0 e0       	ldi	r30, 0x00	; 0
 ea8:	bb 27       	eor	r27, r27
 eaa:	9f 57       	subi	r25, 0x7F	; 127
 eac:	f0 f0       	brcs	.+60     	; 0xeea <__fp_rempio2+0x4a>
 eae:	2a ed       	ldi	r18, 0xDA	; 218
 eb0:	3f e0       	ldi	r19, 0x0F	; 15
 eb2:	49 ec       	ldi	r20, 0xC9	; 201
 eb4:	06 c0       	rjmp	.+12     	; 0xec2 <__fp_rempio2+0x22>
 eb6:	ee 0f       	add	r30, r30
 eb8:	bb 0f       	add	r27, r27
 eba:	66 1f       	adc	r22, r22
 ebc:	77 1f       	adc	r23, r23
 ebe:	88 1f       	adc	r24, r24
 ec0:	28 f0       	brcs	.+10     	; 0xecc <__fp_rempio2+0x2c>
 ec2:	b2 3a       	cpi	r27, 0xA2	; 162
 ec4:	62 07       	cpc	r22, r18
 ec6:	73 07       	cpc	r23, r19
 ec8:	84 07       	cpc	r24, r20
 eca:	28 f0       	brcs	.+10     	; 0xed6 <__fp_rempio2+0x36>
 ecc:	b2 5a       	subi	r27, 0xA2	; 162
 ece:	62 0b       	sbc	r22, r18
 ed0:	73 0b       	sbc	r23, r19
 ed2:	84 0b       	sbc	r24, r20
 ed4:	e3 95       	inc	r30
 ed6:	9a 95       	dec	r25
 ed8:	72 f7       	brpl	.-36     	; 0xeb6 <__fp_rempio2+0x16>
 eda:	80 38       	cpi	r24, 0x80	; 128
 edc:	30 f4       	brcc	.+12     	; 0xeea <__fp_rempio2+0x4a>
 ede:	9a 95       	dec	r25
 ee0:	bb 0f       	add	r27, r27
 ee2:	66 1f       	adc	r22, r22
 ee4:	77 1f       	adc	r23, r23
 ee6:	88 1f       	adc	r24, r24
 ee8:	d2 f7       	brpl	.-12     	; 0xede <__fp_rempio2+0x3e>
 eea:	90 48       	sbci	r25, 0x80	; 128
 eec:	cc cf       	rjmp	.-104    	; 0xe86 <__fp_mpack_finite>

00000eee <__fp_sinus>:
 eee:	ef 93       	push	r30
 ef0:	e0 ff       	sbrs	r30, 0
 ef2:	06 c0       	rjmp	.+12     	; 0xf00 <__fp_sinus+0x12>
 ef4:	a2 ea       	ldi	r26, 0xA2	; 162
 ef6:	2a ed       	ldi	r18, 0xDA	; 218
 ef8:	3f e0       	ldi	r19, 0x0F	; 15
 efa:	49 ec       	ldi	r20, 0xC9	; 201
 efc:	5f eb       	ldi	r21, 0xBF	; 191
 efe:	f5 dc       	rcall	.-1558   	; 0x8ea <__addsf3x>
 f00:	ad de       	rcall	.-678    	; 0xc5c <__fp_round>
 f02:	0f 90       	pop	r0
 f04:	03 94       	inc	r0
 f06:	01 fc       	sbrc	r0, 1
 f08:	90 58       	subi	r25, 0x80	; 128
 f0a:	e4 e2       	ldi	r30, 0x24	; 36
 f0c:	f2 e0       	ldi	r31, 0x02	; 2
 f0e:	00 c0       	rjmp	.+0      	; 0xf10 <__fp_powsodd>

00000f10 <__fp_powsodd>:
 f10:	9f 93       	push	r25
 f12:	8f 93       	push	r24
 f14:	7f 93       	push	r23
 f16:	6f 93       	push	r22
 f18:	ff 93       	push	r31
 f1a:	ef 93       	push	r30
 f1c:	9b 01       	movw	r18, r22
 f1e:	ac 01       	movw	r20, r24
 f20:	47 df       	rcall	.-370    	; 0xdb0 <__mulsf3>
 f22:	ef 91       	pop	r30
 f24:	ff 91       	pop	r31
 f26:	67 de       	rcall	.-818    	; 0xbf6 <__fp_powser>
 f28:	2f 91       	pop	r18
 f2a:	3f 91       	pop	r19
 f2c:	4f 91       	pop	r20
 f2e:	5f 91       	pop	r21
 f30:	3f cf       	rjmp	.-386    	; 0xdb0 <__mulsf3>

00000f32 <__divmodhi4>:
 f32:	97 fb       	bst	r25, 7
 f34:	07 2e       	mov	r0, r23
 f36:	16 f4       	brtc	.+4      	; 0xf3c <__divmodhi4+0xa>
 f38:	00 94       	com	r0
 f3a:	07 d0       	rcall	.+14     	; 0xf4a <__divmodhi4_neg1>
 f3c:	77 fd       	sbrc	r23, 7
 f3e:	09 d0       	rcall	.+18     	; 0xf52 <__divmodhi4_neg2>
 f40:	0e 94 ad 07 	call	0xf5a	; 0xf5a <__udivmodhi4>
 f44:	07 fc       	sbrc	r0, 7
 f46:	05 d0       	rcall	.+10     	; 0xf52 <__divmodhi4_neg2>
 f48:	3e f4       	brtc	.+14     	; 0xf58 <__divmodhi4_exit>

00000f4a <__divmodhi4_neg1>:
 f4a:	90 95       	com	r25
 f4c:	81 95       	neg	r24
 f4e:	9f 4f       	sbci	r25, 0xFF	; 255
 f50:	08 95       	ret

00000f52 <__divmodhi4_neg2>:
 f52:	70 95       	com	r23
 f54:	61 95       	neg	r22
 f56:	7f 4f       	sbci	r23, 0xFF	; 255

00000f58 <__divmodhi4_exit>:
 f58:	08 95       	ret

00000f5a <__udivmodhi4>:
 f5a:	aa 1b       	sub	r26, r26
 f5c:	bb 1b       	sub	r27, r27
 f5e:	51 e1       	ldi	r21, 0x11	; 17
 f60:	07 c0       	rjmp	.+14     	; 0xf70 <__udivmodhi4_ep>

00000f62 <__udivmodhi4_loop>:
 f62:	aa 1f       	adc	r26, r26
 f64:	bb 1f       	adc	r27, r27
 f66:	a6 17       	cp	r26, r22
 f68:	b7 07       	cpc	r27, r23
 f6a:	10 f0       	brcs	.+4      	; 0xf70 <__udivmodhi4_ep>
 f6c:	a6 1b       	sub	r26, r22
 f6e:	b7 0b       	sbc	r27, r23

00000f70 <__udivmodhi4_ep>:
 f70:	88 1f       	adc	r24, r24
 f72:	99 1f       	adc	r25, r25
 f74:	5a 95       	dec	r21
 f76:	a9 f7       	brne	.-22     	; 0xf62 <__udivmodhi4_loop>
 f78:	80 95       	com	r24
 f7a:	90 95       	com	r25
 f7c:	bc 01       	movw	r22, r24
 f7e:	cd 01       	movw	r24, r26
 f80:	08 95       	ret

00000f82 <_exit>:
 f82:	f8 94       	cli

00000f84 <__stop_program>:
 f84:	ff cf       	rjmp	.-2      	; 0xf84 <__stop_program>
